; Listing generated by Microsoft (R) Optimizing Compiler Version 19.15.26730.0 

	TITLE	D:\Utilisateurs\Samuel\Mes documents\Cours\UQAC\IA\RavenProject\Sources\Raven_team.cpp
	.686P
	.XMM
	include listing.inc
	.model	flat

INCLUDELIB LIBCMTD
INCLUDELIB OLDNAMES

PUBLIC	?__empty_global_delete@@YAXPAX@Z		; __empty_global_delete
PUBLIC	?__empty_global_delete@@YAXPAXI@Z		; __empty_global_delete
PUBLIC	??2@YAPAXIPAX@Z					; operator new
PUBLIC	?max@?$numeric_limits@H@std@@SAHXZ		; std::numeric_limits<int>::max
PUBLIC	?min@?$numeric_limits@M@std@@SAMXZ		; std::numeric_limits<float>::min
PUBLIC	?max@?$numeric_limits@M@std@@SAMXZ		; std::numeric_limits<float>::max
PUBLIC	?min@?$numeric_limits@N@std@@SANXZ		; std::numeric_limits<double>::min
PUBLIC	?max@?$numeric_limits@N@std@@SANXZ		; std::numeric_limits<double>::max
PUBLIC	??0_Container_proxy@std@@QAE@XZ			; std::_Container_proxy::_Container_proxy
PUBLIC	??0_Container_base12@std@@QAE@XZ		; std::_Container_base12::_Container_base12
PUBLIC	?_Getpfirst@_Container_base12@std@@QBEPAPAU_Iterator_base12@2@XZ ; std::_Container_base12::_Getpfirst
PUBLIC	?_Orphan_all@_Container_base12@std@@QAEXXZ	; std::_Container_base12::_Orphan_all
PUBLIC	?_Clrcont@_Iterator_base12@std@@QAEXXZ		; std::_Iterator_base12::_Clrcont
PUBLIC	?_Getpnext@_Iterator_base12@std@@QAEPAPAU12@XZ	; std::_Iterator_base12::_Getpnext
PUBLIC	?_Allocate@_Default_allocate_traits@std@@SAPAXI@Z ; std::_Default_allocate_traits::_Allocate
PUBLIC	?_Adjust_manually_vector_aligned@std@@YAXAAPAXAAI@Z ; std::_Adjust_manually_vector_aligned
PUBLIC	?SetTeam@Raven_Bot@@QAEXPAVRaven_team@@@Z	; Raven_Bot::SetTeam
PUBLIC	??0?$allocator@PAVRaven_Bot@@@std@@QAE@XZ	; std::allocator<Raven_Bot *>::allocator<Raven_Bot *>
PUBLIC	?deallocate@?$allocator@PAVRaven_Bot@@@std@@QAEXQAPAVRaven_Bot@@I@Z ; std::allocator<Raven_Bot *>::deallocate
PUBLIC	?allocate@?$allocator@PAVRaven_Bot@@@std@@QAEPAPAVRaven_Bot@@I@Z ; std::allocator<Raven_Bot *>::allocate
PUBLIC	?max_size@?$_Default_allocator_traits@V?$allocator@PAVRaven_Bot@@@std@@@std@@SAIABV?$allocator@PAVRaven_Bot@@@2@@Z ; std::_Default_allocator_traits<std::allocator<Raven_Bot *> >::max_size
PUBLIC	??0?$_Vector_alloc@U?$_Vec_base_types@PAVRaven_Bot@@V?$allocator@PAVRaven_Bot@@@std@@@std@@@std@@QAE@XZ ; std::_Vector_alloc<std::_Vec_base_types<Raven_Bot *,std::allocator<Raven_Bot *> > >::_Vector_alloc<std::_Vec_base_types<Raven_Bot *,std::allocator<Raven_Bot *> > >
PUBLIC	??1?$_Vector_alloc@U?$_Vec_base_types@PAVRaven_Bot@@V?$allocator@PAVRaven_Bot@@@std@@@std@@@std@@QAE@XZ ; std::_Vector_alloc<std::_Vec_base_types<Raven_Bot *,std::allocator<Raven_Bot *> > >::~_Vector_alloc<std::_Vec_base_types<Raven_Bot *,std::allocator<Raven_Bot *> > >
PUBLIC	?_Alloc_proxy@?$_Vector_alloc@U?$_Vec_base_types@PAVRaven_Bot@@V?$allocator@PAVRaven_Bot@@@std@@@std@@@std@@QAEXXZ ; std::_Vector_alloc<std::_Vec_base_types<Raven_Bot *,std::allocator<Raven_Bot *> > >::_Alloc_proxy
PUBLIC	?_Free_proxy@?$_Vector_alloc@U?$_Vec_base_types@PAVRaven_Bot@@V?$allocator@PAVRaven_Bot@@@std@@@std@@@std@@QAEXXZ ; std::_Vector_alloc<std::_Vec_base_types<Raven_Bot *,std::allocator<Raven_Bot *> > >::_Free_proxy
PUBLIC	?_Getpfirst@?$_Vector_alloc@U?$_Vec_base_types@PAVRaven_Bot@@V?$allocator@PAVRaven_Bot@@@std@@@std@@@std@@QBEPAPAU_Iterator_base12@2@XZ ; std::_Vector_alloc<std::_Vec_base_types<Raven_Bot *,std::allocator<Raven_Bot *> > >::_Getpfirst
PUBLIC	?_Myproxy@?$_Vector_alloc@U?$_Vec_base_types@PAVRaven_Bot@@V?$allocator@PAVRaven_Bot@@@std@@@std@@@std@@QAEAAPAU_Container_proxy@2@XZ ; std::_Vector_alloc<std::_Vec_base_types<Raven_Bot *,std::allocator<Raven_Bot *> > >::_Myproxy
PUBLIC	?_Orphan_all@?$_Vector_alloc@U?$_Vec_base_types@PAVRaven_Bot@@V?$allocator@PAVRaven_Bot@@@std@@@std@@@std@@QAEXXZ ; std::_Vector_alloc<std::_Vec_base_types<Raven_Bot *,std::allocator<Raven_Bot *> > >::_Orphan_all
PUBLIC	?_Getal@?$_Vector_alloc@U?$_Vec_base_types@PAVRaven_Bot@@V?$allocator@PAVRaven_Bot@@@std@@@std@@@std@@QAEAAV?$allocator@PAVRaven_Bot@@@2@XZ ; std::_Vector_alloc<std::_Vec_base_types<Raven_Bot *,std::allocator<Raven_Bot *> > >::_Getal
PUBLIC	?_Getal@?$_Vector_alloc@U?$_Vec_base_types@PAVRaven_Bot@@V?$allocator@PAVRaven_Bot@@@std@@@std@@@std@@QBEABV?$allocator@PAVRaven_Bot@@@2@XZ ; std::_Vector_alloc<std::_Vec_base_types<Raven_Bot *,std::allocator<Raven_Bot *> > >::_Getal
PUBLIC	?_Get_data@?$_Vector_alloc@U?$_Vec_base_types@PAVRaven_Bot@@V?$allocator@PAVRaven_Bot@@@std@@@std@@@std@@QAEAAV?$_Vector_val@U?$_Simple_types@PAVRaven_Bot@@@std@@@2@XZ ; std::_Vector_alloc<std::_Vec_base_types<Raven_Bot *,std::allocator<Raven_Bot *> > >::_Get_data
PUBLIC	?_Get_data@?$_Vector_alloc@U?$_Vec_base_types@PAVRaven_Bot@@V?$allocator@PAVRaven_Bot@@@std@@@std@@@std@@QBEABV?$_Vector_val@U?$_Simple_types@PAVRaven_Bot@@@std@@@2@XZ ; std::_Vector_alloc<std::_Vec_base_types<Raven_Bot *,std::allocator<Raven_Bot *> > >::_Get_data
PUBLIC	?_Myfirst@?$_Vector_alloc@U?$_Vec_base_types@PAVRaven_Bot@@V?$allocator@PAVRaven_Bot@@@std@@@std@@@std@@QAEAAPAPAVRaven_Bot@@XZ ; std::_Vector_alloc<std::_Vec_base_types<Raven_Bot *,std::allocator<Raven_Bot *> > >::_Myfirst
PUBLIC	?_Myfirst@?$_Vector_alloc@U?$_Vec_base_types@PAVRaven_Bot@@V?$allocator@PAVRaven_Bot@@@std@@@std@@@std@@QBEABQAPAVRaven_Bot@@XZ ; std::_Vector_alloc<std::_Vec_base_types<Raven_Bot *,std::allocator<Raven_Bot *> > >::_Myfirst
PUBLIC	?_Mylast@?$_Vector_alloc@U?$_Vec_base_types@PAVRaven_Bot@@V?$allocator@PAVRaven_Bot@@@std@@@std@@@std@@QAEAAPAPAVRaven_Bot@@XZ ; std::_Vector_alloc<std::_Vec_base_types<Raven_Bot *,std::allocator<Raven_Bot *> > >::_Mylast
PUBLIC	?_Mylast@?$_Vector_alloc@U?$_Vec_base_types@PAVRaven_Bot@@V?$allocator@PAVRaven_Bot@@@std@@@std@@@std@@QBEABQAPAVRaven_Bot@@XZ ; std::_Vector_alloc<std::_Vec_base_types<Raven_Bot *,std::allocator<Raven_Bot *> > >::_Mylast
PUBLIC	?_Myend@?$_Vector_alloc@U?$_Vec_base_types@PAVRaven_Bot@@V?$allocator@PAVRaven_Bot@@@std@@@std@@@std@@QAEAAPAPAVRaven_Bot@@XZ ; std::_Vector_alloc<std::_Vec_base_types<Raven_Bot *,std::allocator<Raven_Bot *> > >::_Myend
PUBLIC	?_Myend@?$_Vector_alloc@U?$_Vec_base_types@PAVRaven_Bot@@V?$allocator@PAVRaven_Bot@@@std@@@std@@@std@@QBEABQAPAVRaven_Bot@@XZ ; std::_Vector_alloc<std::_Vec_base_types<Raven_Bot *,std::allocator<Raven_Bot *> > >::_Myend
PUBLIC	??0?$_Vector_val@U?$_Simple_types@PAVRaven_Bot@@@std@@@std@@QAE@XZ ; std::_Vector_val<std::_Simple_types<Raven_Bot *> >::_Vector_val<std::_Simple_types<Raven_Bot *> >
PUBLIC	?_Get_first@?$_Compressed_pair@V?$allocator@PAVRaven_Bot@@@std@@V?$_Vector_val@U?$_Simple_types@PAVRaven_Bot@@@std@@@2@$00@std@@QAEAAV?$allocator@PAVRaven_Bot@@@2@XZ ; std::_Compressed_pair<std::allocator<Raven_Bot *>,std::_Vector_val<std::_Simple_types<Raven_Bot *> >,1>::_Get_first
PUBLIC	?_Get_first@?$_Compressed_pair@V?$allocator@PAVRaven_Bot@@@std@@V?$_Vector_val@U?$_Simple_types@PAVRaven_Bot@@@std@@@2@$00@std@@QBEABV?$allocator@PAVRaven_Bot@@@2@XZ ; std::_Compressed_pair<std::allocator<Raven_Bot *>,std::_Vector_val<std::_Simple_types<Raven_Bot *> >,1>::_Get_first
PUBLIC	?_Get_second@?$_Compressed_pair@V?$allocator@PAVRaven_Bot@@@std@@V?$_Vector_val@U?$_Simple_types@PAVRaven_Bot@@@std@@@2@$00@std@@QAEAAV?$_Vector_val@U?$_Simple_types@PAVRaven_Bot@@@std@@@2@XZ ; std::_Compressed_pair<std::allocator<Raven_Bot *>,std::_Vector_val<std::_Simple_types<Raven_Bot *> >,1>::_Get_second
PUBLIC	?_Get_second@?$_Compressed_pair@V?$allocator@PAVRaven_Bot@@@std@@V?$_Vector_val@U?$_Simple_types@PAVRaven_Bot@@@std@@@2@$00@std@@QBEABV?$_Vector_val@U?$_Simple_types@PAVRaven_Bot@@@std@@@2@XZ ; std::_Compressed_pair<std::allocator<Raven_Bot *>,std::_Vector_val<std::_Simple_types<Raven_Bot *> >,1>::_Get_second
PUBLIC	??0?$vector@PAVRaven_Bot@@V?$allocator@PAVRaven_Bot@@@std@@@std@@QAE@XZ ; std::vector<Raven_Bot *,std::allocator<Raven_Bot *> >::vector<Raven_Bot *,std::allocator<Raven_Bot *> >
PUBLIC	??1?$vector@PAVRaven_Bot@@V?$allocator@PAVRaven_Bot@@@std@@@std@@QAE@XZ ; std::vector<Raven_Bot *,std::allocator<Raven_Bot *> >::~vector<Raven_Bot *,std::allocator<Raven_Bot *> >
PUBLIC	?push_back@?$vector@PAVRaven_Bot@@V?$allocator@PAVRaven_Bot@@@std@@@std@@QAEXABQAVRaven_Bot@@@Z ; std::vector<Raven_Bot *,std::allocator<Raven_Bot *> >::push_back
PUBLIC	?size@?$vector@PAVRaven_Bot@@V?$allocator@PAVRaven_Bot@@@std@@@std@@QBEIXZ ; std::vector<Raven_Bot *,std::allocator<Raven_Bot *> >::size
PUBLIC	?max_size@?$vector@PAVRaven_Bot@@V?$allocator@PAVRaven_Bot@@@std@@@std@@QBEIXZ ; std::vector<Raven_Bot *,std::allocator<Raven_Bot *> >::max_size
PUBLIC	?capacity@?$vector@PAVRaven_Bot@@V?$allocator@PAVRaven_Bot@@@std@@@std@@QBEIXZ ; std::vector<Raven_Bot *,std::allocator<Raven_Bot *> >::capacity
PUBLIC	?_Has_unused_capacity@?$vector@PAVRaven_Bot@@V?$allocator@PAVRaven_Bot@@@std@@@std@@ABE_NXZ ; std::vector<Raven_Bot *,std::allocator<Raven_Bot *> >::_Has_unused_capacity
PUBLIC	?_Umove@?$vector@PAVRaven_Bot@@V?$allocator@PAVRaven_Bot@@@std@@@std@@AAEPAPAVRaven_Bot@@PAPAV3@00@Z ; std::vector<Raven_Bot *,std::allocator<Raven_Bot *> >::_Umove
PUBLIC	?_Umove_if_noexcept1@?$vector@PAVRaven_Bot@@V?$allocator@PAVRaven_Bot@@@std@@@std@@AAEXPAPAVRaven_Bot@@00U?$integral_constant@_N$00@2@@Z ; std::vector<Raven_Bot *,std::allocator<Raven_Bot *> >::_Umove_if_noexcept1
PUBLIC	?_Umove_if_noexcept@?$vector@PAVRaven_Bot@@V?$allocator@PAVRaven_Bot@@@std@@@std@@AAEXPAPAVRaven_Bot@@00@Z ; std::vector<Raven_Bot *,std::allocator<Raven_Bot *> >::_Umove_if_noexcept
PUBLIC	?_Destroy@?$vector@PAVRaven_Bot@@V?$allocator@PAVRaven_Bot@@@std@@@std@@AAEXPAPAVRaven_Bot@@0@Z ; std::vector<Raven_Bot *,std::allocator<Raven_Bot *> >::_Destroy
PUBLIC	?_Calculate_growth@?$vector@PAVRaven_Bot@@V?$allocator@PAVRaven_Bot@@@std@@@std@@ABEII@Z ; std::vector<Raven_Bot *,std::allocator<Raven_Bot *> >::_Calculate_growth
PUBLIC	?_Change_array@?$vector@PAVRaven_Bot@@V?$allocator@PAVRaven_Bot@@@std@@@std@@AAEXQAPAVRaven_Bot@@II@Z ; std::vector<Raven_Bot *,std::allocator<Raven_Bot *> >::_Change_array
PUBLIC	?_Tidy@?$vector@PAVRaven_Bot@@V?$allocator@PAVRaven_Bot@@@std@@@std@@AAEXXZ ; std::vector<Raven_Bot *,std::allocator<Raven_Bot *> >::_Tidy
PUBLIC	?_Xlength@?$vector@PAVRaven_Bot@@V?$allocator@PAVRaven_Bot@@@std@@@std@@CAXXZ ; std::vector<Raven_Bot *,std::allocator<Raven_Bot *> >::_Xlength
PUBLIC	?_Orphan_range@?$vector@PAVRaven_Bot@@V?$allocator@PAVRaven_Bot@@@std@@@std@@ABEXPAPAVRaven_Bot@@0@Z ; std::vector<Raven_Bot *,std::allocator<Raven_Bot *> >::_Orphan_range
PUBLIC	??0Raven_team@@QAE@UVector2D@@_N@Z		; Raven_team::Raven_team
PUBLIC	??1Raven_team@@QAE@XZ				; Raven_team::~Raven_team
PUBLIC	?addTeamMate@Raven_team@@QAEXPAVRaven_Bot@@@Z	; Raven_team::addTeamMate
PUBLIC	??$emplace_back@ABQAVRaven_Bot@@@?$vector@PAVRaven_Bot@@V?$allocator@PAVRaven_Bot@@@std@@@std@@QAE@ABQAVRaven_Bot@@@Z ; std::vector<Raven_Bot *,std::allocator<Raven_Bot *> >::emplace_back<Raven_Bot * const &>
PUBLIC	??$forward@ABQAVRaven_Bot@@@std@@YAABQAVRaven_Bot@@ABQAV1@@Z ; std::forward<Raven_Bot * const &>
PUBLIC	??$_Emplace_back_with_unused_capacity@ABQAVRaven_Bot@@@?$vector@PAVRaven_Bot@@V?$allocator@PAVRaven_Bot@@@std@@@std@@AAE@ABQAVRaven_Bot@@@Z ; std::vector<Raven_Bot *,std::allocator<Raven_Bot *> >::_Emplace_back_with_unused_capacity<Raven_Bot * const &>
PUBLIC	??$_Unfancy@PAVRaven_Bot@@@std@@YAPAPAVRaven_Bot@@PAPAV1@@Z ; std::_Unfancy<Raven_Bot *>
PUBLIC	??$construct@PAVRaven_Bot@@ABQAV1@@?$_Default_allocator_traits@V?$allocator@PAVRaven_Bot@@@std@@@std@@SAXAAV?$allocator@PAVRaven_Bot@@@1@QAPAVRaven_Bot@@ABQAV3@@Z ; std::_Default_allocator_traits<std::allocator<Raven_Bot *> >::construct<Raven_Bot *,Raven_Bot * const &>
PUBLIC	??$_Emplace_reallocate@ABQAVRaven_Bot@@@?$vector@PAVRaven_Bot@@V?$allocator@PAVRaven_Bot@@@std@@@std@@QAEPAPAVRaven_Bot@@QAPAV2@ABQAV2@@Z ; std::vector<Raven_Bot *,std::allocator<Raven_Bot *> >::_Emplace_reallocate<Raven_Bot * const &>
PUBLIC	??$_Min_value@I@std@@YAABIABI0@Z		; std::_Min_value<unsigned int>
PUBLIC	??$?0$$V@?$_Compressed_pair@V?$allocator@PAVRaven_Bot@@@std@@V?$_Vector_val@U?$_Simple_types@PAVRaven_Bot@@@std@@@2@$00@std@@QAE@U_Zero_then_variadic_args_t@1@@Z ; std::_Compressed_pair<std::allocator<Raven_Bot *>,std::_Vector_val<std::_Simple_types<Raven_Bot *> >,1>::_Compressed_pair<std::allocator<Raven_Bot *>,std::_Vector_val<std::_Simple_types<Raven_Bot *> >,1><>
PUBLIC	??$_Allocate@$07U_Default_allocate_traits@std@@$0A@@std@@YAPAXI@Z ; std::_Allocate<8,std::_Default_allocate_traits,0>
PUBLIC	??$_Deallocate@$07$0A@@std@@YAXPAXI@Z		; std::_Deallocate<8,0>
PUBLIC	?allocate@?$allocator@U_Container_proxy@std@@@std@@QAEPAU_Container_proxy@2@I@Z ; std::allocator<std::_Container_proxy>::allocate
PUBLIC	??$?0PAVRaven_Bot@@@?$allocator@U_Container_proxy@std@@@std@@QAE@ABV?$allocator@PAVRaven_Bot@@@1@@Z ; std::allocator<std::_Container_proxy>::allocator<std::_Container_proxy><Raven_Bot *>
PUBLIC	?deallocate@?$_Default_allocator_traits@V?$allocator@U_Container_proxy@std@@@std@@@std@@SAXAAV?$allocator@U_Container_proxy@std@@@2@QAU_Container_proxy@2@I@Z ; std::_Default_allocator_traits<std::allocator<std::_Container_proxy> >::deallocate
PUBLIC	??$destroy@U_Container_proxy@std@@@?$_Default_allocator_traits@V?$allocator@U_Container_proxy@std@@@std@@@std@@SAXAAV?$allocator@U_Container_proxy@std@@@1@QAU_Container_proxy@1@@Z ; std::_Default_allocator_traits<std::allocator<std::_Container_proxy> >::destroy<std::_Container_proxy>
PUBLIC	??$_Deallocate_plain@V?$allocator@U_Container_proxy@std@@@std@@$0A@@std@@YAXAAV?$allocator@U_Container_proxy@std@@@0@QAU_Container_proxy@0@@Z ; std::_Deallocate_plain<std::allocator<std::_Container_proxy>,0>
PUBLIC	??$_Unfancy@U_Container_proxy@std@@@std@@YAPAU_Container_proxy@0@PAU10@@Z ; std::_Unfancy<std::_Container_proxy>
PUBLIC	??$construct@U_Container_proxy@std@@U12@@?$_Default_allocator_traits@V?$allocator@U_Container_proxy@std@@@std@@@std@@SAXAAV?$allocator@U_Container_proxy@std@@@1@QAU_Container_proxy@1@$$QAU31@@Z ; std::_Default_allocator_traits<std::allocator<std::_Container_proxy> >::construct<std::_Container_proxy,std::_Container_proxy>
PUBLIC	??$addressof@V?$_Vector_val@U?$_Simple_types@PAVRaven_Bot@@@std@@@std@@@std@@YAPAV?$_Vector_val@U?$_Simple_types@PAVRaven_Bot@@@std@@@0@AAV10@@Z ; std::addressof<std::_Vector_val<std::_Simple_types<Raven_Bot *> > >
PUBLIC	??$_Destroy_range@V?$allocator@PAVRaven_Bot@@@std@@@std@@YAXPAPAVRaven_Bot@@0AAV?$allocator@PAVRaven_Bot@@@0@@Z ; std::_Destroy_range<std::allocator<Raven_Bot *> >
PUBLIC	??$_Get_size_of_n@$03@std@@YAII@Z		; std::_Get_size_of_n<4>
PUBLIC	??$_Get_size_of_n@$07@std@@YAII@Z		; std::_Get_size_of_n<8>
PUBLIC	??$_Allocate_manually_vector_aligned@U_Default_allocate_traits@std@@@std@@YAPAXI@Z ; std::_Allocate_manually_vector_aligned<std::_Default_allocate_traits>
PUBLIC	??$forward@U_Container_proxy@std@@@std@@YA$$QAU_Container_proxy@0@AAU10@@Z ; std::forward<std::_Container_proxy>
PUBLIC	??$_Destroy_range1@V?$allocator@PAVRaven_Bot@@@std@@@std@@YAXPAPAVRaven_Bot@@0AAV?$allocator@PAVRaven_Bot@@@0@U?$integral_constant@_N$00@0@@Z ; std::_Destroy_range1<std::allocator<Raven_Bot *> >
PUBLIC	??$_Uninitialized_move@PAPAVRaven_Bot@@PAPAV1@V?$allocator@PAVRaven_Bot@@@std@@@std@@YAPAPAVRaven_Bot@@QAPAV1@0PAPAV1@AAV?$allocator@PAVRaven_Bot@@@0@@Z ; std::_Uninitialized_move<Raven_Bot * *,Raven_Bot * *,std::allocator<Raven_Bot *> >
PUBLIC	??$_Get_unwrapped@PAVRaven_Bot@@@std@@YAPAPAVRaven_Bot@@QAPAV1@@Z ; std::_Get_unwrapped<Raven_Bot *>
PUBLIC	??$_Idl_distance@PAPAVRaven_Bot@@PAPAV1@@std@@YA@ABQAPAVRaven_Bot@@0@Z ; std::_Idl_distance<Raven_Bot * *,Raven_Bot * *>
PUBLIC	??$_Idl_distance1@PAPAVRaven_Bot@@PAPAV1@@std@@YAHABQAPAVRaven_Bot@@0Urandom_access_iterator_tag@0@@Z ; std::_Idl_distance1<Raven_Bot * *,Raven_Bot * *>
PUBLIC	??$_Get_unwrapped_n@PAVRaven_Bot@@H$0A@@std@@YAPAPAVRaven_Bot@@QAPAV1@H@Z ; std::_Get_unwrapped_n<Raven_Bot *,int,0>
PUBLIC	??$_Seek_wrapped@PAVRaven_Bot@@@std@@YAXAAPAPAVRaven_Bot@@QAPAV1@@Z ; std::_Seek_wrapped<Raven_Bot *>
PUBLIC	??$_Ptr_move_cat@PAVRaven_Bot@@PAV1@@std@@YA?AU_Really_trivial_ptr_iterator_tag@0@ABQAPAVRaven_Bot@@0@Z ; std::_Ptr_move_cat<Raven_Bot *,Raven_Bot *>
PUBLIC	??$_Uninitialized_move_al_unchecked@PAVRaven_Bot@@PAV1@V?$allocator@PAVRaven_Bot@@@std@@@std@@YAPAPAVRaven_Bot@@QAPAV1@00AAV?$allocator@PAVRaven_Bot@@@0@U_Really_trivial_ptr_iterator_tag@0@U?$integral_constant@_N$00@0@@Z ; std::_Uninitialized_move_al_unchecked<Raven_Bot *,Raven_Bot *,std::allocator<Raven_Bot *> >
PUBLIC	??$_Copy_memmove@PAPAVRaven_Bot@@PAPAV1@@std@@YAPAPAVRaven_Bot@@PAPAV1@00@Z ; std::_Copy_memmove<Raven_Bot * *,Raven_Bot * *>
PUBLIC	??_C@_0BB@FCMFBGOM@invalid?5argument@		; `string'
PUBLIC	??_C@_02DKCKIIND@?$CFs@				; `string'
PUBLIC	??_C@_1CG@JNLFBNGN@?$AA?$CC?$AAi?$AAn?$AAv?$AAa?$AAl?$AAi?$AAd?$AA?5?$AAa?$AAr?$AAg?$AAu?$AAm?$AAe@ ; `string'
PUBLIC	??_C@_0GK@FKLKIKPD@c?3?2program?5files?5?$CIx86?$CJ?2microsof@ ; `string'
PUBLIC	??_C@_1NE@MCNNPIKO@?$AAc?$AA?3?$AA?2?$AAp?$AAr?$AAo?$AAg?$AAr?$AAa?$AAm?$AA?5?$AAf?$AAi?$AAl?$AAe@ ; `string'
PUBLIC	??_C@_1EK@NIFDJFDG@?$AAs?$AAt?$AAd?$AA?3?$AA?3?$AA_?$AAA?$AAd?$AAj?$AAu?$AAs?$AAt?$AA_?$AAm?$AAa@ ; `string'
PUBLIC	??_C@_0BD@OLBABOEK@vector?$DMT?$DO?5too?5long@	; `string'
PUBLIC	??_C@_1EO@GFNCMDLA@?$AAs?$AAt?$AAd?$AA?3?$AA?3?$AA_?$AAA?$AAl?$AAl?$AAo?$AAc?$AAa?$AAt?$AAe?$AA_@ ; `string'
PUBLIC	__real@0010000000000000
PUBLIC	__real@00800000
PUBLIC	__real@7f7fffff
PUBLIC	__real@7fefffffffffffff
EXTRN	??2@YAPAXI@Z:PROC				; operator new
EXTRN	??3@YAXPAXI@Z:PROC				; operator delete
EXTRN	__invalid_parameter:PROC
EXTRN	__CrtDbgReport:PROC
EXTRN	??0_Lockit@std@@QAE@H@Z:PROC			; std::_Lockit::_Lockit
EXTRN	??1_Lockit@std@@QAE@XZ:PROC			; std::_Lockit::~_Lockit
EXTRN	_memmove:PROC
EXTRN	?_Xlength_error@std@@YAXPBD@Z:PROC		; std::_Xlength_error
EXTRN	@_RTC_CheckStackVars@8:PROC
EXTRN	@__security_check_cookie@4:PROC
EXTRN	__CxxThrowException@8:PROC
EXTRN	__RTC_CheckEsp:PROC
EXTRN	__RTC_InitBase:PROC
EXTRN	__RTC_Shutdown:PROC
EXTRN	___CxxFrameHandler3:PROC
EXTRN	___security_cookie:DWORD
EXTRN	__fltused:DWORD
_BSS	SEGMENT
?MaxInt@@3HB DD	01H DUP (?)				; MaxInt
	ALIGN	8

?MaxDouble@@3NB DQ 01H DUP (?)				; MaxDouble
?MinDouble@@3NB DQ 01H DUP (?)				; MinDouble
?MaxFloat@@3MB DD 01H DUP (?)				; MaxFloat
?MinFloat@@3MB DD 01H DUP (?)				; MinFloat
_BSS	ENDS
CRT$XCU	SEGMENT
?MaxInt$initializer$@@3P6AXXZA DD FLAT:??__EMaxInt@@YAXXZ ; MaxInt$initializer$
CRT$XCU	ENDS
;	COMDAT __real@7fefffffffffffff
CONST	SEGMENT
__real@7fefffffffffffff DQ 07fefffffffffffffr	; 1.79769e+308
CONST	ENDS
;	COMDAT __real@7f7fffff
CONST	SEGMENT
__real@7f7fffff DD 07f7fffffr			; 3.40282e+38
CONST	ENDS
;	COMDAT __real@00800000
CONST	SEGMENT
__real@00800000 DD 000800000r			; 1.17549e-38
CONST	ENDS
;	COMDAT __real@0010000000000000
CONST	SEGMENT
__real@0010000000000000 DQ 00010000000000000r	; 2.22507e-308
CONST	ENDS
;	COMDAT rtc$TMZ
rtc$TMZ	SEGMENT
__RTC_Shutdown.rtc$TMZ DD FLAT:__RTC_Shutdown
rtc$TMZ	ENDS
;	COMDAT rtc$IMZ
rtc$IMZ	SEGMENT
__RTC_InitBase.rtc$IMZ DD FLAT:__RTC_InitBase
rtc$IMZ	ENDS
;	COMDAT ??_C@_1EO@GFNCMDLA@?$AAs?$AAt?$AAd?$AA?3?$AA?3?$AA_?$AAA?$AAl?$AAl?$AAo?$AAc?$AAa?$AAt?$AAe?$AA_@
CONST	SEGMENT
??_C@_1EO@GFNCMDLA@?$AAs?$AAt?$AAd?$AA?3?$AA?3?$AA_?$AAA?$AAl?$AAl?$AAo?$AAc?$AAa?$AAt?$AAe?$AA_@ DB 's'
	DB	00H, 't', 00H, 'd', 00H, ':', 00H, ':', 00H, '_', 00H, 'A', 00H
	DB	'l', 00H, 'l', 00H, 'o', 00H, 'c', 00H, 'a', 00H, 't', 00H, 'e'
	DB	00H, '_', 00H, 'm', 00H, 'a', 00H, 'n', 00H, 'u', 00H, 'a', 00H
	DB	'l', 00H, 'l', 00H, 'y', 00H, '_', 00H, 'v', 00H, 'e', 00H, 'c'
	DB	00H, 't', 00H, 'o', 00H, 'r', 00H, '_', 00H, 'a', 00H, 'l', 00H
	DB	'i', 00H, 'g', 00H, 'n', 00H, 'e', 00H, 'd', 00H, 00H, 00H ; `string'
CONST	ENDS
;	COMDAT ??_C@_0BD@OLBABOEK@vector?$DMT?$DO?5too?5long@
CONST	SEGMENT
??_C@_0BD@OLBABOEK@vector?$DMT?$DO?5too?5long@ DB 'vector<T> too long', 00H ; `string'
CONST	ENDS
;	COMDAT ??_C@_1EK@NIFDJFDG@?$AAs?$AAt?$AAd?$AA?3?$AA?3?$AA_?$AAA?$AAd?$AAj?$AAu?$AAs?$AAt?$AA_?$AAm?$AAa@
CONST	SEGMENT
??_C@_1EK@NIFDJFDG@?$AAs?$AAt?$AAd?$AA?3?$AA?3?$AA_?$AAA?$AAd?$AAj?$AAu?$AAs?$AAt?$AA_?$AAm?$AAa@ DB 's'
	DB	00H, 't', 00H, 'd', 00H, ':', 00H, ':', 00H, '_', 00H, 'A', 00H
	DB	'd', 00H, 'j', 00H, 'u', 00H, 's', 00H, 't', 00H, '_', 00H, 'm'
	DB	00H, 'a', 00H, 'n', 00H, 'u', 00H, 'a', 00H, 'l', 00H, 'l', 00H
	DB	'y', 00H, '_', 00H, 'v', 00H, 'e', 00H, 'c', 00H, 't', 00H, 'o'
	DB	00H, 'r', 00H, '_', 00H, 'a', 00H, 'l', 00H, 'i', 00H, 'g', 00H
	DB	'n', 00H, 'e', 00H, 'd', 00H, 00H, 00H	; `string'
CONST	ENDS
;	COMDAT ??_C@_1NE@MCNNPIKO@?$AAc?$AA?3?$AA?2?$AAp?$AAr?$AAo?$AAg?$AAr?$AAa?$AAm?$AA?5?$AAf?$AAi?$AAl?$AAe@
CONST	SEGMENT
??_C@_1NE@MCNNPIKO@?$AAc?$AA?3?$AA?2?$AAp?$AAr?$AAo?$AAg?$AAr?$AAa?$AAm?$AA?5?$AAf?$AAi?$AAl?$AAe@ DB 'c'
	DB	00H, ':', 00H, '\', 00H, 'p', 00H, 'r', 00H, 'o', 00H, 'g', 00H
	DB	'r', 00H, 'a', 00H, 'm', 00H, ' ', 00H, 'f', 00H, 'i', 00H, 'l'
	DB	00H, 'e', 00H, 's', 00H, ' ', 00H, '(', 00H, 'x', 00H, '8', 00H
	DB	'6', 00H, ')', 00H, '\', 00H, 'm', 00H, 'i', 00H, 'c', 00H, 'r'
	DB	00H, 'o', 00H, 's', 00H, 'o', 00H, 'f', 00H, 't', 00H, ' ', 00H
	DB	'v', 00H, 'i', 00H, 's', 00H, 'u', 00H, 'a', 00H, 'l', 00H, ' '
	DB	00H, 's', 00H, 't', 00H, 'u', 00H, 'd', 00H, 'i', 00H, 'o', 00H
	DB	'\', 00H, '2', 00H, '0', 00H, '1', 00H, '7', 00H, '\', 00H, 'e'
	DB	00H, 'n', 00H, 't', 00H, 'e', 00H, 'r', 00H, 'p', 00H, 'r', 00H
	DB	'i', 00H, 's', 00H, 'e', 00H, '\', 00H, 'v', 00H, 'c', 00H, '\'
	DB	00H, 't', 00H, 'o', 00H, 'o', 00H, 'l', 00H, 's', 00H, '\', 00H
	DB	'm', 00H, 's', 00H, 'v', 00H, 'c', 00H, '\', 00H, '1', 00H, '4'
	DB	00H, '.', 00H, '1', 00H, '5', 00H, '.', 00H, '2', 00H, '6', 00H
	DB	'7', 00H, '2', 00H, '6', 00H, '\', 00H, 'i', 00H, 'n', 00H, 'c'
	DB	00H, 'l', 00H, 'u', 00H, 'd', 00H, 'e', 00H, '\', 00H, 'x', 00H
	DB	'm', 00H, 'e', 00H, 'm', 00H, 'o', 00H, 'r', 00H, 'y', 00H, '0'
	DB	00H, 00H, 00H				; `string'
CONST	ENDS
;	COMDAT ??_C@_0GK@FKLKIKPD@c?3?2program?5files?5?$CIx86?$CJ?2microsof@
CONST	SEGMENT
??_C@_0GK@FKLKIKPD@c?3?2program?5files?5?$CIx86?$CJ?2microsof@ DB 'c:\pro'
	DB	'gram files (x86)\microsoft visual studio\2017\enterprise\vc\t'
	DB	'ools\msvc\14.15.26726\include\xmemory0', 00H ; `string'
CONST	ENDS
;	COMDAT ??_C@_1CG@JNLFBNGN@?$AA?$CC?$AAi?$AAn?$AAv?$AAa?$AAl?$AAi?$AAd?$AA?5?$AAa?$AAr?$AAg?$AAu?$AAm?$AAe@
CONST	SEGMENT
??_C@_1CG@JNLFBNGN@?$AA?$CC?$AAi?$AAn?$AAv?$AAa?$AAl?$AAi?$AAd?$AA?5?$AAa?$AAr?$AAg?$AAu?$AAm?$AAe@ DB '"'
	DB	00H, 'i', 00H, 'n', 00H, 'v', 00H, 'a', 00H, 'l', 00H, 'i', 00H
	DB	'd', 00H, ' ', 00H, 'a', 00H, 'r', 00H, 'g', 00H, 'u', 00H, 'm'
	DB	00H, 'e', 00H, 'n', 00H, 't', 00H, '"', 00H, 00H, 00H ; `string'
CONST	ENDS
;	COMDAT ??_C@_02DKCKIIND@?$CFs@
CONST	SEGMENT
??_C@_02DKCKIIND@?$CFs@ DB '%s', 00H			; `string'
CONST	ENDS
;	COMDAT ??_C@_0BB@FCMFBGOM@invalid?5argument@
CONST	SEGMENT
??_C@_0BB@FCMFBGOM@invalid?5argument@ DB 'invalid argument', 00H ; `string'
CONST	ENDS
;	COMDAT xdata$x
xdata$x	SEGMENT
__catchsym$??$_Emplace_reallocate@ABQAVRaven_Bot@@@?$vector@PAVRaven_Bot@@V?$allocator@PAVRaven_Bot@@@std@@@std@@QAEPAPAVRaven_Bot@@QAPAV2@ABQAV2@@Z$2 DD 040H
	DD	00H
	DD	00H
	DD	FLAT:__catch$??$_Emplace_reallocate@ABQAVRaven_Bot@@@?$vector@PAVRaven_Bot@@V?$allocator@PAVRaven_Bot@@@std@@@std@@QAEPAPAVRaven_Bot@@QAPAV2@ABQAV2@@Z$0
__unwindtable$??$_Emplace_reallocate@ABQAVRaven_Bot@@@?$vector@PAVRaven_Bot@@V?$allocator@PAVRaven_Bot@@@std@@@std@@QAEPAPAVRaven_Bot@@QAPAV2@ABQAV2@@Z DD 0ffffffffH
	DD	00H
	DD	0ffffffffH
	DD	00H
__tryblocktable$??$_Emplace_reallocate@ABQAVRaven_Bot@@@?$vector@PAVRaven_Bot@@V?$allocator@PAVRaven_Bot@@@std@@@std@@QAEPAPAVRaven_Bot@@QAPAV2@ABQAV2@@Z DD 00H
	DD	00H
	DD	01H
	DD	01H
	DD	FLAT:__catchsym$??$_Emplace_reallocate@ABQAVRaven_Bot@@@?$vector@PAVRaven_Bot@@V?$allocator@PAVRaven_Bot@@@std@@@std@@QAEPAPAVRaven_Bot@@QAPAV2@ABQAV2@@Z$2
__ehfuncinfo$??$_Emplace_reallocate@ABQAVRaven_Bot@@@?$vector@PAVRaven_Bot@@V?$allocator@PAVRaven_Bot@@@std@@@std@@QAEPAPAVRaven_Bot@@QAPAV2@ABQAV2@@Z DD 019930522H
	DD	02H
	DD	FLAT:__unwindtable$??$_Emplace_reallocate@ABQAVRaven_Bot@@@?$vector@PAVRaven_Bot@@V?$allocator@PAVRaven_Bot@@@std@@@std@@QAEPAPAVRaven_Bot@@QAPAV2@ABQAV2@@Z
	DD	01H
	DD	FLAT:__tryblocktable$??$_Emplace_reallocate@ABQAVRaven_Bot@@@?$vector@PAVRaven_Bot@@V?$allocator@PAVRaven_Bot@@@std@@@std@@QAEPAPAVRaven_Bot@@QAPAV2@ABQAV2@@Z
	DD	2 DUP(00H)
	DD	00H
	DD	01H
xdata$x	ENDS
;	COMDAT xdata$x
xdata$x	SEGMENT
__unwindtable$?_Orphan_range@?$vector@PAVRaven_Bot@@V?$allocator@PAVRaven_Bot@@@std@@@std@@ABEXPAPAVRaven_Bot@@0@Z DD 0ffffffffH
	DD	FLAT:__unwindfunclet$?_Orphan_range@?$vector@PAVRaven_Bot@@V?$allocator@PAVRaven_Bot@@@std@@@std@@ABEXPAPAVRaven_Bot@@0@Z$0
__ehfuncinfo$?_Orphan_range@?$vector@PAVRaven_Bot@@V?$allocator@PAVRaven_Bot@@@std@@@std@@ABEXPAPAVRaven_Bot@@0@Z DD 019930522H
	DD	01H
	DD	FLAT:__unwindtable$?_Orphan_range@?$vector@PAVRaven_Bot@@V?$allocator@PAVRaven_Bot@@@std@@@std@@ABEXPAPAVRaven_Bot@@0@Z
	DD	2 DUP(00H)
	DD	2 DUP(00H)
	DD	00H
	DD	01H
xdata$x	ENDS
;	COMDAT xdata$x
xdata$x	SEGMENT
__ehfuncinfo$??1?$vector@PAVRaven_Bot@@V?$allocator@PAVRaven_Bot@@@std@@@std@@QAE@XZ DD 019930522H
	DD	00H
	DD	00H
	DD	2 DUP(00H)
	DD	2 DUP(00H)
	DD	00H
	DD	05H
xdata$x	ENDS
;	COMDAT xdata$x
xdata$x	SEGMENT
__ehfuncinfo$??0?$vector@PAVRaven_Bot@@V?$allocator@PAVRaven_Bot@@@std@@@std@@QAE@XZ DD 019930522H
	DD	00H
	DD	00H
	DD	2 DUP(00H)
	DD	2 DUP(00H)
	DD	00H
	DD	05H
xdata$x	ENDS
;	COMDAT xdata$x
xdata$x	SEGMENT
__ehfuncinfo$??1?$_Vector_alloc@U?$_Vec_base_types@PAVRaven_Bot@@V?$allocator@PAVRaven_Bot@@@std@@@std@@@std@@QAE@XZ DD 019930522H
	DD	00H
	DD	00H
	DD	2 DUP(00H)
	DD	2 DUP(00H)
	DD	00H
	DD	05H
xdata$x	ENDS
;	COMDAT xdata$x
xdata$x	SEGMENT
__ehfuncinfo$?_Orphan_all@_Container_base12@std@@QAEXXZ DD 019930522H
	DD	00H
	DD	00H
	DD	2 DUP(00H)
	DD	2 DUP(00H)
	DD	00H
	DD	05H
xdata$x	ENDS
CRT$XCU	SEGMENT
?MaxDouble$initializer$@@3P6AXXZA DD FLAT:??__EMaxDouble@@YAXXZ ; MaxDouble$initializer$
CRT$XCU	ENDS
CRT$XCU	SEGMENT
?MinDouble$initializer$@@3P6AXXZA DD FLAT:??__EMinDouble@@YAXXZ ; MinDouble$initializer$
CRT$XCU	ENDS
CRT$XCU	SEGMENT
?MaxFloat$initializer$@@3P6AXXZA DD FLAT:??__EMaxFloat@@YAXXZ ; MaxFloat$initializer$
CRT$XCU	ENDS
CRT$XCU	SEGMENT
?MinFloat$initializer$@@3P6AXXZA DD FLAT:??__EMinFloat@@YAXXZ ; MinFloat$initializer$
CRT$XCU	ENDS
; Function compile flags: /Odtp /RTCsu
; File c:\program files (x86)\microsoft visual studio\2017\enterprise\vc\tools\msvc\14.15.26726\include\xutility
;	COMDAT ??$_Copy_memmove@PAPAVRaven_Bot@@PAPAV1@@std@@YAPAPAVRaven_Bot@@PAPAV1@00@Z
_TEXT	SEGMENT
__Count$ = -16						; size = 4
__Dest_ch$ = -12					; size = 4
__Last_ch$ = -8						; size = 4
__First_ch$ = -4					; size = 4
__First$ = 8						; size = 4
__Last$ = 12						; size = 4
__Dest$ = 16						; size = 4
??$_Copy_memmove@PAPAVRaven_Bot@@PAPAV1@@std@@YAPAPAVRaven_Bot@@PAPAV1@00@Z PROC ; std::_Copy_memmove<Raven_Bot * *,Raven_Bot * *>, COMDAT

; 2398 : 	{	// implement copy-like function as memmove

	push	ebp
	mov	ebp, esp
	sub	esp, 16					; 00000010H
	mov	eax, -858993460				; ccccccccH
	mov	DWORD PTR [ebp-16], eax
	mov	DWORD PTR [ebp-12], eax
	mov	DWORD PTR [ebp-8], eax
	mov	DWORD PTR [ebp-4], eax

; 2399 : 	const char * const _First_ch = const_cast<const char *>(reinterpret_cast<const volatile char *>(_First));

	mov	eax, DWORD PTR __First$[ebp]
	mov	DWORD PTR __First_ch$[ebp], eax

; 2400 : 	const char * const _Last_ch = const_cast<const char *>(reinterpret_cast<const volatile char *>(_Last));

	mov	ecx, DWORD PTR __Last$[ebp]
	mov	DWORD PTR __Last_ch$[ebp], ecx

; 2401 : 	char * const _Dest_ch = const_cast<char *>(reinterpret_cast<volatile char *>(_Dest));

	mov	edx, DWORD PTR __Dest$[ebp]
	mov	DWORD PTR __Dest_ch$[ebp], edx

; 2402 : 	const auto _Count = static_cast<size_t>(_Last_ch - _First_ch);

	mov	eax, DWORD PTR __Last_ch$[ebp]
	sub	eax, DWORD PTR __First_ch$[ebp]
	mov	DWORD PTR __Count$[ebp], eax

; 2403 : 	_CSTD memmove(_Dest_ch, _First_ch, _Count);

	mov	ecx, DWORD PTR __Count$[ebp]
	push	ecx
	mov	edx, DWORD PTR __First_ch$[ebp]
	push	edx
	mov	eax, DWORD PTR __Dest_ch$[ebp]
	push	eax
	call	_memmove
	add	esp, 12					; 0000000cH

; 2404 : 	return (reinterpret_cast<_OutIt>(_Dest_ch + _Count));

	mov	eax, DWORD PTR __Dest_ch$[ebp]
	add	eax, DWORD PTR __Count$[ebp]

; 2405 : 	}

	add	esp, 16					; 00000010H
	cmp	ebp, esp
	call	__RTC_CheckEsp
	mov	esp, ebp
	pop	ebp
	ret	0
??$_Copy_memmove@PAPAVRaven_Bot@@PAPAV1@@std@@YAPAPAVRaven_Bot@@PAPAV1@00@Z ENDP ; std::_Copy_memmove<Raven_Bot * *,Raven_Bot * *>
_TEXT	ENDS
; Function compile flags: /Odtp /RTCsu
; File c:\program files (x86)\microsoft visual studio\2017\enterprise\vc\tools\msvc\14.15.26726\include\xmemory
;	COMDAT ??$_Uninitialized_move_al_unchecked@PAVRaven_Bot@@PAV1@V?$allocator@PAVRaven_Bot@@@std@@@std@@YAPAPAVRaven_Bot@@QAPAV1@00AAV?$allocator@PAVRaven_Bot@@@0@U_Really_trivial_ptr_iterator_tag@0@U?$integral_constant@_N$00@0@@Z
_TEXT	SEGMENT
__First$ = 8						; size = 4
__Last$ = 12						; size = 4
__Dest$ = 16						; size = 4
___formal$ = 20						; size = 4
___formal$ = 24						; size = 1
___formal$ = 28						; size = 1
??$_Uninitialized_move_al_unchecked@PAVRaven_Bot@@PAV1@V?$allocator@PAVRaven_Bot@@@std@@@std@@YAPAPAVRaven_Bot@@QAPAV1@00AAV?$allocator@PAVRaven_Bot@@@0@U_Really_trivial_ptr_iterator_tag@0@U?$integral_constant@_N$00@0@@Z PROC ; std::_Uninitialized_move_al_unchecked<Raven_Bot *,Raven_Bot *,std::allocator<Raven_Bot *> >, COMDAT

; 243  : 	{	// move [_First, _Last) to raw _Dest, using default _Alloc construct, memmove optimization

	push	ebp
	mov	ebp, esp

; 244  : 	return (_Copy_memmove(_First, _Last, _Dest));

	mov	eax, DWORD PTR __Dest$[ebp]
	push	eax
	mov	ecx, DWORD PTR __Last$[ebp]
	push	ecx
	mov	edx, DWORD PTR __First$[ebp]
	push	edx
	call	??$_Copy_memmove@PAPAVRaven_Bot@@PAPAV1@@std@@YAPAPAVRaven_Bot@@PAPAV1@00@Z ; std::_Copy_memmove<Raven_Bot * *,Raven_Bot * *>
	add	esp, 12					; 0000000cH

; 245  : 	}

	cmp	ebp, esp
	call	__RTC_CheckEsp
	pop	ebp
	ret	0
??$_Uninitialized_move_al_unchecked@PAVRaven_Bot@@PAV1@V?$allocator@PAVRaven_Bot@@@std@@@std@@YAPAPAVRaven_Bot@@QAPAV1@00AAV?$allocator@PAVRaven_Bot@@@0@U_Really_trivial_ptr_iterator_tag@0@U?$integral_constant@_N$00@0@@Z ENDP ; std::_Uninitialized_move_al_unchecked<Raven_Bot *,Raven_Bot *,std::allocator<Raven_Bot *> >
_TEXT	ENDS
; Function compile flags: /Odtp /RTCsu
; File c:\program files (x86)\microsoft visual studio\2017\enterprise\vc\tools\msvc\14.15.26726\include\xutility
;	COMDAT ??$_Ptr_move_cat@PAVRaven_Bot@@PAV1@@std@@YA?AU_Really_trivial_ptr_iterator_tag@0@ABQAPAVRaven_Bot@@0@Z
_TEXT	SEGMENT
___$ReturnUdt$ = 8					; size = 4
___formal$ = 12						; size = 4
___formal$ = 16						; size = 4
??$_Ptr_move_cat@PAVRaven_Bot@@PAV1@@std@@YA?AU_Really_trivial_ptr_iterator_tag@0@ABQAPAVRaven_Bot@@0@Z PROC ; std::_Ptr_move_cat<Raven_Bot *,Raven_Bot *>, COMDAT

; 1086 : 	{	// return pointer move optimization category for pointers

	push	ebp
	mov	ebp, esp

; 1087 : 	return {};

	mov	eax, DWORD PTR ___$ReturnUdt$[ebp]

; 1088 : 	}

	pop	ebp
	ret	0
??$_Ptr_move_cat@PAVRaven_Bot@@PAV1@@std@@YA?AU_Really_trivial_ptr_iterator_tag@0@ABQAPAVRaven_Bot@@0@Z ENDP ; std::_Ptr_move_cat<Raven_Bot *,Raven_Bot *>
_TEXT	ENDS
; Function compile flags: /Odtp /RTCsu
; File c:\program files (x86)\microsoft visual studio\2017\enterprise\vc\tools\msvc\14.15.26726\include\xutility
;	COMDAT ??$_Seek_wrapped@PAVRaven_Bot@@@std@@YAXAAPAPAVRaven_Bot@@QAPAV1@@Z
_TEXT	SEGMENT
__It$ = 8						; size = 4
__UIt$ = 12						; size = 4
??$_Seek_wrapped@PAVRaven_Bot@@@std@@YAXAAPAPAVRaven_Bot@@QAPAV1@@Z PROC ; std::_Seek_wrapped<Raven_Bot *>, COMDAT

; 871  : 	{

	push	ebp
	mov	ebp, esp

; 872  : 	_It = _UIt;

	mov	eax, DWORD PTR __It$[ebp]
	mov	ecx, DWORD PTR __UIt$[ebp]
	mov	DWORD PTR [eax], ecx

; 873  : 	}

	pop	ebp
	ret	0
??$_Seek_wrapped@PAVRaven_Bot@@@std@@YAXAAPAPAVRaven_Bot@@QAPAV1@@Z ENDP ; std::_Seek_wrapped<Raven_Bot *>
_TEXT	ENDS
; Function compile flags: /Odtp /RTCsu
; File c:\program files (x86)\microsoft visual studio\2017\enterprise\vc\tools\msvc\14.15.26726\include\xutility
;	COMDAT ??$_Get_unwrapped_n@PAVRaven_Bot@@H$0A@@std@@YAPAPAVRaven_Bot@@QAPAV1@H@Z
_TEXT	SEGMENT
__Src$ = 8						; size = 4
___formal$ = 12						; size = 4
??$_Get_unwrapped_n@PAVRaven_Bot@@H$0A@@std@@YAPAPAVRaven_Bot@@QAPAV1@H@Z PROC ; std::_Get_unwrapped_n<Raven_Bot *,int,0>, COMDAT

; 808  : 	{

	push	ebp
	mov	ebp, esp

; 809  : 	return (_Src);

	mov	eax, DWORD PTR __Src$[ebp]

; 810  : 	}

	pop	ebp
	ret	0
??$_Get_unwrapped_n@PAVRaven_Bot@@H$0A@@std@@YAPAPAVRaven_Bot@@QAPAV1@H@Z ENDP ; std::_Get_unwrapped_n<Raven_Bot *,int,0>
_TEXT	ENDS
; Function compile flags: /Odtp /RTCsu
; File c:\program files (x86)\microsoft visual studio\2017\enterprise\vc\tools\msvc\14.15.26726\include\xutility
;	COMDAT ??$_Idl_distance1@PAPAVRaven_Bot@@PAPAV1@@std@@YAHABQAPAVRaven_Bot@@0Urandom_access_iterator_tag@0@@Z
_TEXT	SEGMENT
__First$ = 8						; size = 4
__Last$ = 12						; size = 4
___formal$ = 16						; size = 1
??$_Idl_distance1@PAPAVRaven_Bot@@PAPAV1@@std@@YAHABQAPAVRaven_Bot@@0Urandom_access_iterator_tag@0@@Z PROC ; std::_Idl_distance1<Raven_Bot * *,Raven_Bot * *>, COMDAT

; 967  : 	{	// _Idl_distance for random-access iterators

	push	ebp
	mov	ebp, esp

; 968  : 	return (static_cast<_Iter_diff_t<_Checked>>(_Last - _First));

	mov	eax, DWORD PTR __Last$[ebp]
	mov	ecx, DWORD PTR __First$[ebp]
	mov	eax, DWORD PTR [eax]
	sub	eax, DWORD PTR [ecx]
	sar	eax, 2

; 969  : 	}

	pop	ebp
	ret	0
??$_Idl_distance1@PAPAVRaven_Bot@@PAPAV1@@std@@YAHABQAPAVRaven_Bot@@0Urandom_access_iterator_tag@0@@Z ENDP ; std::_Idl_distance1<Raven_Bot * *,Raven_Bot * *>
_TEXT	ENDS
; Function compile flags: /Odtp /RTCsu
; File c:\program files (x86)\microsoft visual studio\2017\enterprise\vc\tools\msvc\14.15.26726\include\xutility
;	COMDAT ??$_Idl_distance@PAPAVRaven_Bot@@PAPAV1@@std@@YA@ABQAPAVRaven_Bot@@0@Z
_TEXT	SEGMENT
$T1 = -1						; size = 1
__First$ = 8						; size = 4
__Last$ = 12						; size = 4
??$_Idl_distance@PAPAVRaven_Bot@@PAPAV1@@std@@YA@ABQAPAVRaven_Bot@@0@Z PROC ; std::_Idl_distance<Raven_Bot * *,Raven_Bot * *>, COMDAT

; 974  : 	{	// tries to get the distance between _First and _Last if they are random-access iterators

	push	ebp
	mov	ebp, esp
	push	ecx
	mov	DWORD PTR [ebp-4], -858993460		; ccccccccH

; 975  : 	return (_Idl_distance1<_Checked>(_First, _Last, _Iter_cat_t<_Iter>()));

	movzx	eax, BYTE PTR $T1[ebp]
	push	eax
	mov	ecx, DWORD PTR __Last$[ebp]
	push	ecx
	mov	edx, DWORD PTR __First$[ebp]
	push	edx
	call	??$_Idl_distance1@PAPAVRaven_Bot@@PAPAV1@@std@@YAHABQAPAVRaven_Bot@@0Urandom_access_iterator_tag@0@@Z ; std::_Idl_distance1<Raven_Bot * *,Raven_Bot * *>
	add	esp, 12					; 0000000cH

; 976  : 	}

	add	esp, 4
	cmp	ebp, esp
	call	__RTC_CheckEsp
	mov	esp, ebp
	pop	ebp
	ret	0
??$_Idl_distance@PAPAVRaven_Bot@@PAPAV1@@std@@YA@ABQAPAVRaven_Bot@@0@Z ENDP ; std::_Idl_distance<Raven_Bot * *,Raven_Bot * *>
_TEXT	ENDS
; Function compile flags: /Odtp /RTCsu
; File c:\program files (x86)\microsoft visual studio\2017\enterprise\vc\tools\msvc\14.15.26726\include\xutility
;	COMDAT ??$_Get_unwrapped@PAVRaven_Bot@@@std@@YAPAPAVRaven_Bot@@QAPAV1@@Z
_TEXT	SEGMENT
__Ptr$ = 8						; size = 4
??$_Get_unwrapped@PAVRaven_Bot@@@std@@YAPAPAVRaven_Bot@@QAPAV1@@Z PROC ; std::_Get_unwrapped<Raven_Bot *>, COMDAT

; 662  : 	{	// special case already-unwrapped pointers

	push	ebp
	mov	ebp, esp

; 663  : 	return (_Ptr);

	mov	eax, DWORD PTR __Ptr$[ebp]

; 664  : 	}

	pop	ebp
	ret	0
??$_Get_unwrapped@PAVRaven_Bot@@@std@@YAPAPAVRaven_Bot@@QAPAV1@@Z ENDP ; std::_Get_unwrapped<Raven_Bot *>
_TEXT	ENDS
; Function compile flags: /Odtp /RTCsu
; File c:\program files (x86)\microsoft visual studio\2017\enterprise\vc\tools\msvc\14.15.26726\include\xmemory
;	COMDAT ??$_Uninitialized_move@PAPAVRaven_Bot@@PAPAV1@V?$allocator@PAVRaven_Bot@@@std@@@std@@YAPAPAVRaven_Bot@@QAPAV1@0PAPAV1@AAV?$allocator@PAVRaven_Bot@@@0@@Z
_TEXT	SEGMENT
$T1 = -38						; size = 1
$T2 = -37						; size = 1
__UDest$ = -32						; size = 4
__ULast$ = -20						; size = 4
__UFirst$ = -8						; size = 4
__First$ = 8						; size = 4
__Last$ = 12						; size = 4
__Dest$ = 16						; size = 4
__Al$ = 20						; size = 4
??$_Uninitialized_move@PAPAVRaven_Bot@@PAPAV1@V?$allocator@PAVRaven_Bot@@@std@@@std@@YAPAPAVRaven_Bot@@QAPAV1@0PAPAV1@AAV?$allocator@PAVRaven_Bot@@@0@@Z PROC ; std::_Uninitialized_move<Raven_Bot * *,Raven_Bot * *,std::allocator<Raven_Bot *> >, COMDAT

; 251  : 	{	// move [_First, _Last) to raw _Dest, using _Al

	push	ebp
	mov	ebp, esp
	sub	esp, 40					; 00000028H
	push	edi
	lea	edi, DWORD PTR [ebp-40]
	mov	ecx, 10					; 0000000aH
	mov	eax, -858993460				; ccccccccH
	rep stosd

; 252  : 		// note: only called internally from elsewhere in the STL
; 253  : 	const auto _UFirst = _Get_unwrapped(_First);

	mov	eax, DWORD PTR __First$[ebp]
	push	eax
	call	??$_Get_unwrapped@PAVRaven_Bot@@@std@@YAPAPAVRaven_Bot@@QAPAV1@@Z ; std::_Get_unwrapped<Raven_Bot *>
	add	esp, 4
	mov	DWORD PTR __UFirst$[ebp], eax

; 254  : 	const auto _ULast = _Get_unwrapped(_Last);

	mov	ecx, DWORD PTR __Last$[ebp]
	push	ecx
	call	??$_Get_unwrapped@PAVRaven_Bot@@@std@@YAPAPAVRaven_Bot@@QAPAV1@@Z ; std::_Get_unwrapped<Raven_Bot *>
	add	esp, 4
	mov	DWORD PTR __ULast$[ebp], eax

; 255  : 	const auto _UDest = _Get_unwrapped_n(_Dest, _Idl_distance<_InIt>(_UFirst, _ULast));

	lea	edx, DWORD PTR __ULast$[ebp]
	push	edx
	lea	eax, DWORD PTR __UFirst$[ebp]
	push	eax
	call	??$_Idl_distance@PAPAVRaven_Bot@@PAPAV1@@std@@YA@ABQAPAVRaven_Bot@@0@Z ; std::_Idl_distance<Raven_Bot * *,Raven_Bot * *>
	add	esp, 8
	push	eax
	mov	ecx, DWORD PTR __Dest$[ebp]
	push	ecx
	call	??$_Get_unwrapped_n@PAVRaven_Bot@@H$0A@@std@@YAPAPAVRaven_Bot@@QAPAV1@H@Z ; std::_Get_unwrapped_n<Raven_Bot *,int,0>
	add	esp, 8
	mov	DWORD PTR __UDest$[ebp], eax

; 256  : 	_Seek_wrapped(_Dest,

	movzx	edx, BYTE PTR $T2[ebp]
	push	edx
	lea	eax, DWORD PTR __UDest$[ebp]
	push	eax
	lea	ecx, DWORD PTR __UFirst$[ebp]
	push	ecx
	lea	edx, DWORD PTR $T1[ebp]
	push	edx
	call	??$_Ptr_move_cat@PAVRaven_Bot@@PAV1@@std@@YA?AU_Really_trivial_ptr_iterator_tag@0@ABQAPAVRaven_Bot@@0@Z ; std::_Ptr_move_cat<Raven_Bot *,Raven_Bot *>
	add	esp, 12					; 0000000cH
	mov	al, BYTE PTR [eax]
	movzx	ecx, al
	push	ecx
	mov	edx, DWORD PTR __Al$[ebp]
	push	edx
	mov	eax, DWORD PTR __UDest$[ebp]
	push	eax
	mov	ecx, DWORD PTR __ULast$[ebp]
	push	ecx
	mov	edx, DWORD PTR __UFirst$[ebp]
	push	edx
	call	??$_Uninitialized_move_al_unchecked@PAVRaven_Bot@@PAV1@V?$allocator@PAVRaven_Bot@@@std@@@std@@YAPAPAVRaven_Bot@@QAPAV1@00AAV?$allocator@PAVRaven_Bot@@@0@U_Really_trivial_ptr_iterator_tag@0@U?$integral_constant@_N$00@0@@Z ; std::_Uninitialized_move_al_unchecked<Raven_Bot *,Raven_Bot *,std::allocator<Raven_Bot *> >
	add	esp, 24					; 00000018H
	push	eax
	lea	eax, DWORD PTR __Dest$[ebp]
	push	eax
	call	??$_Seek_wrapped@PAVRaven_Bot@@@std@@YAXAAPAPAVRaven_Bot@@QAPAV1@@Z ; std::_Seek_wrapped<Raven_Bot *>
	add	esp, 8

; 257  : 		_Uninitialized_move_al_unchecked(_UFirst, _ULast, _UDest, _Al,
; 258  : 			_Ptr_move_cat(_UFirst, _UDest),
; 259  : 			_Uses_default_construct_t<_Alloc, decltype(_Unfancy(_UDest)), decltype(_STD move(*_UFirst))>()));
; 260  : 	return (_Dest);

	mov	eax, DWORD PTR __Dest$[ebp]

; 261  : 	}

	push	edx
	mov	ecx, ebp
	push	eax
	lea	edx, DWORD PTR $LN7@Uninitiali
	call	@_RTC_CheckStackVars@8
	pop	eax
	pop	edx
	pop	edi
	add	esp, 40					; 00000028H
	cmp	ebp, esp
	call	__RTC_CheckEsp
	mov	esp, ebp
	pop	ebp
	ret	0
	npad	1
$LN7@Uninitiali:
	DD	3
	DD	$LN6@Uninitiali
$LN6@Uninitiali:
	DD	-8					; fffffff8H
	DD	4
	DD	$LN3@Uninitiali
	DD	-20					; ffffffecH
	DD	4
	DD	$LN4@Uninitiali
	DD	-32					; ffffffe0H
	DD	4
	DD	$LN5@Uninitiali
$LN5@Uninitiali:
	DB	95					; 0000005fH
	DB	85					; 00000055H
	DB	68					; 00000044H
	DB	101					; 00000065H
	DB	115					; 00000073H
	DB	116					; 00000074H
	DB	0
$LN4@Uninitiali:
	DB	95					; 0000005fH
	DB	85					; 00000055H
	DB	76					; 0000004cH
	DB	97					; 00000061H
	DB	115					; 00000073H
	DB	116					; 00000074H
	DB	0
$LN3@Uninitiali:
	DB	95					; 0000005fH
	DB	85					; 00000055H
	DB	70					; 00000046H
	DB	105					; 00000069H
	DB	114					; 00000072H
	DB	115					; 00000073H
	DB	116					; 00000074H
	DB	0
??$_Uninitialized_move@PAPAVRaven_Bot@@PAPAV1@V?$allocator@PAVRaven_Bot@@@std@@@std@@YAPAPAVRaven_Bot@@QAPAV1@0PAPAV1@AAV?$allocator@PAVRaven_Bot@@@0@@Z ENDP ; std::_Uninitialized_move<Raven_Bot * *,Raven_Bot * *,std::allocator<Raven_Bot *> >
_TEXT	ENDS
; Function compile flags: /Odtp /RTCsu
; File c:\program files (x86)\microsoft visual studio\2017\enterprise\vc\tools\msvc\14.15.26726\include\xmemory0
;	COMDAT ??$_Destroy_range1@V?$allocator@PAVRaven_Bot@@@std@@@std@@YAXPAPAVRaven_Bot@@0AAV?$allocator@PAVRaven_Bot@@@0@U?$integral_constant@_N$00@0@@Z
_TEXT	SEGMENT
___formal$ = 8						; size = 4
___formal$ = 12						; size = 4
___formal$ = 16						; size = 4
___formal$ = 20						; size = 1
??$_Destroy_range1@V?$allocator@PAVRaven_Bot@@@std@@@std@@YAXPAPAVRaven_Bot@@0AAV?$allocator@PAVRaven_Bot@@@0@U?$integral_constant@_N$00@0@@Z PROC ; std::_Destroy_range1<std::allocator<Raven_Bot *> >, COMDAT

; 1145 : 	{	// destroy [_First, _Last), trivially destructible and default destroy

	push	ebp
	mov	ebp, esp

; 1146 : 		// nothing to do
; 1147 : 	}

	pop	ebp
	ret	0
??$_Destroy_range1@V?$allocator@PAVRaven_Bot@@@std@@@std@@YAXPAPAVRaven_Bot@@0AAV?$allocator@PAVRaven_Bot@@@0@U?$integral_constant@_N$00@0@@Z ENDP ; std::_Destroy_range1<std::allocator<Raven_Bot *> >
_TEXT	ENDS
; Function compile flags: /Odtp /RTCsu
; File c:\program files (x86)\microsoft visual studio\2017\enterprise\vc\tools\msvc\14.15.26726\include\type_traits
;	COMDAT ??$forward@U_Container_proxy@std@@@std@@YA$$QAU_Container_proxy@0@AAU10@@Z
_TEXT	SEGMENT
__Arg$ = 8						; size = 4
??$forward@U_Container_proxy@std@@@std@@YA$$QAU_Container_proxy@0@AAU10@@Z PROC ; std::forward<std::_Container_proxy>, COMDAT

; 1573 : 	{	// forward an lvalue as either an lvalue or an rvalue

	push	ebp
	mov	ebp, esp

; 1574 : 	return (static_cast<_Ty&&>(_Arg));

	mov	eax, DWORD PTR __Arg$[ebp]

; 1575 : 	}

	pop	ebp
	ret	0
??$forward@U_Container_proxy@std@@@std@@YA$$QAU_Container_proxy@0@AAU10@@Z ENDP ; std::forward<std::_Container_proxy>
_TEXT	ENDS
; Function compile flags: /Odtp /RTCsu
; File c:\program files (x86)\microsoft visual studio\2017\enterprise\vc\tools\msvc\14.15.26726\include\xmemory0
;	COMDAT ??$_Allocate_manually_vector_aligned@U_Default_allocate_traits@std@@@std@@YAPAXI@Z
_TEXT	SEGMENT
__Ptr$ = -12						; size = 4
__Ptr_container$ = -8					; size = 4
__Block_size$ = -4					; size = 4
__Bytes$ = 8						; size = 4
??$_Allocate_manually_vector_aligned@U_Default_allocate_traits@std@@@std@@YAPAXI@Z PROC ; std::_Allocate_manually_vector_aligned<std::_Default_allocate_traits>, COMDAT

; 92   : 	{	// allocate _Bytes manually aligned to at least _Big_allocation_alignment

	push	ebp
	mov	ebp, esp
	sub	esp, 12					; 0000000cH
	mov	DWORD PTR [ebp-12], -858993460		; ccccccccH
	mov	DWORD PTR [ebp-8], -858993460		; ccccccccH
	mov	DWORD PTR [ebp-4], -858993460		; ccccccccH

; 93   : 	size_t _Block_size = _Non_user_size + _Bytes;

	mov	eax, DWORD PTR __Bytes$[ebp]
	add	eax, 39					; 00000027H
	mov	DWORD PTR __Block_size$[ebp], eax

; 94   : 	if (_Block_size <= _Bytes)

	mov	ecx, DWORD PTR __Block_size$[ebp]
	cmp	ecx, DWORD PTR __Bytes$[ebp]
	ja	SHORT $LN8@Allocate_m

; 95   : 		{	// add overflow, try allocating all of memory and assume the
; 96   : 			// allocation function will throw bad_alloc
; 97   : 		_Block_size = static_cast<size_t>(-1);

	mov	DWORD PTR __Block_size$[ebp], -1
$LN8@Allocate_m:

; 98   : 		}
; 99   : 
; 100  : 	const uintptr_t _Ptr_container = reinterpret_cast<uintptr_t>(_Traits::_Allocate(_Block_size));

	mov	edx, DWORD PTR __Block_size$[ebp]
	push	edx
	call	?_Allocate@_Default_allocate_traits@std@@SAPAXI@Z ; std::_Default_allocate_traits::_Allocate
	add	esp, 4
	mov	DWORD PTR __Ptr_container$[ebp], eax
$LN4@Allocate_m:

; 101  : 	_STL_VERIFY(_Ptr_container != 0, "invalid argument");	// validate even in release since we're doing p[-1]

	cmp	DWORD PTR __Ptr_container$[ebp], 0
	je	SHORT $LN7@Allocate_m
	jmp	SHORT $LN2@Allocate_m
$LN7@Allocate_m:
	push	OFFSET ??_C@_0BB@FCMFBGOM@invalid?5argument@
	push	OFFSET ??_C@_02DKCKIIND@?$CFs@
	push	0
	push	101					; 00000065H
	push	OFFSET ??_C@_0GK@FKLKIKPD@c?3?2program?5files?5?$CIx86?$CJ?2microsof@
	push	2
	call	__CrtDbgReport
	add	esp, 24					; 00000018H
	cmp	eax, 1
	jne	SHORT $LN12@Allocate_m
	int	3
$LN12@Allocate_m:
	push	0
	push	101					; 00000065H
	push	OFFSET ??_C@_1NE@MCNNPIKO@?$AAc?$AA?3?$AA?2?$AAp?$AAr?$AAo?$AAg?$AAr?$AAa?$AAm?$AA?5?$AAf?$AAi?$AAl?$AAe@
	push	OFFSET ??_C@_1EO@GFNCMDLA@?$AAs?$AAt?$AAd?$AA?3?$AA?3?$AA_?$AAA?$AAl?$AAl?$AAo?$AAc?$AAa?$AAt?$AAe?$AA_@
	push	OFFSET ??_C@_1CG@JNLFBNGN@?$AA?$CC?$AAi?$AAn?$AAv?$AAa?$AAl?$AAi?$AAd?$AA?5?$AAa?$AAr?$AAg?$AAu?$AAm?$AAe@
	call	__invalid_parameter
	add	esp, 20					; 00000014H
	xor	ecx, ecx
	jne	SHORT $LN7@Allocate_m
$LN2@Allocate_m:
	xor	edx, edx
	jne	SHORT $LN4@Allocate_m

; 102  : 	void * const _Ptr = reinterpret_cast<void *>((_Ptr_container + _Non_user_size)
; 103  : 		& ~(_Big_allocation_alignment - 1));

	mov	eax, DWORD PTR __Ptr_container$[ebp]
	add	eax, 39					; 00000027H
	and	eax, -32				; ffffffe0H
	mov	DWORD PTR __Ptr$[ebp], eax

; 104  : 	static_cast<uintptr_t *>(_Ptr)[-1] = _Ptr_container;

	mov	ecx, 4
	imul	edx, ecx, -1
	mov	eax, DWORD PTR __Ptr$[ebp]
	mov	ecx, DWORD PTR __Ptr_container$[ebp]
	mov	DWORD PTR [eax+edx], ecx

; 105  : 
; 106  :   #ifdef _DEBUG
; 107  : 	static_cast<uintptr_t *>(_Ptr)[-2] = _Big_allocation_sentinel;

	mov	edx, 4
	imul	eax, edx, -2
	mov	ecx, DWORD PTR __Ptr$[ebp]
	mov	DWORD PTR [ecx+eax], -84215046		; fafafafaH

; 108  :   #endif /* _DEBUG */
; 109  : 	return (_Ptr);

	mov	eax, DWORD PTR __Ptr$[ebp]

; 110  : 	}

	add	esp, 12					; 0000000cH
	cmp	ebp, esp
	call	__RTC_CheckEsp
	mov	esp, ebp
	pop	ebp
	ret	0
??$_Allocate_manually_vector_aligned@U_Default_allocate_traits@std@@@std@@YAPAXI@Z ENDP ; std::_Allocate_manually_vector_aligned<std::_Default_allocate_traits>
_TEXT	ENDS
; Function compile flags: /Odtp /RTCsu
; File c:\program files (x86)\microsoft visual studio\2017\enterprise\vc\tools\msvc\14.15.26726\include\xmemory0
;	COMDAT ??$_Get_size_of_n@$07@std@@YAII@Z
_TEXT	SEGMENT
__Result$ = -8						; size = 4
__Max_possible$ = -4					; size = 4
__Count$ = 8						; size = 4
??$_Get_size_of_n@$07@std@@YAII@Z PROC			; std::_Get_size_of_n<8>, COMDAT

; 23   : 	{	// gets the size of _Count copies of a type sized _Ty_size

	push	ebp
	mov	ebp, esp
	sub	esp, 8
	mov	DWORD PTR [ebp-8], -858993460		; ccccccccH
	mov	DWORD PTR [ebp-4], -858993460		; ccccccccH

; 24   : 	constexpr size_t _Max_possible = static_cast<size_t>(-1) / _Ty_size;

	mov	DWORD PTR __Max_possible$[ebp], 536870911 ; 1fffffffH

; 25   : 	size_t _Result = _Count * _Ty_size;

	mov	eax, DWORD PTR __Count$[ebp]
	shl	eax, 3
	mov	DWORD PTR __Result$[ebp], eax

; 26   : 	if (_Max_possible < _Count)

	cmp	DWORD PTR __Count$[ebp], 536870911	; 1fffffffH
	jbe	SHORT $LN2@Get_size_o

; 27   : 		{	// multiply overflow, try allocating all of memory and assume the
; 28   : 			// allocation function will throw bad_alloc
; 29   : 		_Result = static_cast<size_t>(-1);

	mov	DWORD PTR __Result$[ebp], -1
$LN2@Get_size_o:

; 30   : 		}
; 31   : 
; 32   : 	return (_Result);

	mov	eax, DWORD PTR __Result$[ebp]

; 33   : 	}

	mov	esp, ebp
	pop	ebp
	ret	0
??$_Get_size_of_n@$07@std@@YAII@Z ENDP			; std::_Get_size_of_n<8>
_TEXT	ENDS
; Function compile flags: /Odtp /RTCsu
; File c:\program files (x86)\microsoft visual studio\2017\enterprise\vc\tools\msvc\14.15.26726\include\xmemory0
;	COMDAT ??$_Get_size_of_n@$03@std@@YAII@Z
_TEXT	SEGMENT
__Result$ = -8						; size = 4
__Max_possible$ = -4					; size = 4
__Count$ = 8						; size = 4
??$_Get_size_of_n@$03@std@@YAII@Z PROC			; std::_Get_size_of_n<4>, COMDAT

; 23   : 	{	// gets the size of _Count copies of a type sized _Ty_size

	push	ebp
	mov	ebp, esp
	sub	esp, 8
	mov	DWORD PTR [ebp-8], -858993460		; ccccccccH
	mov	DWORD PTR [ebp-4], -858993460		; ccccccccH

; 24   : 	constexpr size_t _Max_possible = static_cast<size_t>(-1) / _Ty_size;

	mov	DWORD PTR __Max_possible$[ebp], 1073741823 ; 3fffffffH

; 25   : 	size_t _Result = _Count * _Ty_size;

	mov	eax, DWORD PTR __Count$[ebp]
	shl	eax, 2
	mov	DWORD PTR __Result$[ebp], eax

; 26   : 	if (_Max_possible < _Count)

	cmp	DWORD PTR __Count$[ebp], 1073741823	; 3fffffffH
	jbe	SHORT $LN2@Get_size_o

; 27   : 		{	// multiply overflow, try allocating all of memory and assume the
; 28   : 			// allocation function will throw bad_alloc
; 29   : 		_Result = static_cast<size_t>(-1);

	mov	DWORD PTR __Result$[ebp], -1
$LN2@Get_size_o:

; 30   : 		}
; 31   : 
; 32   : 	return (_Result);

	mov	eax, DWORD PTR __Result$[ebp]

; 33   : 	}

	mov	esp, ebp
	pop	ebp
	ret	0
??$_Get_size_of_n@$03@std@@YAII@Z ENDP			; std::_Get_size_of_n<4>
_TEXT	ENDS
; Function compile flags: /Odtp /RTCsu
; File c:\program files (x86)\microsoft visual studio\2017\enterprise\vc\tools\msvc\14.15.26726\include\xmemory0
;	COMDAT ??$_Destroy_range@V?$allocator@PAVRaven_Bot@@@std@@@std@@YAXPAPAVRaven_Bot@@0AAV?$allocator@PAVRaven_Bot@@@0@@Z
_TEXT	SEGMENT
$T1 = -1						; size = 1
__First$ = 8						; size = 4
__Last$ = 12						; size = 4
__Al$ = 16						; size = 4
??$_Destroy_range@V?$allocator@PAVRaven_Bot@@@std@@@std@@YAXPAPAVRaven_Bot@@0AAV?$allocator@PAVRaven_Bot@@@0@@Z PROC ; std::_Destroy_range<std::allocator<Raven_Bot *> >, COMDAT

; 1154 : 	{	// destroy [_First, _Last), choose optimization

	push	ebp
	mov	ebp, esp
	push	ecx
	mov	DWORD PTR [ebp-4], -858993460		; ccccccccH

; 1155 : 		// note that this is an optimization for debug mode codegen;
; 1156 : 		// in release mode the BE removes all of this
; 1157 : 	using _Val = typename _Alloc::value_type;
; 1158 : 	_Destroy_range1(_First, _Last, _Al, bool_constant<conjunction_v<

	xor	eax, eax
	mov	BYTE PTR $T1[ebp], al
	movzx	ecx, BYTE PTR $T1[ebp]
	push	ecx
	mov	edx, DWORD PTR __Al$[ebp]
	push	edx
	mov	eax, DWORD PTR __Last$[ebp]
	push	eax
	mov	ecx, DWORD PTR __First$[ebp]
	push	ecx
	call	??$_Destroy_range1@V?$allocator@PAVRaven_Bot@@@std@@@std@@YAXPAPAVRaven_Bot@@0AAV?$allocator@PAVRaven_Bot@@@0@U?$integral_constant@_N$00@0@@Z ; std::_Destroy_range1<std::allocator<Raven_Bot *> >
	add	esp, 16					; 00000010H

; 1159 : 		is_trivially_destructible<_Val>,
; 1160 : 		_Uses_default_destroy<_Alloc, _Val *>>>{});
; 1161 : 	}

	add	esp, 4
	cmp	ebp, esp
	call	__RTC_CheckEsp
	mov	esp, ebp
	pop	ebp
	ret	0
??$_Destroy_range@V?$allocator@PAVRaven_Bot@@@std@@@std@@YAXPAPAVRaven_Bot@@0AAV?$allocator@PAVRaven_Bot@@@0@@Z ENDP ; std::_Destroy_range<std::allocator<Raven_Bot *> >
_TEXT	ENDS
; Function compile flags: /Odtp /RTCsu
; File c:\program files (x86)\microsoft visual studio\2017\enterprise\vc\tools\msvc\14.15.26726\include\xstddef
;	COMDAT ??$addressof@V?$_Vector_val@U?$_Simple_types@PAVRaven_Bot@@@std@@@std@@@std@@YAPAV?$_Vector_val@U?$_Simple_types@PAVRaven_Bot@@@std@@@0@AAV10@@Z
_TEXT	SEGMENT
__Val$ = 8						; size = 4
??$addressof@V?$_Vector_val@U?$_Simple_types@PAVRaven_Bot@@@std@@@std@@@std@@YAPAV?$_Vector_val@U?$_Simple_types@PAVRaven_Bot@@@std@@@0@AAV10@@Z PROC ; std::addressof<std::_Vector_val<std::_Simple_types<Raven_Bot *> > >, COMDAT

; 329  : 	{	// return address of _Val

	push	ebp
	mov	ebp, esp

; 330  : 	return (__builtin_addressof(_Val));

	mov	eax, DWORD PTR __Val$[ebp]

; 331  : 	}

	pop	ebp
	ret	0
??$addressof@V?$_Vector_val@U?$_Simple_types@PAVRaven_Bot@@@std@@@std@@@std@@YAPAV?$_Vector_val@U?$_Simple_types@PAVRaven_Bot@@@std@@@0@AAV10@@Z ENDP ; std::addressof<std::_Vector_val<std::_Simple_types<Raven_Bot *> > >
_TEXT	ENDS
; Function compile flags: /Odtp /RTCsu
; File c:\program files (x86)\microsoft visual studio\2017\enterprise\vc\tools\msvc\14.15.26726\include\xmemory0
;	COMDAT ??$construct@U_Container_proxy@std@@U12@@?$_Default_allocator_traits@V?$allocator@U_Container_proxy@std@@@std@@@std@@SAXAAV?$allocator@U_Container_proxy@std@@@1@QAU_Container_proxy@1@$$QAU31@@Z
_TEXT	SEGMENT
$T1 = -4						; size = 4
___formal$ = 8						; size = 4
__Ptr$ = 12						; size = 4
_<_Args_0>$ = 16					; size = 4
??$construct@U_Container_proxy@std@@U12@@?$_Default_allocator_traits@V?$allocator@U_Container_proxy@std@@@std@@@std@@SAXAAV?$allocator@U_Container_proxy@std@@@1@QAU_Container_proxy@1@$$QAU31@@Z PROC ; std::_Default_allocator_traits<std::allocator<std::_Container_proxy> >::construct<std::_Container_proxy,std::_Container_proxy>, COMDAT

; 879  : 		{	// construct _Objty(_Types...) at _Ptr

	push	ebp
	mov	ebp, esp
	push	ecx
	mov	DWORD PTR [ebp-4], -858993460		; ccccccccH

; 880  : 		::new (const_cast<void *>(static_cast<const volatile void *>(_Ptr)))

	mov	eax, DWORD PTR __Ptr$[ebp]
	push	eax
	push	8
	call	??2@YAPAXIPAX@Z				; operator new
	add	esp, 8
	mov	DWORD PTR $T1[ebp], eax
	mov	ecx, DWORD PTR _<_Args_0>$[ebp]
	push	ecx
	call	??$forward@U_Container_proxy@std@@@std@@YA$$QAU_Container_proxy@0@AAU10@@Z ; std::forward<std::_Container_proxy>
	add	esp, 4
	mov	edx, DWORD PTR [eax]
	mov	eax, DWORD PTR [eax+4]
	mov	ecx, DWORD PTR $T1[ebp]
	mov	DWORD PTR [ecx], edx
	mov	DWORD PTR [ecx+4], eax

; 881  : 			_Objty(_STD forward<_Types>(_Args)...);
; 882  : 		}

	add	esp, 4
	cmp	ebp, esp
	call	__RTC_CheckEsp
	mov	esp, ebp
	pop	ebp
	ret	0
??$construct@U_Container_proxy@std@@U12@@?$_Default_allocator_traits@V?$allocator@U_Container_proxy@std@@@std@@@std@@SAXAAV?$allocator@U_Container_proxy@std@@@1@QAU_Container_proxy@1@$$QAU31@@Z ENDP ; std::_Default_allocator_traits<std::allocator<std::_Container_proxy> >::construct<std::_Container_proxy,std::_Container_proxy>
_TEXT	ENDS
; Function compile flags: /Odtp /RTCsu
; File c:\program files (x86)\microsoft visual studio\2017\enterprise\vc\tools\msvc\14.15.26726\include\xstddef
;	COMDAT ??$_Unfancy@U_Container_proxy@std@@@std@@YAPAU_Container_proxy@0@PAU10@@Z
_TEXT	SEGMENT
__Ptr$ = 8						; size = 4
??$_Unfancy@U_Container_proxy@std@@@std@@YAPAU_Container_proxy@0@PAU10@@Z PROC ; std::_Unfancy<std::_Container_proxy>, COMDAT

; 345  : 	{	// do nothing for plain pointers

	push	ebp
	mov	ebp, esp

; 346  : 	return (_Ptr);

	mov	eax, DWORD PTR __Ptr$[ebp]

; 347  : 	}

	pop	ebp
	ret	0
??$_Unfancy@U_Container_proxy@std@@@std@@YAPAU_Container_proxy@0@PAU10@@Z ENDP ; std::_Unfancy<std::_Container_proxy>
_TEXT	ENDS
; Function compile flags: /Odtp /RTCsu
; File c:\program files (x86)\microsoft visual studio\2017\enterprise\vc\tools\msvc\14.15.26726\include\xmemory0
;	COMDAT ??$_Deallocate_plain@V?$allocator@U_Container_proxy@std@@@std@@$0A@@std@@YAXAAV?$allocator@U_Container_proxy@std@@@0@QAU_Container_proxy@0@@Z
_TEXT	SEGMENT
__Al$ = 8						; size = 4
__Ptr$ = 12						; size = 4
??$_Deallocate_plain@V?$allocator@U_Container_proxy@std@@@std@@$0A@@std@@YAXAAV?$allocator@U_Container_proxy@std@@@0@QAU_Container_proxy@0@@Z PROC ; std::_Deallocate_plain<std::allocator<std::_Container_proxy>,0>, COMDAT

; 1212 : 	{	// deallocate a plain pointer using an allocator, non-fancy pointers special case

	push	ebp
	mov	ebp, esp

; 1213 : 	allocator_traits<_Alloc>::deallocate(_Al, _Ptr, 1);

	push	1
	mov	eax, DWORD PTR __Ptr$[ebp]
	push	eax
	mov	ecx, DWORD PTR __Al$[ebp]
	push	ecx
	call	?deallocate@?$_Default_allocator_traits@V?$allocator@U_Container_proxy@std@@@std@@@std@@SAXAAV?$allocator@U_Container_proxy@std@@@2@QAU_Container_proxy@2@I@Z ; std::_Default_allocator_traits<std::allocator<std::_Container_proxy> >::deallocate
	add	esp, 12					; 0000000cH

; 1214 : 	}

	cmp	ebp, esp
	call	__RTC_CheckEsp
	pop	ebp
	ret	0
??$_Deallocate_plain@V?$allocator@U_Container_proxy@std@@@std@@$0A@@std@@YAXAAV?$allocator@U_Container_proxy@std@@@0@QAU_Container_proxy@0@@Z ENDP ; std::_Deallocate_plain<std::allocator<std::_Container_proxy>,0>
_TEXT	ENDS
; Function compile flags: /Odtp /RTCsu
; File c:\program files (x86)\microsoft visual studio\2017\enterprise\vc\tools\msvc\14.15.26726\include\xmemory0
;	COMDAT ??$destroy@U_Container_proxy@std@@@?$_Default_allocator_traits@V?$allocator@U_Container_proxy@std@@@std@@@std@@SAXAAV?$allocator@U_Container_proxy@std@@@1@QAU_Container_proxy@1@@Z
_TEXT	SEGMENT
___formal$ = 8						; size = 4
__Ptr$ = 12						; size = 4
??$destroy@U_Container_proxy@std@@@?$_Default_allocator_traits@V?$allocator@U_Container_proxy@std@@@std@@@std@@SAXAAV?$allocator@U_Container_proxy@std@@@1@QAU_Container_proxy@1@@Z PROC ; std::_Default_allocator_traits<std::allocator<std::_Container_proxy> >::destroy<std::_Container_proxy>, COMDAT

; 886  : 		{	// destroy object at _Ptr

	push	ebp
	mov	ebp, esp

; 887  : 		_Ptr->~_Uty();
; 888  : 		}

	pop	ebp
	ret	0
??$destroy@U_Container_proxy@std@@@?$_Default_allocator_traits@V?$allocator@U_Container_proxy@std@@@std@@@std@@SAXAAV?$allocator@U_Container_proxy@std@@@1@QAU_Container_proxy@1@@Z ENDP ; std::_Default_allocator_traits<std::allocator<std::_Container_proxy> >::destroy<std::_Container_proxy>
_TEXT	ENDS
; Function compile flags: /Odtp /RTCsu
; File c:\program files (x86)\microsoft visual studio\2017\enterprise\vc\tools\msvc\14.15.26726\include\xmemory0
;	COMDAT ?deallocate@?$_Default_allocator_traits@V?$allocator@U_Container_proxy@std@@@std@@@std@@SAXAAV?$allocator@U_Container_proxy@std@@@2@QAU_Container_proxy@2@I@Z
_TEXT	SEGMENT
___formal$ = 8						; size = 4
__Ptr$ = 12						; size = 4
__Count$ = 16						; size = 4
?deallocate@?$_Default_allocator_traits@V?$allocator@U_Container_proxy@std@@@std@@@std@@SAXAAV?$allocator@U_Container_proxy@std@@@2@QAU_Container_proxy@2@I@Z PROC ; std::_Default_allocator_traits<std::allocator<std::_Container_proxy> >::deallocate, COMDAT

; 871  : 		{	// deallocate _Count elements at _Ptr

	push	ebp
	mov	ebp, esp

; 872  : 		// no overflow check on the following multiply; we assume _Allocate did that check
; 873  : 		_Deallocate<_New_alignof<value_type>>(_Ptr, sizeof(value_type) * _Count);

	mov	eax, DWORD PTR __Count$[ebp]
	shl	eax, 3
	push	eax
	mov	ecx, DWORD PTR __Ptr$[ebp]
	push	ecx
	call	??$_Deallocate@$07$0A@@std@@YAXPAXI@Z	; std::_Deallocate<8,0>
	add	esp, 8

; 874  : 		}

	cmp	ebp, esp
	call	__RTC_CheckEsp
	pop	ebp
	ret	0
?deallocate@?$_Default_allocator_traits@V?$allocator@U_Container_proxy@std@@@std@@@std@@SAXAAV?$allocator@U_Container_proxy@std@@@2@QAU_Container_proxy@2@I@Z ENDP ; std::_Default_allocator_traits<std::allocator<std::_Container_proxy> >::deallocate
_TEXT	ENDS
; Function compile flags: /Odtp /RTCsu
; File c:\program files (x86)\microsoft visual studio\2017\enterprise\vc\tools\msvc\14.15.26726\include\xmemory0
;	COMDAT ??$?0PAVRaven_Bot@@@?$allocator@U_Container_proxy@std@@@std@@QAE@ABV?$allocator@PAVRaven_Bot@@@1@@Z
_TEXT	SEGMENT
_this$ = -4						; size = 4
___formal$ = 8						; size = 4
??$?0PAVRaven_Bot@@@?$allocator@U_Container_proxy@std@@@std@@QAE@ABV?$allocator@PAVRaven_Bot@@@1@@Z PROC ; std::allocator<std::_Container_proxy>::allocator<std::_Container_proxy><Raven_Bot *>, COMDAT
; _this$ = ecx

; 986  : 		{	// construct from a related allocator (do nothing)

	push	ebp
	mov	ebp, esp
	push	ecx
	mov	DWORD PTR [ebp-4], -858993460		; ccccccccH
	mov	DWORD PTR _this$[ebp], ecx

; 987  : 		}

	mov	eax, DWORD PTR _this$[ebp]
	mov	esp, ebp
	pop	ebp
	ret	4
??$?0PAVRaven_Bot@@@?$allocator@U_Container_proxy@std@@@std@@QAE@ABV?$allocator@PAVRaven_Bot@@@1@@Z ENDP ; std::allocator<std::_Container_proxy>::allocator<std::_Container_proxy><Raven_Bot *>
_TEXT	ENDS
; Function compile flags: /Odtp /RTCsu
; File c:\program files (x86)\microsoft visual studio\2017\enterprise\vc\tools\msvc\14.15.26726\include\xmemory0
;	COMDAT ?allocate@?$allocator@U_Container_proxy@std@@@std@@QAEPAU_Container_proxy@2@I@Z
_TEXT	SEGMENT
_this$ = -4						; size = 4
__Count$ = 8						; size = 4
?allocate@?$allocator@U_Container_proxy@std@@@std@@QAEPAU_Container_proxy@2@I@Z PROC ; std::allocator<std::_Container_proxy>::allocate, COMDAT
; _this$ = ecx

; 996  : 		{	// allocate array of _Count elements

	push	ebp
	mov	ebp, esp
	push	ecx
	mov	DWORD PTR [ebp-4], -858993460		; ccccccccH
	mov	DWORD PTR _this$[ebp], ecx

; 997  : 		return (static_cast<_Ty *>(_Allocate<_New_alignof<_Ty>>(_Get_size_of_n<sizeof(_Ty)>(_Count))));

	mov	eax, DWORD PTR __Count$[ebp]
	push	eax
	call	??$_Get_size_of_n@$07@std@@YAII@Z	; std::_Get_size_of_n<8>
	add	esp, 4
	push	eax
	call	??$_Allocate@$07U_Default_allocate_traits@std@@$0A@@std@@YAPAXI@Z ; std::_Allocate<8,std::_Default_allocate_traits,0>
	add	esp, 4

; 998  : 		}

	add	esp, 4
	cmp	ebp, esp
	call	__RTC_CheckEsp
	mov	esp, ebp
	pop	ebp
	ret	4
?allocate@?$allocator@U_Container_proxy@std@@@std@@QAEPAU_Container_proxy@2@I@Z ENDP ; std::allocator<std::_Container_proxy>::allocate
_TEXT	ENDS
; Function compile flags: /Odtp /RTCsu
; File c:\program files (x86)\microsoft visual studio\2017\enterprise\vc\tools\msvc\14.15.26726\include\xmemory0
;	COMDAT ??$_Deallocate@$07$0A@@std@@YAXPAXI@Z
_TEXT	SEGMENT
__Ptr$ = 8						; size = 4
__Bytes$ = 12						; size = 4
??$_Deallocate@$07$0A@@std@@YAXPAXI@Z PROC		; std::_Deallocate<8,0>, COMDAT

; 199  : 	{	// deallocate storage allocated by _Allocate when !_HAS_ALIGNED_NEW || _Align <= __STDCPP_DEFAULT_NEW_ALIGNMENT__

	push	ebp
	mov	ebp, esp

; 200  :  #if defined(_M_IX86) || defined(_M_X64)
; 201  : 	if (_Bytes >= _Big_allocation_threshold)

	cmp	DWORD PTR __Bytes$[ebp], 4096		; 00001000H
	jb	SHORT $LN2@Deallocate

; 202  : 		{	// boost the alignment of big allocations to help autovectorization
; 203  : 		_Adjust_manually_vector_aligned(_Ptr, _Bytes);

	lea	eax, DWORD PTR __Bytes$[ebp]
	push	eax
	lea	ecx, DWORD PTR __Ptr$[ebp]
	push	ecx
	call	?_Adjust_manually_vector_aligned@std@@YAXAAPAXAAI@Z ; std::_Adjust_manually_vector_aligned
	add	esp, 8
$LN2@Deallocate:

; 204  : 		}
; 205  :  #endif /* defined(_M_IX86) || defined(_M_X64) */
; 206  : 
; 207  : 	::operator delete(_Ptr, _Bytes);

	mov	edx, DWORD PTR __Bytes$[ebp]
	push	edx
	mov	eax, DWORD PTR __Ptr$[ebp]
	push	eax
	call	??3@YAXPAXI@Z				; operator delete
	add	esp, 8

; 208  : 	}

	cmp	ebp, esp
	call	__RTC_CheckEsp
	pop	ebp
	ret	0
??$_Deallocate@$07$0A@@std@@YAXPAXI@Z ENDP		; std::_Deallocate<8,0>
_TEXT	ENDS
; Function compile flags: /Odtp /RTCsu
; File c:\program files (x86)\microsoft visual studio\2017\enterprise\vc\tools\msvc\14.15.26726\include\xmemory0
;	COMDAT ??$_Allocate@$07U_Default_allocate_traits@std@@$0A@@std@@YAPAXI@Z
_TEXT	SEGMENT
__Bytes$ = 8						; size = 4
??$_Allocate@$07U_Default_allocate_traits@std@@$0A@@std@@YAPAXI@Z PROC ; std::_Allocate<8,std::_Default_allocate_traits,0>, COMDAT

; 180  : 	{	// allocate _Bytes when !_HAS_ALIGNED_NEW || _Align <= __STDCPP_DEFAULT_NEW_ALIGNMENT__

	push	ebp
	mov	ebp, esp

; 181  :  #if defined(_M_IX86) || defined(_M_X64)
; 182  : 	if (_Bytes >= _Big_allocation_threshold)

	cmp	DWORD PTR __Bytes$[ebp], 4096		; 00001000H
	jb	SHORT $LN2@Allocate

; 183  : 		{	// boost the alignment of big allocations to help autovectorization
; 184  : 		return (_Allocate_manually_vector_aligned<_Traits>(_Bytes));

	mov	eax, DWORD PTR __Bytes$[ebp]
	push	eax
	call	??$_Allocate_manually_vector_aligned@U_Default_allocate_traits@std@@@std@@YAPAXI@Z ; std::_Allocate_manually_vector_aligned<std::_Default_allocate_traits>
	add	esp, 4
	jmp	SHORT $LN1@Allocate
$LN2@Allocate:

; 185  : 		}
; 186  :  #endif /* defined(_M_IX86) || defined(_M_X64) */
; 187  : 
; 188  : 	if (_Bytes != 0)

	cmp	DWORD PTR __Bytes$[ebp], 0
	je	SHORT $LN3@Allocate

; 189  : 		{
; 190  : 		return (_Traits::_Allocate(_Bytes));

	mov	ecx, DWORD PTR __Bytes$[ebp]
	push	ecx
	call	?_Allocate@_Default_allocate_traits@std@@SAPAXI@Z ; std::_Default_allocate_traits::_Allocate
	add	esp, 4
	jmp	SHORT $LN1@Allocate
$LN3@Allocate:

; 191  : 		}
; 192  : 
; 193  : 	return (nullptr);

	xor	eax, eax
$LN1@Allocate:

; 194  : 	}

	cmp	ebp, esp
	call	__RTC_CheckEsp
	pop	ebp
	ret	0
??$_Allocate@$07U_Default_allocate_traits@std@@$0A@@std@@YAPAXI@Z ENDP ; std::_Allocate<8,std::_Default_allocate_traits,0>
_TEXT	ENDS
; Function compile flags: /Odtp /RTCsu
; File c:\program files (x86)\microsoft visual studio\2017\enterprise\vc\tools\msvc\14.15.26726\include\xutility
;	COMDAT ??$?0$$V@?$_Compressed_pair@V?$allocator@PAVRaven_Bot@@@std@@V?$_Vector_val@U?$_Simple_types@PAVRaven_Bot@@@std@@@2@$00@std@@QAE@U_Zero_then_variadic_args_t@1@@Z
_TEXT	SEGMENT
_this$ = -4						; size = 4
___formal$ = 8						; size = 1
??$?0$$V@?$_Compressed_pair@V?$allocator@PAVRaven_Bot@@@std@@V?$_Vector_val@U?$_Simple_types@PAVRaven_Bot@@@std@@@2@$00@std@@QAE@U_Zero_then_variadic_args_t@1@@Z PROC ; std::_Compressed_pair<std::allocator<Raven_Bot *>,std::_Vector_val<std::_Simple_types<Raven_Bot *> >,1>::_Compressed_pair<std::allocator<Raven_Bot *>,std::_Vector_val<std::_Simple_types<Raven_Bot *> >,1><>, COMDAT
; _this$ = ecx

; 278  : 		{	// construct from forwarded values

	push	ebp
	mov	ebp, esp
	push	ecx
	mov	DWORD PTR [ebp-4], -858993460		; ccccccccH
	mov	DWORD PTR _this$[ebp], ecx

; 277  : 		: _Ty1(), _Myval2(_STD forward<_Other2>(_Val2)...)

	mov	ecx, DWORD PTR _this$[ebp]
	call	??0?$allocator@PAVRaven_Bot@@@std@@QAE@XZ ; std::allocator<Raven_Bot *>::allocator<Raven_Bot *>
	mov	ecx, DWORD PTR _this$[ebp]
	call	??0?$_Vector_val@U?$_Simple_types@PAVRaven_Bot@@@std@@@std@@QAE@XZ ; std::_Vector_val<std::_Simple_types<Raven_Bot *> >::_Vector_val<std::_Simple_types<Raven_Bot *> >

; 279  : 		}

	mov	eax, DWORD PTR _this$[ebp]
	add	esp, 4
	cmp	ebp, esp
	call	__RTC_CheckEsp
	mov	esp, ebp
	pop	ebp
	ret	4
??$?0$$V@?$_Compressed_pair@V?$allocator@PAVRaven_Bot@@@std@@V?$_Vector_val@U?$_Simple_types@PAVRaven_Bot@@@std@@@2@$00@std@@QAE@U_Zero_then_variadic_args_t@1@@Z ENDP ; std::_Compressed_pair<std::allocator<Raven_Bot *>,std::_Vector_val<std::_Simple_types<Raven_Bot *> >,1>::_Compressed_pair<std::allocator<Raven_Bot *>,std::_Vector_val<std::_Simple_types<Raven_Bot *> >,1><>
_TEXT	ENDS
; Function compile flags: /Odtp /RTCsu
; File c:\program files (x86)\microsoft visual studio\2017\enterprise\vc\tools\msvc\14.15.26726\include\utility
;	COMDAT ??$_Min_value@I@std@@YAABIABI0@Z
_TEXT	SEGMENT
tv65 = -8						; size = 4
$T1 = -4						; size = 4
__Left$ = 8						; size = 4
__Right$ = 12						; size = 4
??$_Min_value@I@std@@YAABIABI0@Z PROC			; std::_Min_value<unsigned int>, COMDAT

; 23   : 	{	// return smaller of _Left and _Right

	push	ebp
	mov	ebp, esp
	sub	esp, 8
	mov	DWORD PTR [ebp-8], -858993460		; ccccccccH
	mov	DWORD PTR [ebp-4], -858993460		; ccccccccH

; 24   : 	return (_Right < _Left ? _Right : _Left);

	mov	eax, DWORD PTR __Right$[ebp]
	mov	ecx, DWORD PTR __Left$[ebp]
	mov	edx, DWORD PTR [eax]
	cmp	edx, DWORD PTR [ecx]
	jae	SHORT $LN3@Min_value
	mov	eax, DWORD PTR __Right$[ebp]
	mov	DWORD PTR tv65[ebp], eax
	jmp	SHORT $LN4@Min_value
$LN3@Min_value:
	mov	ecx, DWORD PTR __Left$[ebp]
	mov	DWORD PTR tv65[ebp], ecx
$LN4@Min_value:
	mov	edx, DWORD PTR tv65[ebp]
	mov	DWORD PTR $T1[ebp], edx
	mov	eax, DWORD PTR $T1[ebp]

; 25   : 	}

	mov	esp, ebp
	pop	ebp
	ret	0
??$_Min_value@I@std@@YAABIABI0@Z ENDP			; std::_Min_value<unsigned int>
_TEXT	ENDS
; Function compile flags: /Odtp /RTCsu
; File c:\program files (x86)\microsoft visual studio\2017\enterprise\vc\tools\msvc\14.15.26726\include\vector
;	COMDAT ??$_Emplace_reallocate@ABQAVRaven_Bot@@@?$vector@PAVRaven_Bot@@V?$allocator@PAVRaven_Bot@@@std@@@std@@QAEPAPAVRaven_Bot@@QAPAV2@ABQAV2@@Z
_TEXT	SEGMENT
tv206 = -56						; size = 4
__Constructed_first$ = -52				; size = 4
__Constructed_last$ = -48				; size = 4
__Newvec$ = -44						; size = 4
__Newcapacity$ = -40					; size = 4
__Newsize$ = -36					; size = 4
__Oldsize$ = -32					; size = 4
__Al$ = -28						; size = 4
__Whereoff$ = -24					; size = 4
_this$ = -20						; size = 4
__$EHRec$ = -16						; size = 16
__Whereptr$ = 8						; size = 4
_<_Val_0>$ = 12						; size = 4
??$_Emplace_reallocate@ABQAVRaven_Bot@@@?$vector@PAVRaven_Bot@@V?$allocator@PAVRaven_Bot@@@std@@@std@@QAEPAPAVRaven_Bot@@QAPAV2@ABQAV2@@Z PROC ; std::vector<Raven_Bot *,std::allocator<Raven_Bot *> >::_Emplace_reallocate<Raven_Bot * const &>, COMDAT
; _this$ = ecx

; 942  : 		{	// reallocate and insert by perfectly forwarding _Val at _Whereptr

	push	ebp
	mov	ebp, esp
	push	-1
	push	__ehhandler$??$_Emplace_reallocate@ABQAVRaven_Bot@@@?$vector@PAVRaven_Bot@@V?$allocator@PAVRaven_Bot@@@std@@@std@@QAEPAPAVRaven_Bot@@QAPAV2@ABQAV2@@Z
	mov	eax, DWORD PTR fs:0
	push	eax
	push	ecx
	sub	esp, 40					; 00000028H
	push	ebx
	push	esi
	push	edi
	push	ecx
	lea	edi, DWORD PTR [ebp-56]
	mov	ecx, 10					; 0000000aH
	mov	eax, -858993460				; ccccccccH
	rep stosd
	pop	ecx
	mov	eax, DWORD PTR ___security_cookie
	xor	eax, ebp
	push	eax
	lea	eax, DWORD PTR __$EHRec$[ebp+4]
	mov	DWORD PTR fs:0, eax
	mov	DWORD PTR __$EHRec$[ebp], esp
	mov	DWORD PTR _this$[ebp], ecx

; 943  : 			// pre: !_Has_unused_capacity()
; 944  : 		const size_type _Whereoff = static_cast<size_type>(_Whereptr - this->_Myfirst());

	mov	ecx, DWORD PTR _this$[ebp]
	call	?_Myfirst@?$_Vector_alloc@U?$_Vec_base_types@PAVRaven_Bot@@V?$allocator@PAVRaven_Bot@@@std@@@std@@@std@@QAEAAPAPAVRaven_Bot@@XZ ; std::_Vector_alloc<std::_Vec_base_types<Raven_Bot *,std::allocator<Raven_Bot *> > >::_Myfirst
	mov	ecx, DWORD PTR __Whereptr$[ebp]
	sub	ecx, DWORD PTR [eax]
	sar	ecx, 2
	mov	DWORD PTR __Whereoff$[ebp], ecx

; 945  : 		_Alty& _Al = this->_Getal();

	mov	ecx, DWORD PTR _this$[ebp]
	call	?_Getal@?$_Vector_alloc@U?$_Vec_base_types@PAVRaven_Bot@@V?$allocator@PAVRaven_Bot@@@std@@@std@@@std@@QAEAAV?$allocator@PAVRaven_Bot@@@2@XZ ; std::_Vector_alloc<std::_Vec_base_types<Raven_Bot *,std::allocator<Raven_Bot *> > >::_Getal
	mov	DWORD PTR __Al$[ebp], eax

; 946  : 		const size_type _Oldsize = size();

	mov	ecx, DWORD PTR _this$[ebp]
	call	?size@?$vector@PAVRaven_Bot@@V?$allocator@PAVRaven_Bot@@@std@@@std@@QBEIXZ ; std::vector<Raven_Bot *,std::allocator<Raven_Bot *> >::size
	mov	DWORD PTR __Oldsize$[ebp], eax

; 947  : 
; 948  : 		if (_Oldsize == max_size())

	mov	ecx, DWORD PTR _this$[ebp]
	call	?max_size@?$vector@PAVRaven_Bot@@V?$allocator@PAVRaven_Bot@@@std@@@std@@QBEIXZ ; std::vector<Raven_Bot *,std::allocator<Raven_Bot *> >::max_size
	cmp	DWORD PTR __Oldsize$[ebp], eax
	jne	SHORT $LN2@Emplace_re

; 949  : 			{
; 950  : 			_Xlength();

	call	?_Xlength@?$vector@PAVRaven_Bot@@V?$allocator@PAVRaven_Bot@@@std@@@std@@CAXXZ ; std::vector<Raven_Bot *,std::allocator<Raven_Bot *> >::_Xlength
$LN2@Emplace_re:

; 951  : 			}
; 952  : 
; 953  : 		const size_type _Newsize = _Oldsize + 1;

	mov	edx, DWORD PTR __Oldsize$[ebp]
	add	edx, 1
	mov	DWORD PTR __Newsize$[ebp], edx

; 954  : 		const size_type _Newcapacity = _Calculate_growth(_Newsize);

	mov	eax, DWORD PTR __Newsize$[ebp]
	push	eax
	mov	ecx, DWORD PTR _this$[ebp]
	call	?_Calculate_growth@?$vector@PAVRaven_Bot@@V?$allocator@PAVRaven_Bot@@@std@@@std@@ABEII@Z ; std::vector<Raven_Bot *,std::allocator<Raven_Bot *> >::_Calculate_growth
	mov	DWORD PTR __Newcapacity$[ebp], eax

; 955  : 
; 956  : 		const pointer _Newvec = _Al.allocate(_Newcapacity);

	mov	ecx, DWORD PTR __Newcapacity$[ebp]
	push	ecx
	mov	ecx, DWORD PTR __Al$[ebp]
	call	?allocate@?$allocator@PAVRaven_Bot@@@std@@QAEPAPAVRaven_Bot@@I@Z ; std::allocator<Raven_Bot *>::allocate
	mov	DWORD PTR __Newvec$[ebp], eax

; 957  : 		const pointer _Constructed_last = _Newvec + _Whereoff + 1;

	mov	edx, DWORD PTR __Whereoff$[ebp]
	mov	eax, DWORD PTR __Newvec$[ebp]
	lea	ecx, DWORD PTR [eax+edx*4+4]
	mov	DWORD PTR __Constructed_last$[ebp], ecx

; 958  : 		pointer _Constructed_first = _Constructed_last;

	mov	edx, DWORD PTR __Constructed_last$[ebp]
	mov	DWORD PTR __Constructed_first$[ebp], edx

; 959  : 
; 960  : 		_TRY_BEGIN

	mov	DWORD PTR __$EHRec$[ebp+12], 0

; 961  : 		_Alty_traits::construct(_Al, _Unfancy(_Newvec + _Whereoff), _STD forward<_Valty>(_Val)...);

	mov	eax, DWORD PTR __Whereoff$[ebp]
	mov	ecx, DWORD PTR __Newvec$[ebp]
	lea	edx, DWORD PTR [ecx+eax*4]
	push	edx
	call	??$_Unfancy@PAVRaven_Bot@@@std@@YAPAPAVRaven_Bot@@PAPAV1@@Z ; std::_Unfancy<Raven_Bot *>
	add	esp, 4
	mov	DWORD PTR tv206[ebp], eax
	mov	eax, DWORD PTR _<_Val_0>$[ebp]
	push	eax
	call	??$forward@ABQAVRaven_Bot@@@std@@YAABQAVRaven_Bot@@ABQAV1@@Z ; std::forward<Raven_Bot * const &>
	add	esp, 4
	push	eax
	mov	ecx, DWORD PTR tv206[ebp]
	push	ecx
	mov	edx, DWORD PTR __Al$[ebp]
	push	edx
	call	??$construct@PAVRaven_Bot@@ABQAV1@@?$_Default_allocator_traits@V?$allocator@PAVRaven_Bot@@@std@@@std@@SAXAAV?$allocator@PAVRaven_Bot@@@1@QAPAVRaven_Bot@@ABQAV3@@Z ; std::_Default_allocator_traits<std::allocator<Raven_Bot *> >::construct<Raven_Bot *,Raven_Bot * const &>
	add	esp, 12					; 0000000cH

; 962  : 		_Constructed_first = _Newvec + _Whereoff;

	mov	eax, DWORD PTR __Whereoff$[ebp]
	mov	ecx, DWORD PTR __Newvec$[ebp]
	lea	edx, DWORD PTR [ecx+eax*4]
	mov	DWORD PTR __Constructed_first$[ebp], edx

; 963  : 
; 964  : 		if (_Whereptr == this->_Mylast())

	mov	ecx, DWORD PTR _this$[ebp]
	call	?_Mylast@?$_Vector_alloc@U?$_Vec_base_types@PAVRaven_Bot@@V?$allocator@PAVRaven_Bot@@@std@@@std@@@std@@QAEAAPAPAVRaven_Bot@@XZ ; std::_Vector_alloc<std::_Vec_base_types<Raven_Bot *,std::allocator<Raven_Bot *> > >::_Mylast
	mov	ecx, DWORD PTR __Whereptr$[ebp]
	cmp	ecx, DWORD PTR [eax]
	jne	SHORT $LN4@Emplace_re

; 965  : 			{	// at back, provide strong guarantee
; 966  : 			_Umove_if_noexcept(this->_Myfirst(), this->_Mylast(), _Newvec);

	mov	edx, DWORD PTR __Newvec$[ebp]
	push	edx
	mov	ecx, DWORD PTR _this$[ebp]
	call	?_Mylast@?$_Vector_alloc@U?$_Vec_base_types@PAVRaven_Bot@@V?$allocator@PAVRaven_Bot@@@std@@@std@@@std@@QAEAAPAPAVRaven_Bot@@XZ ; std::_Vector_alloc<std::_Vec_base_types<Raven_Bot *,std::allocator<Raven_Bot *> > >::_Mylast
	mov	eax, DWORD PTR [eax]
	push	eax
	mov	ecx, DWORD PTR _this$[ebp]
	call	?_Myfirst@?$_Vector_alloc@U?$_Vec_base_types@PAVRaven_Bot@@V?$allocator@PAVRaven_Bot@@@std@@@std@@@std@@QAEAAPAPAVRaven_Bot@@XZ ; std::_Vector_alloc<std::_Vec_base_types<Raven_Bot *,std::allocator<Raven_Bot *> > >::_Myfirst
	mov	ecx, DWORD PTR [eax]
	push	ecx
	mov	ecx, DWORD PTR _this$[ebp]
	call	?_Umove_if_noexcept@?$vector@PAVRaven_Bot@@V?$allocator@PAVRaven_Bot@@@std@@@std@@AAEXPAPAVRaven_Bot@@00@Z ; std::vector<Raven_Bot *,std::allocator<Raven_Bot *> >::_Umove_if_noexcept

; 967  : 			}
; 968  : 		else

	jmp	SHORT $LN5@Emplace_re
$LN4@Emplace_re:

; 969  : 			{	// provide basic guarantee
; 970  : 			_Umove(this->_Myfirst(), _Whereptr, _Newvec);

	mov	edx, DWORD PTR __Newvec$[ebp]
	push	edx
	mov	eax, DWORD PTR __Whereptr$[ebp]
	push	eax
	mov	ecx, DWORD PTR _this$[ebp]
	call	?_Myfirst@?$_Vector_alloc@U?$_Vec_base_types@PAVRaven_Bot@@V?$allocator@PAVRaven_Bot@@@std@@@std@@@std@@QAEAAPAPAVRaven_Bot@@XZ ; std::_Vector_alloc<std::_Vec_base_types<Raven_Bot *,std::allocator<Raven_Bot *> > >::_Myfirst
	mov	ecx, DWORD PTR [eax]
	push	ecx
	mov	ecx, DWORD PTR _this$[ebp]
	call	?_Umove@?$vector@PAVRaven_Bot@@V?$allocator@PAVRaven_Bot@@@std@@@std@@AAEPAPAVRaven_Bot@@PAPAV3@00@Z ; std::vector<Raven_Bot *,std::allocator<Raven_Bot *> >::_Umove

; 971  : 			_Constructed_first = _Newvec;

	mov	edx, DWORD PTR __Newvec$[ebp]
	mov	DWORD PTR __Constructed_first$[ebp], edx

; 972  : 			_Umove(_Whereptr, this->_Mylast(), _Newvec + _Whereoff + 1);

	mov	eax, DWORD PTR __Whereoff$[ebp]
	mov	ecx, DWORD PTR __Newvec$[ebp]
	lea	edx, DWORD PTR [ecx+eax*4+4]
	push	edx
	mov	ecx, DWORD PTR _this$[ebp]
	call	?_Mylast@?$_Vector_alloc@U?$_Vec_base_types@PAVRaven_Bot@@V?$allocator@PAVRaven_Bot@@@std@@@std@@@std@@QAEAAPAPAVRaven_Bot@@XZ ; std::_Vector_alloc<std::_Vec_base_types<Raven_Bot *,std::allocator<Raven_Bot *> > >::_Mylast
	mov	eax, DWORD PTR [eax]
	push	eax
	mov	ecx, DWORD PTR __Whereptr$[ebp]
	push	ecx
	mov	ecx, DWORD PTR _this$[ebp]
	call	?_Umove@?$vector@PAVRaven_Bot@@V?$allocator@PAVRaven_Bot@@@std@@@std@@AAEPAPAVRaven_Bot@@PAPAV3@00@Z ; std::vector<Raven_Bot *,std::allocator<Raven_Bot *> >::_Umove
$LN5@Emplace_re:
	jmp	SHORT $LN7@Emplace_re
__catch$??$_Emplace_reallocate@ABQAVRaven_Bot@@@?$vector@PAVRaven_Bot@@V?$allocator@PAVRaven_Bot@@@std@@@std@@QAEPAPAVRaven_Bot@@QAPAV2@ABQAV2@@Z$0:

; 973  : 			}
; 974  : 		_CATCH_ALL
; 975  : 		_Destroy(_Constructed_first, _Constructed_last);

	mov	edx, DWORD PTR __Constructed_last$[ebp]
	push	edx
	mov	eax, DWORD PTR __Constructed_first$[ebp]
	push	eax
	mov	ecx, DWORD PTR _this$[ebp]
	call	?_Destroy@?$vector@PAVRaven_Bot@@V?$allocator@PAVRaven_Bot@@@std@@@std@@AAEXPAPAVRaven_Bot@@0@Z ; std::vector<Raven_Bot *,std::allocator<Raven_Bot *> >::_Destroy

; 976  : 		_Al.deallocate(_Newvec, _Newcapacity);

	mov	ecx, DWORD PTR __Newcapacity$[ebp]
	push	ecx
	mov	edx, DWORD PTR __Newvec$[ebp]
	push	edx
	mov	ecx, DWORD PTR __Al$[ebp]
	call	?deallocate@?$allocator@PAVRaven_Bot@@@std@@QAEXQAPAVRaven_Bot@@I@Z ; std::allocator<Raven_Bot *>::deallocate

; 977  : 		_RERAISE;

	push	0
	push	0
	call	__CxxThrowException@8

; 978  : 		_CATCH_END

	mov	eax, $LN10@Emplace_re
	ret	0
$LN7@Emplace_re:
	mov	DWORD PTR __$EHRec$[ebp+12], -1
	jmp	SHORT __tryend$??$_Emplace_reallocate@ABQAVRaven_Bot@@@?$vector@PAVRaven_Bot@@V?$allocator@PAVRaven_Bot@@@std@@@std@@QAEPAPAVRaven_Bot@@QAPAV2@ABQAV2@@Z$1
$LN10@Emplace_re:
	mov	DWORD PTR __$EHRec$[ebp+12], -1
__tryend$??$_Emplace_reallocate@ABQAVRaven_Bot@@@?$vector@PAVRaven_Bot@@V?$allocator@PAVRaven_Bot@@@std@@@std@@QAEPAPAVRaven_Bot@@QAPAV2@ABQAV2@@Z$1:

; 979  : 
; 980  : 		_Change_array(_Newvec, _Newsize, _Newcapacity);

	mov	eax, DWORD PTR __Newcapacity$[ebp]
	push	eax
	mov	ecx, DWORD PTR __Newsize$[ebp]
	push	ecx
	mov	edx, DWORD PTR __Newvec$[ebp]
	push	edx
	mov	ecx, DWORD PTR _this$[ebp]
	call	?_Change_array@?$vector@PAVRaven_Bot@@V?$allocator@PAVRaven_Bot@@@std@@@std@@AAEXQAPAVRaven_Bot@@II@Z ; std::vector<Raven_Bot *,std::allocator<Raven_Bot *> >::_Change_array

; 981  : 		return (this->_Myfirst() + _Whereoff);

	mov	ecx, DWORD PTR _this$[ebp]
	call	?_Myfirst@?$_Vector_alloc@U?$_Vec_base_types@PAVRaven_Bot@@V?$allocator@PAVRaven_Bot@@@std@@@std@@@std@@QAEAAPAPAVRaven_Bot@@XZ ; std::_Vector_alloc<std::_Vec_base_types<Raven_Bot *,std::allocator<Raven_Bot *> > >::_Myfirst
	mov	eax, DWORD PTR [eax]
	mov	ecx, DWORD PTR __Whereoff$[ebp]
	lea	eax, DWORD PTR [eax+ecx*4]
$LN6@Emplace_re:

; 982  : 		}

	mov	ecx, DWORD PTR __$EHRec$[ebp+4]
	mov	DWORD PTR fs:0, ecx
	pop	ecx
	pop	edi
	pop	esi
	pop	ebx
	add	esp, 56					; 00000038H
	cmp	ebp, esp
	call	__RTC_CheckEsp
	mov	esp, ebp
	pop	ebp
	ret	8
_TEXT	ENDS
;	COMDAT text$x
text$x	SEGMENT
__ehhandler$??$_Emplace_reallocate@ABQAVRaven_Bot@@@?$vector@PAVRaven_Bot@@V?$allocator@PAVRaven_Bot@@@std@@@std@@QAEPAPAVRaven_Bot@@QAPAV2@ABQAV2@@Z:
	mov	edx, DWORD PTR [esp+8]
	lea	eax, DWORD PTR [edx+12]
	mov	ecx, DWORD PTR [edx-60]
	xor	ecx, eax
	call	@__security_check_cookie@4
	mov	eax, OFFSET __ehfuncinfo$??$_Emplace_reallocate@ABQAVRaven_Bot@@@?$vector@PAVRaven_Bot@@V?$allocator@PAVRaven_Bot@@@std@@@std@@QAEPAPAVRaven_Bot@@QAPAV2@ABQAV2@@Z
	jmp	___CxxFrameHandler3
text$x	ENDS
??$_Emplace_reallocate@ABQAVRaven_Bot@@@?$vector@PAVRaven_Bot@@V?$allocator@PAVRaven_Bot@@@std@@@std@@QAEPAPAVRaven_Bot@@QAPAV2@ABQAV2@@Z ENDP ; std::vector<Raven_Bot *,std::allocator<Raven_Bot *> >::_Emplace_reallocate<Raven_Bot * const &>
; Function compile flags: /Odtp /RTCsu
; File c:\program files (x86)\microsoft visual studio\2017\enterprise\vc\tools\msvc\14.15.26726\include\xmemory0
;	COMDAT ??$construct@PAVRaven_Bot@@ABQAV1@@?$_Default_allocator_traits@V?$allocator@PAVRaven_Bot@@@std@@@std@@SAXAAV?$allocator@PAVRaven_Bot@@@1@QAPAVRaven_Bot@@ABQAV3@@Z
_TEXT	SEGMENT
$T1 = -4						; size = 4
___formal$ = 8						; size = 4
__Ptr$ = 12						; size = 4
_<_Args_0>$ = 16					; size = 4
??$construct@PAVRaven_Bot@@ABQAV1@@?$_Default_allocator_traits@V?$allocator@PAVRaven_Bot@@@std@@@std@@SAXAAV?$allocator@PAVRaven_Bot@@@1@QAPAVRaven_Bot@@ABQAV3@@Z PROC ; std::_Default_allocator_traits<std::allocator<Raven_Bot *> >::construct<Raven_Bot *,Raven_Bot * const &>, COMDAT

; 879  : 		{	// construct _Objty(_Types...) at _Ptr

	push	ebp
	mov	ebp, esp
	push	ecx
	mov	DWORD PTR [ebp-4], -858993460		; ccccccccH

; 880  : 		::new (const_cast<void *>(static_cast<const volatile void *>(_Ptr)))

	mov	eax, DWORD PTR __Ptr$[ebp]
	push	eax
	push	4
	call	??2@YAPAXIPAX@Z				; operator new
	add	esp, 8
	mov	DWORD PTR $T1[ebp], eax
	mov	ecx, DWORD PTR _<_Args_0>$[ebp]
	push	ecx
	call	??$forward@ABQAVRaven_Bot@@@std@@YAABQAVRaven_Bot@@ABQAV1@@Z ; std::forward<Raven_Bot * const &>
	add	esp, 4
	mov	edx, DWORD PTR $T1[ebp]
	mov	eax, DWORD PTR [eax]
	mov	DWORD PTR [edx], eax

; 881  : 			_Objty(_STD forward<_Types>(_Args)...);
; 882  : 		}

	add	esp, 4
	cmp	ebp, esp
	call	__RTC_CheckEsp
	mov	esp, ebp
	pop	ebp
	ret	0
??$construct@PAVRaven_Bot@@ABQAV1@@?$_Default_allocator_traits@V?$allocator@PAVRaven_Bot@@@std@@@std@@SAXAAV?$allocator@PAVRaven_Bot@@@1@QAPAVRaven_Bot@@ABQAV3@@Z ENDP ; std::_Default_allocator_traits<std::allocator<Raven_Bot *> >::construct<Raven_Bot *,Raven_Bot * const &>
_TEXT	ENDS
; Function compile flags: /Odtp /RTCsu
; File c:\program files (x86)\microsoft visual studio\2017\enterprise\vc\tools\msvc\14.15.26726\include\xstddef
;	COMDAT ??$_Unfancy@PAVRaven_Bot@@@std@@YAPAPAVRaven_Bot@@PAPAV1@@Z
_TEXT	SEGMENT
__Ptr$ = 8						; size = 4
??$_Unfancy@PAVRaven_Bot@@@std@@YAPAPAVRaven_Bot@@PAPAV1@@Z PROC ; std::_Unfancy<Raven_Bot *>, COMDAT

; 345  : 	{	// do nothing for plain pointers

	push	ebp
	mov	ebp, esp

; 346  : 	return (_Ptr);

	mov	eax, DWORD PTR __Ptr$[ebp]

; 347  : 	}

	pop	ebp
	ret	0
??$_Unfancy@PAVRaven_Bot@@@std@@YAPAPAVRaven_Bot@@PAPAV1@@Z ENDP ; std::_Unfancy<Raven_Bot *>
_TEXT	ENDS
; Function compile flags: /Odtp /RTCsu
; File c:\program files (x86)\microsoft visual studio\2017\enterprise\vc\tools\msvc\14.15.26726\include\vector
;	COMDAT ??$_Emplace_back_with_unused_capacity@ABQAVRaven_Bot@@@?$vector@PAVRaven_Bot@@V?$allocator@PAVRaven_Bot@@@std@@@std@@AAE@ABQAVRaven_Bot@@@Z
_TEXT	SEGMENT
tv142 = -12						; size = 4
__Result$ = -8						; size = 4
_this$ = -4						; size = 4
_<_Val_0>$ = 8						; size = 4
??$_Emplace_back_with_unused_capacity@ABQAVRaven_Bot@@@?$vector@PAVRaven_Bot@@V?$allocator@PAVRaven_Bot@@@std@@@std@@AAE@ABQAVRaven_Bot@@@Z PROC ; std::vector<Raven_Bot *,std::allocator<Raven_Bot *> >::_Emplace_back_with_unused_capacity<Raven_Bot * const &>, COMDAT
; _this$ = ecx

; 900  : 		{	// insert by perfectly forwarding into element at end, provide strong guarantee

	push	ebp
	mov	ebp, esp
	sub	esp, 12					; 0000000cH
	mov	DWORD PTR [ebp-12], -858993460		; ccccccccH
	mov	DWORD PTR [ebp-8], -858993460		; ccccccccH
	mov	DWORD PTR [ebp-4], -858993460		; ccccccccH
	mov	DWORD PTR _this$[ebp], ecx

; 901  : 			// pre: _Has_unused_capacity()
; 902  : 		_Alty_traits::construct(this->_Getal(), _Unfancy(this->_Mylast()), _STD forward<_Valty>(_Val)...);

	mov	eax, DWORD PTR _<_Val_0>$[ebp]
	push	eax
	call	??$forward@ABQAVRaven_Bot@@@std@@YAABQAVRaven_Bot@@ABQAV1@@Z ; std::forward<Raven_Bot * const &>
	add	esp, 4
	push	eax
	mov	ecx, DWORD PTR _this$[ebp]
	call	?_Mylast@?$_Vector_alloc@U?$_Vec_base_types@PAVRaven_Bot@@V?$allocator@PAVRaven_Bot@@@std@@@std@@@std@@QAEAAPAPAVRaven_Bot@@XZ ; std::_Vector_alloc<std::_Vec_base_types<Raven_Bot *,std::allocator<Raven_Bot *> > >::_Mylast
	mov	ecx, DWORD PTR [eax]
	push	ecx
	call	??$_Unfancy@PAVRaven_Bot@@@std@@YAPAPAVRaven_Bot@@PAPAV1@@Z ; std::_Unfancy<Raven_Bot *>
	add	esp, 4
	push	eax
	mov	ecx, DWORD PTR _this$[ebp]
	call	?_Getal@?$_Vector_alloc@U?$_Vec_base_types@PAVRaven_Bot@@V?$allocator@PAVRaven_Bot@@@std@@@std@@@std@@QAEAAV?$allocator@PAVRaven_Bot@@@2@XZ ; std::_Vector_alloc<std::_Vec_base_types<Raven_Bot *,std::allocator<Raven_Bot *> > >::_Getal
	push	eax
	call	??$construct@PAVRaven_Bot@@ABQAV1@@?$_Default_allocator_traits@V?$allocator@PAVRaven_Bot@@@std@@@std@@SAXAAV?$allocator@PAVRaven_Bot@@@1@QAPAVRaven_Bot@@ABQAV3@@Z ; std::_Default_allocator_traits<std::allocator<Raven_Bot *> >::construct<Raven_Bot *,Raven_Bot * const &>
	add	esp, 12					; 0000000cH

; 903  : 		_Orphan_range(this->_Mylast(), this->_Mylast());

	mov	ecx, DWORD PTR _this$[ebp]
	call	?_Mylast@?$_Vector_alloc@U?$_Vec_base_types@PAVRaven_Bot@@V?$allocator@PAVRaven_Bot@@@std@@@std@@@std@@QAEAAPAPAVRaven_Bot@@XZ ; std::_Vector_alloc<std::_Vec_base_types<Raven_Bot *,std::allocator<Raven_Bot *> > >::_Mylast
	mov	edx, DWORD PTR [eax]
	push	edx
	mov	ecx, DWORD PTR _this$[ebp]
	call	?_Mylast@?$_Vector_alloc@U?$_Vec_base_types@PAVRaven_Bot@@V?$allocator@PAVRaven_Bot@@@std@@@std@@@std@@QAEAAPAPAVRaven_Bot@@XZ ; std::_Vector_alloc<std::_Vec_base_types<Raven_Bot *,std::allocator<Raven_Bot *> > >::_Mylast
	mov	eax, DWORD PTR [eax]
	push	eax
	mov	ecx, DWORD PTR _this$[ebp]
	call	?_Orphan_range@?$vector@PAVRaven_Bot@@V?$allocator@PAVRaven_Bot@@@std@@@std@@ABEXPAPAVRaven_Bot@@0@Z ; std::vector<Raven_Bot *,std::allocator<Raven_Bot *> >::_Orphan_range

; 904  : 		_Ty& _Result = *this->_Mylast();

	mov	ecx, DWORD PTR _this$[ebp]
	call	?_Mylast@?$_Vector_alloc@U?$_Vec_base_types@PAVRaven_Bot@@V?$allocator@PAVRaven_Bot@@@std@@@std@@@std@@QAEAAPAPAVRaven_Bot@@XZ ; std::_Vector_alloc<std::_Vec_base_types<Raven_Bot *,std::allocator<Raven_Bot *> > >::_Mylast
	mov	ecx, DWORD PTR [eax]
	mov	DWORD PTR __Result$[ebp], ecx

; 905  : 		++this->_Mylast();

	mov	ecx, DWORD PTR _this$[ebp]
	call	?_Mylast@?$_Vector_alloc@U?$_Vec_base_types@PAVRaven_Bot@@V?$allocator@PAVRaven_Bot@@@std@@@std@@@std@@QAEAAPAPAVRaven_Bot@@XZ ; std::_Vector_alloc<std::_Vec_base_types<Raven_Bot *,std::allocator<Raven_Bot *> > >::_Mylast
	mov	DWORD PTR tv142[ebp], eax
	mov	edx, DWORD PTR tv142[ebp]
	mov	eax, DWORD PTR [edx]
	add	eax, 4
	mov	ecx, DWORD PTR tv142[ebp]
	mov	DWORD PTR [ecx], eax

; 906  : #if _HAS_CXX17
; 907  : 		return (_Result);
; 908  : #else /* ^^^ _HAS_CXX17 ^^^ // vvv !_HAS_CXX17 vvv */
; 909  : 		(void)_Result;
; 910  : #endif /* _HAS_CXX17 */
; 911  : 		}

	add	esp, 12					; 0000000cH
	cmp	ebp, esp
	call	__RTC_CheckEsp
	mov	esp, ebp
	pop	ebp
	ret	4
??$_Emplace_back_with_unused_capacity@ABQAVRaven_Bot@@@?$vector@PAVRaven_Bot@@V?$allocator@PAVRaven_Bot@@@std@@@std@@AAE@ABQAVRaven_Bot@@@Z ENDP ; std::vector<Raven_Bot *,std::allocator<Raven_Bot *> >::_Emplace_back_with_unused_capacity<Raven_Bot * const &>
_TEXT	ENDS
; Function compile flags: /Odtp /RTCsu
; File c:\program files (x86)\microsoft visual studio\2017\enterprise\vc\tools\msvc\14.15.26726\include\type_traits
;	COMDAT ??$forward@ABQAVRaven_Bot@@@std@@YAABQAVRaven_Bot@@ABQAV1@@Z
_TEXT	SEGMENT
__Arg$ = 8						; size = 4
??$forward@ABQAVRaven_Bot@@@std@@YAABQAVRaven_Bot@@ABQAV1@@Z PROC ; std::forward<Raven_Bot * const &>, COMDAT

; 1573 : 	{	// forward an lvalue as either an lvalue or an rvalue

	push	ebp
	mov	ebp, esp

; 1574 : 	return (static_cast<_Ty&&>(_Arg));

	mov	eax, DWORD PTR __Arg$[ebp]

; 1575 : 	}

	pop	ebp
	ret	0
??$forward@ABQAVRaven_Bot@@@std@@YAABQAVRaven_Bot@@ABQAV1@@Z ENDP ; std::forward<Raven_Bot * const &>
_TEXT	ENDS
; Function compile flags: /Odtp /RTCsu
; File c:\program files (x86)\microsoft visual studio\2017\enterprise\vc\tools\msvc\14.15.26726\include\vector
;	COMDAT ??$emplace_back@ABQAVRaven_Bot@@@?$vector@PAVRaven_Bot@@V?$allocator@PAVRaven_Bot@@@std@@@std@@QAE@ABQAVRaven_Bot@@@Z
_TEXT	SEGMENT
__Result$ = -8						; size = 4
_this$ = -4						; size = 4
_<_Val_0>$ = 8						; size = 4
??$emplace_back@ABQAVRaven_Bot@@@?$vector@PAVRaven_Bot@@V?$allocator@PAVRaven_Bot@@@std@@@std@@QAE@ABQAVRaven_Bot@@@Z PROC ; std::vector<Raven_Bot *,std::allocator<Raven_Bot *> >::emplace_back<Raven_Bot * const &>, COMDAT
; _this$ = ecx

; 916  : 		{	// insert by perfectly forwarding into element at end, provide strong guarantee

	push	ebp
	mov	ebp, esp
	sub	esp, 8
	mov	DWORD PTR [ebp-8], -858993460		; ccccccccH
	mov	DWORD PTR [ebp-4], -858993460		; ccccccccH
	mov	DWORD PTR _this$[ebp], ecx

; 917  : 		if (_Has_unused_capacity())

	mov	ecx, DWORD PTR _this$[ebp]
	call	?_Has_unused_capacity@?$vector@PAVRaven_Bot@@V?$allocator@PAVRaven_Bot@@@std@@@std@@ABE_NXZ ; std::vector<Raven_Bot *,std::allocator<Raven_Bot *> >::_Has_unused_capacity
	movzx	eax, al
	test	eax, eax
	je	SHORT $LN2@emplace_ba

; 918  : 			{
; 919  : 			return (_Emplace_back_with_unused_capacity(_STD forward<_Valty>(_Val)...));

	mov	ecx, DWORD PTR _<_Val_0>$[ebp]
	push	ecx
	call	??$forward@ABQAVRaven_Bot@@@std@@YAABQAVRaven_Bot@@ABQAV1@@Z ; std::forward<Raven_Bot * const &>
	add	esp, 4
	push	eax
	mov	ecx, DWORD PTR _this$[ebp]
	call	??$_Emplace_back_with_unused_capacity@ABQAVRaven_Bot@@@?$vector@PAVRaven_Bot@@V?$allocator@PAVRaven_Bot@@@std@@@std@@AAE@ABQAVRaven_Bot@@@Z ; std::vector<Raven_Bot *,std::allocator<Raven_Bot *> >::_Emplace_back_with_unused_capacity<Raven_Bot * const &>
	jmp	SHORT $LN1@emplace_ba
$LN2@emplace_ba:

; 920  : 			}
; 921  : 
; 922  : 		_Ty& _Result = *_Emplace_reallocate(this->_Mylast(), _STD forward<_Valty>(_Val)...);

	mov	edx, DWORD PTR _<_Val_0>$[ebp]
	push	edx
	call	??$forward@ABQAVRaven_Bot@@@std@@YAABQAVRaven_Bot@@ABQAV1@@Z ; std::forward<Raven_Bot * const &>
	add	esp, 4
	push	eax
	mov	ecx, DWORD PTR _this$[ebp]
	call	?_Mylast@?$_Vector_alloc@U?$_Vec_base_types@PAVRaven_Bot@@V?$allocator@PAVRaven_Bot@@@std@@@std@@@std@@QAEAAPAPAVRaven_Bot@@XZ ; std::_Vector_alloc<std::_Vec_base_types<Raven_Bot *,std::allocator<Raven_Bot *> > >::_Mylast
	mov	eax, DWORD PTR [eax]
	push	eax
	mov	ecx, DWORD PTR _this$[ebp]
	call	??$_Emplace_reallocate@ABQAVRaven_Bot@@@?$vector@PAVRaven_Bot@@V?$allocator@PAVRaven_Bot@@@std@@@std@@QAEPAPAVRaven_Bot@@QAPAV2@ABQAV2@@Z ; std::vector<Raven_Bot *,std::allocator<Raven_Bot *> >::_Emplace_reallocate<Raven_Bot * const &>
	mov	DWORD PTR __Result$[ebp], eax
$LN1@emplace_ba:

; 923  : #if _HAS_CXX17
; 924  : 		return (_Result);
; 925  : #else /* ^^^ _HAS_CXX17 ^^^ // vvv !_HAS_CXX17 vvv */
; 926  : 		(void)_Result;
; 927  : #endif /* _HAS_CXX17 */
; 928  : 		}

	add	esp, 8
	cmp	ebp, esp
	call	__RTC_CheckEsp
	mov	esp, ebp
	pop	ebp
	ret	4
??$emplace_back@ABQAVRaven_Bot@@@?$vector@PAVRaven_Bot@@V?$allocator@PAVRaven_Bot@@@std@@@std@@QAE@ABQAVRaven_Bot@@@Z ENDP ; std::vector<Raven_Bot *,std::allocator<Raven_Bot *> >::emplace_back<Raven_Bot * const &>
_TEXT	ENDS
; Function compile flags: /Odtp /RTCsu
; File d:\utilisateurs\samuel\mes documents\cours\uqac\ia\ravenproject\sources\raven_team.cpp
_TEXT	SEGMENT
_this$ = -4						; size = 4
_new_mate$ = 8						; size = 4
?addTeamMate@Raven_team@@QAEXPAVRaven_Bot@@@Z PROC	; Raven_team::addTeamMate
; _this$ = ecx

; 24   : {

	push	ebp
	mov	ebp, esp
	push	ecx
	mov	DWORD PTR [ebp-4], -858993460		; ccccccccH
	mov	DWORD PTR _this$[ebp], ecx

; 25   : 	team.push_back(new_mate);

	lea	eax, DWORD PTR _new_mate$[ebp]
	push	eax
	mov	ecx, DWORD PTR _this$[ebp]
	call	?push_back@?$vector@PAVRaven_Bot@@V?$allocator@PAVRaven_Bot@@@std@@@std@@QAEXABQAVRaven_Bot@@@Z ; std::vector<Raven_Bot *,std::allocator<Raven_Bot *> >::push_back

; 26   : 	new_mate->SetTeam(this);

	mov	ecx, DWORD PTR _this$[ebp]
	push	ecx
	mov	ecx, DWORD PTR _new_mate$[ebp]
	call	?SetTeam@Raven_Bot@@QAEXPAVRaven_team@@@Z ; Raven_Bot::SetTeam

; 27   : 
; 28   : 	if (leader == NULL) {

	mov	edx, DWORD PTR _this$[ebp]
	cmp	DWORD PTR [edx+32], 0
	jne	SHORT $LN1@addTeamMat

; 29   : 		leader = new_mate;

	mov	eax, DWORD PTR _this$[ebp]
	mov	ecx, DWORD PTR _new_mate$[ebp]
	mov	DWORD PTR [eax+32], ecx
$LN1@addTeamMat:

; 30   : 	}
; 31   : }

	add	esp, 4
	cmp	ebp, esp
	call	__RTC_CheckEsp
	mov	esp, ebp
	pop	ebp
	ret	4
?addTeamMate@Raven_team@@QAEXPAVRaven_Bot@@@Z ENDP	; Raven_team::addTeamMate
_TEXT	ENDS
; Function compile flags: /Odtp /RTCsu
; File d:\utilisateurs\samuel\mes documents\cours\uqac\ia\ravenproject\sources\raven_team.cpp
_TEXT	SEGMENT
_this$ = -4						; size = 4
??1Raven_team@@QAE@XZ PROC				; Raven_team::~Raven_team
; _this$ = ecx

; 20   : {

	push	ebp
	mov	ebp, esp
	push	ecx
	mov	DWORD PTR [ebp-4], -858993460		; ccccccccH
	mov	DWORD PTR _this$[ebp], ecx

; 21   : }

	mov	ecx, DWORD PTR _this$[ebp]
	call	??1?$vector@PAVRaven_Bot@@V?$allocator@PAVRaven_Bot@@@std@@@std@@QAE@XZ ; std::vector<Raven_Bot *,std::allocator<Raven_Bot *> >::~vector<Raven_Bot *,std::allocator<Raven_Bot *> >
	add	esp, 4
	cmp	ebp, esp
	call	__RTC_CheckEsp
	mov	esp, ebp
	pop	ebp
	ret	0
??1Raven_team@@QAE@XZ ENDP				; Raven_team::~Raven_team
_TEXT	ENDS
; Function compile flags: /Odtp /RTCsu
; File d:\utilisateurs\samuel\mes documents\cours\uqac\ia\ravenproject\sources\raven_team.cpp
_TEXT	SEGMENT
_team$ = -24						; size = 16
_this$ = -4						; size = 4
_vec$ = 8						; size = 16
_couleur$ = 24						; size = 1
??0Raven_team@@QAE@UVector2D@@_N@Z PROC			; Raven_team::Raven_team
; _this$ = ecx

; 12   : {

	push	ebp
	mov	ebp, esp
	sub	esp, 28					; 0000001cH
	mov	eax, -858993460				; ccccccccH
	mov	DWORD PTR [ebp-28], eax
	mov	DWORD PTR [ebp-24], eax
	mov	DWORD PTR [ebp-20], eax
	mov	DWORD PTR [ebp-16], eax
	mov	DWORD PTR [ebp-12], eax
	mov	DWORD PTR [ebp-8], eax
	mov	DWORD PTR [ebp-4], eax
	mov	DWORD PTR _this$[ebp], ecx
	mov	ecx, DWORD PTR _this$[ebp]
	call	??0?$vector@PAVRaven_Bot@@V?$allocator@PAVRaven_Bot@@@std@@@std@@QAE@XZ ; std::vector<Raven_Bot *,std::allocator<Raven_Bot *> >::vector<Raven_Bot *,std::allocator<Raven_Bot *> >

; 11   : Raven_team::Raven_team(Vector2D vec, bool couleur) : spawnPoint(vec), isBlue(couleur)

	mov	eax, DWORD PTR _this$[ebp]
	add	eax, 16					; 00000010H
	mov	ecx, DWORD PTR _vec$[ebp]
	mov	DWORD PTR [eax], ecx
	mov	edx, DWORD PTR _vec$[ebp+4]
	mov	DWORD PTR [eax+4], edx
	mov	ecx, DWORD PTR _vec$[ebp+8]
	mov	DWORD PTR [eax+8], ecx
	mov	edx, DWORD PTR _vec$[ebp+12]
	mov	DWORD PTR [eax+12], edx
	mov	eax, DWORD PTR _this$[ebp]
	mov	cl, BYTE PTR _couleur$[ebp]
	mov	BYTE PTR [eax+40], cl

; 13   : 
; 14   : 	std::vector<Raven_Bot *> team =  std::vector<Raven_Bot *>();

	lea	ecx, DWORD PTR _team$[ebp]
	call	??0?$vector@PAVRaven_Bot@@V?$allocator@PAVRaven_Bot@@@std@@@std@@QAE@XZ ; std::vector<Raven_Bot *,std::allocator<Raven_Bot *> >::vector<Raven_Bot *,std::allocator<Raven_Bot *> >

; 15   : 	leader = NULL;

	mov	edx, DWORD PTR _this$[ebp]
	mov	DWORD PTR [edx+32], 0

; 16   : }

	lea	ecx, DWORD PTR _team$[ebp]
	call	??1?$vector@PAVRaven_Bot@@V?$allocator@PAVRaven_Bot@@@std@@@std@@QAE@XZ ; std::vector<Raven_Bot *,std::allocator<Raven_Bot *> >::~vector<Raven_Bot *,std::allocator<Raven_Bot *> >
	mov	eax, DWORD PTR _this$[ebp]
	push	edx
	mov	ecx, ebp
	push	eax
	lea	edx, DWORD PTR $LN7@Raven_team
	call	@_RTC_CheckStackVars@8
	pop	eax
	pop	edx
	add	esp, 28					; 0000001cH
	cmp	ebp, esp
	call	__RTC_CheckEsp
	mov	esp, ebp
	pop	ebp
	ret	20					; 00000014H
	npad	1
$LN7@Raven_team:
	DD	1
	DD	$LN6@Raven_team
$LN6@Raven_team:
	DD	-24					; ffffffe8H
	DD	16					; 00000010H
	DD	$LN5@Raven_team
$LN5@Raven_team:
	DB	116					; 00000074H
	DB	101					; 00000065H
	DB	97					; 00000061H
	DB	109					; 0000006dH
	DB	0
??0Raven_team@@QAE@UVector2D@@_N@Z ENDP			; Raven_team::Raven_team
_TEXT	ENDS
; Function compile flags: /Odtp /RTCsu
; File c:\program files (x86)\microsoft visual studio\2017\enterprise\vc\tools\msvc\14.15.26726\include\vector
;	COMDAT ?_Orphan_range@?$vector@PAVRaven_Bot@@V?$allocator@PAVRaven_Bot@@@std@@@std@@ABEXPAPAVRaven_Bot@@0@Z
_TEXT	SEGMENT
__Pnext$ = -32						; size = 4
__Lock$ = -24						; size = 4
_this$ = -16						; size = 4
__$EHRec$ = -12						; size = 12
__First$ = 8						; size = 4
__Last$ = 12						; size = 4
?_Orphan_range@?$vector@PAVRaven_Bot@@V?$allocator@PAVRaven_Bot@@@std@@@std@@ABEXPAPAVRaven_Bot@@0@Z PROC ; std::vector<Raven_Bot *,std::allocator<Raven_Bot *> >::_Orphan_range, COMDAT
; _this$ = ecx

; 1936 : 		{	// orphan iterators within specified (inclusive) range

	push	ebp
	mov	ebp, esp
	push	-1
	push	__ehhandler$?_Orphan_range@?$vector@PAVRaven_Bot@@V?$allocator@PAVRaven_Bot@@@std@@@std@@ABEXPAPAVRaven_Bot@@0@Z
	mov	eax, DWORD PTR fs:0
	push	eax
	sub	esp, 20					; 00000014H
	mov	eax, -858993460				; ccccccccH
	mov	DWORD PTR [ebp-32], eax
	mov	DWORD PTR [ebp-28], eax
	mov	DWORD PTR [ebp-24], eax
	mov	DWORD PTR [ebp-20], eax
	mov	DWORD PTR [ebp-16], eax
	mov	eax, DWORD PTR ___security_cookie
	xor	eax, ebp
	push	eax
	lea	eax, DWORD PTR __$EHRec$[ebp]
	mov	DWORD PTR fs:0, eax
	mov	DWORD PTR _this$[ebp], ecx

; 1937 : 		_Lockit _Lock(_LOCK_DEBUG);

	push	3
	lea	ecx, DWORD PTR __Lock$[ebp]
	call	??0_Lockit@std@@QAE@H@Z			; std::_Lockit::_Lockit
	mov	DWORD PTR __$EHRec$[ebp+8], 0

; 1938 : 
; 1939 : 		const_iterator ** _Pnext = reinterpret_cast<const_iterator **>(this->_Getpfirst());

	mov	ecx, DWORD PTR _this$[ebp]
	call	?_Getpfirst@?$_Vector_alloc@U?$_Vec_base_types@PAVRaven_Bot@@V?$allocator@PAVRaven_Bot@@@std@@@std@@@std@@QBEPAPAU_Iterator_base12@2@XZ ; std::_Vector_alloc<std::_Vec_base_types<Raven_Bot *,std::allocator<Raven_Bot *> > >::_Getpfirst
	mov	DWORD PTR __Pnext$[ebp], eax

; 1940 : 
; 1941 : 		if (_Pnext)

	cmp	DWORD PTR __Pnext$[ebp], 0
	je	SHORT $LN4@Orphan_ran
$LN2@Orphan_ran:

; 1942 : 			{
; 1943 : 			while (*_Pnext)

	mov	eax, DWORD PTR __Pnext$[ebp]
	cmp	DWORD PTR [eax], 0
	je	SHORT $LN4@Orphan_ran

; 1944 : 				{
; 1945 : 				if ((*_Pnext)->_Ptr < _First || _Last < (*_Pnext)->_Ptr)

	mov	ecx, DWORD PTR __Pnext$[ebp]
	mov	edx, DWORD PTR [ecx]
	mov	eax, DWORD PTR [edx+8]
	cmp	eax, DWORD PTR __First$[ebp]
	jb	SHORT $LN7@Orphan_ran
	mov	ecx, DWORD PTR __Pnext$[ebp]
	mov	edx, DWORD PTR [ecx]
	mov	eax, DWORD PTR __Last$[ebp]
	cmp	eax, DWORD PTR [edx+8]
	jae	SHORT $LN5@Orphan_ran
$LN7@Orphan_ran:

; 1946 : 					{	// skip the iterator
; 1947 : 					_Pnext = reinterpret_cast<const_iterator **>((*_Pnext)->_Getpnext());

	mov	ecx, DWORD PTR __Pnext$[ebp]
	mov	ecx, DWORD PTR [ecx]
	call	?_Getpnext@_Iterator_base12@std@@QAEPAPAU12@XZ ; std::_Iterator_base12::_Getpnext
	mov	DWORD PTR __Pnext$[ebp], eax

; 1948 : 					}
; 1949 : 				else

	jmp	SHORT $LN6@Orphan_ran
$LN5@Orphan_ran:

; 1950 : 					{	// orphan the iterator
; 1951 : 					(*_Pnext)->_Clrcont();

	mov	edx, DWORD PTR __Pnext$[ebp]
	mov	ecx, DWORD PTR [edx]
	call	?_Clrcont@_Iterator_base12@std@@QAEXXZ	; std::_Iterator_base12::_Clrcont

; 1952 : 					*_Pnext = *reinterpret_cast<const_iterator **>((*_Pnext)->_Getpnext());

	mov	eax, DWORD PTR __Pnext$[ebp]
	mov	ecx, DWORD PTR [eax]
	call	?_Getpnext@_Iterator_base12@std@@QAEPAPAU12@XZ ; std::_Iterator_base12::_Getpnext
	mov	ecx, DWORD PTR __Pnext$[ebp]
	mov	edx, DWORD PTR [eax]
	mov	DWORD PTR [ecx], edx
$LN6@Orphan_ran:

; 1953 : 					}
; 1954 : 				}

	jmp	SHORT $LN2@Orphan_ran
$LN4@Orphan_ran:

; 1955 : 			}
; 1956 : 		}

	mov	DWORD PTR __$EHRec$[ebp+8], -1
	lea	ecx, DWORD PTR __Lock$[ebp]
	call	??1_Lockit@std@@QAE@XZ			; std::_Lockit::~_Lockit
	push	edx
	mov	ecx, ebp
	push	eax
	lea	edx, DWORD PTR $LN13@Orphan_ran
	call	@_RTC_CheckStackVars@8
	pop	eax
	pop	edx
	mov	ecx, DWORD PTR __$EHRec$[ebp]
	mov	DWORD PTR fs:0, ecx
	pop	ecx
	add	esp, 32					; 00000020H
	cmp	ebp, esp
	call	__RTC_CheckEsp
	mov	esp, ebp
	pop	ebp
	ret	8
	npad	1
$LN13@Orphan_ran:
	DD	1
	DD	$LN12@Orphan_ran
$LN12@Orphan_ran:
	DD	-24					; ffffffe8H
	DD	4
	DD	$LN10@Orphan_ran
$LN10@Orphan_ran:
	DB	95					; 0000005fH
	DB	76					; 0000004cH
	DB	111					; 0000006fH
	DB	99					; 00000063H
	DB	107					; 0000006bH
	DB	0
_TEXT	ENDS
;	COMDAT text$x
text$x	SEGMENT
__unwindfunclet$?_Orphan_range@?$vector@PAVRaven_Bot@@V?$allocator@PAVRaven_Bot@@@std@@@std@@ABEXPAPAVRaven_Bot@@0@Z$0:
	lea	ecx, DWORD PTR __Lock$[ebp]
	jmp	??1_Lockit@std@@QAE@XZ			; std::_Lockit::~_Lockit
__ehhandler$?_Orphan_range@?$vector@PAVRaven_Bot@@V?$allocator@PAVRaven_Bot@@@std@@@std@@ABEXPAPAVRaven_Bot@@0@Z:
	mov	edx, DWORD PTR [esp+8]
	lea	eax, DWORD PTR [edx+12]
	mov	ecx, DWORD PTR [edx-24]
	xor	ecx, eax
	call	@__security_check_cookie@4
	mov	eax, OFFSET __ehfuncinfo$?_Orphan_range@?$vector@PAVRaven_Bot@@V?$allocator@PAVRaven_Bot@@@std@@@std@@ABEXPAPAVRaven_Bot@@0@Z
	jmp	___CxxFrameHandler3
text$x	ENDS
?_Orphan_range@?$vector@PAVRaven_Bot@@V?$allocator@PAVRaven_Bot@@@std@@@std@@ABEXPAPAVRaven_Bot@@0@Z ENDP ; std::vector<Raven_Bot *,std::allocator<Raven_Bot *> >::_Orphan_range
; Function compile flags: /Odtp /RTCsu
; File c:\program files (x86)\microsoft visual studio\2017\enterprise\vc\tools\msvc\14.15.26726\include\vector
;	COMDAT ?_Xlength@?$vector@PAVRaven_Bot@@V?$allocator@PAVRaven_Bot@@@std@@@std@@CAXXZ
_TEXT	SEGMENT
?_Xlength@?$vector@PAVRaven_Bot@@V?$allocator@PAVRaven_Bot@@@std@@@std@@CAXXZ PROC ; std::vector<Raven_Bot *,std::allocator<Raven_Bot *> >::_Xlength, COMDAT

; 1925 : 		{	// report a length_error

	push	ebp
	mov	ebp, esp

; 1926 : 		_Xlength_error("vector<T> too long");

	push	OFFSET ??_C@_0BD@OLBABOEK@vector?$DMT?$DO?5too?5long@
	call	?_Xlength_error@std@@YAXPBD@Z		; std::_Xlength_error
$LN2@Xlength:

; 1927 : 		}

	cmp	ebp, esp
	call	__RTC_CheckEsp
	pop	ebp
	ret	0
?_Xlength@?$vector@PAVRaven_Bot@@V?$allocator@PAVRaven_Bot@@@std@@@std@@CAXXZ ENDP ; std::vector<Raven_Bot *,std::allocator<Raven_Bot *> >::_Xlength
_TEXT	ENDS
; Function compile flags: /Odtp /RTCsu
; File c:\program files (x86)\microsoft visual studio\2017\enterprise\vc\tools\msvc\14.15.26726\include\vector
;	COMDAT ?_Tidy@?$vector@PAVRaven_Bot@@V?$allocator@PAVRaven_Bot@@@std@@@std@@AAEXXZ
_TEXT	SEGMENT
_this$ = -4						; size = 4
?_Tidy@?$vector@PAVRaven_Bot@@V?$allocator@PAVRaven_Bot@@@std@@@std@@AAEXXZ PROC ; std::vector<Raven_Bot *,std::allocator<Raven_Bot *> >::_Tidy, COMDAT
; _this$ = ecx

; 1910 : 		{	// free all storage

	push	ebp
	mov	ebp, esp
	push	ecx
	mov	DWORD PTR [ebp-4], -858993460		; ccccccccH
	mov	DWORD PTR _this$[ebp], ecx

; 1911 : 		this->_Orphan_all();

	mov	ecx, DWORD PTR _this$[ebp]
	call	?_Orphan_all@?$_Vector_alloc@U?$_Vec_base_types@PAVRaven_Bot@@V?$allocator@PAVRaven_Bot@@@std@@@std@@@std@@QAEXXZ ; std::_Vector_alloc<std::_Vec_base_types<Raven_Bot *,std::allocator<Raven_Bot *> > >::_Orphan_all

; 1912 : 
; 1913 : 		if (this->_Myfirst() != pointer())

	mov	ecx, DWORD PTR _this$[ebp]
	call	?_Myfirst@?$_Vector_alloc@U?$_Vec_base_types@PAVRaven_Bot@@V?$allocator@PAVRaven_Bot@@@std@@@std@@@std@@QAEAAPAPAVRaven_Bot@@XZ ; std::_Vector_alloc<std::_Vec_base_types<Raven_Bot *,std::allocator<Raven_Bot *> > >::_Myfirst
	cmp	DWORD PTR [eax], 0
	je	SHORT $LN1@Tidy

; 1914 : 			{	// destroy and deallocate old array
; 1915 : 			_Destroy(this->_Myfirst(), this->_Mylast());

	mov	ecx, DWORD PTR _this$[ebp]
	call	?_Mylast@?$_Vector_alloc@U?$_Vec_base_types@PAVRaven_Bot@@V?$allocator@PAVRaven_Bot@@@std@@@std@@@std@@QAEAAPAPAVRaven_Bot@@XZ ; std::_Vector_alloc<std::_Vec_base_types<Raven_Bot *,std::allocator<Raven_Bot *> > >::_Mylast
	mov	eax, DWORD PTR [eax]
	push	eax
	mov	ecx, DWORD PTR _this$[ebp]
	call	?_Myfirst@?$_Vector_alloc@U?$_Vec_base_types@PAVRaven_Bot@@V?$allocator@PAVRaven_Bot@@@std@@@std@@@std@@QAEAAPAPAVRaven_Bot@@XZ ; std::_Vector_alloc<std::_Vec_base_types<Raven_Bot *,std::allocator<Raven_Bot *> > >::_Myfirst
	mov	ecx, DWORD PTR [eax]
	push	ecx
	mov	ecx, DWORD PTR _this$[ebp]
	call	?_Destroy@?$vector@PAVRaven_Bot@@V?$allocator@PAVRaven_Bot@@@std@@@std@@AAEXPAPAVRaven_Bot@@0@Z ; std::vector<Raven_Bot *,std::allocator<Raven_Bot *> >::_Destroy

; 1916 : 			this->_Getal().deallocate(this->_Myfirst(), capacity());

	mov	ecx, DWORD PTR _this$[ebp]
	call	?capacity@?$vector@PAVRaven_Bot@@V?$allocator@PAVRaven_Bot@@@std@@@std@@QBEIXZ ; std::vector<Raven_Bot *,std::allocator<Raven_Bot *> >::capacity
	push	eax
	mov	ecx, DWORD PTR _this$[ebp]
	call	?_Myfirst@?$_Vector_alloc@U?$_Vec_base_types@PAVRaven_Bot@@V?$allocator@PAVRaven_Bot@@@std@@@std@@@std@@QAEAAPAPAVRaven_Bot@@XZ ; std::_Vector_alloc<std::_Vec_base_types<Raven_Bot *,std::allocator<Raven_Bot *> > >::_Myfirst
	mov	edx, DWORD PTR [eax]
	push	edx
	mov	ecx, DWORD PTR _this$[ebp]
	call	?_Getal@?$_Vector_alloc@U?$_Vec_base_types@PAVRaven_Bot@@V?$allocator@PAVRaven_Bot@@@std@@@std@@@std@@QAEAAV?$allocator@PAVRaven_Bot@@@2@XZ ; std::_Vector_alloc<std::_Vec_base_types<Raven_Bot *,std::allocator<Raven_Bot *> > >::_Getal
	mov	ecx, eax
	call	?deallocate@?$allocator@PAVRaven_Bot@@@std@@QAEXQAPAVRaven_Bot@@I@Z ; std::allocator<Raven_Bot *>::deallocate

; 1917 : 
; 1918 : 			this->_Myfirst() = pointer();

	mov	ecx, DWORD PTR _this$[ebp]
	call	?_Myfirst@?$_Vector_alloc@U?$_Vec_base_types@PAVRaven_Bot@@V?$allocator@PAVRaven_Bot@@@std@@@std@@@std@@QAEAAPAPAVRaven_Bot@@XZ ; std::_Vector_alloc<std::_Vec_base_types<Raven_Bot *,std::allocator<Raven_Bot *> > >::_Myfirst
	mov	DWORD PTR [eax], 0

; 1919 : 			this->_Mylast() = pointer();

	mov	ecx, DWORD PTR _this$[ebp]
	call	?_Mylast@?$_Vector_alloc@U?$_Vec_base_types@PAVRaven_Bot@@V?$allocator@PAVRaven_Bot@@@std@@@std@@@std@@QAEAAPAPAVRaven_Bot@@XZ ; std::_Vector_alloc<std::_Vec_base_types<Raven_Bot *,std::allocator<Raven_Bot *> > >::_Mylast
	mov	DWORD PTR [eax], 0

; 1920 : 			this->_Myend() = pointer();

	mov	ecx, DWORD PTR _this$[ebp]
	call	?_Myend@?$_Vector_alloc@U?$_Vec_base_types@PAVRaven_Bot@@V?$allocator@PAVRaven_Bot@@@std@@@std@@@std@@QAEAAPAPAVRaven_Bot@@XZ ; std::_Vector_alloc<std::_Vec_base_types<Raven_Bot *,std::allocator<Raven_Bot *> > >::_Myend
	mov	DWORD PTR [eax], 0
$LN1@Tidy:

; 1921 : 			}
; 1922 : 		}

	add	esp, 4
	cmp	ebp, esp
	call	__RTC_CheckEsp
	mov	esp, ebp
	pop	ebp
	ret	0
?_Tidy@?$vector@PAVRaven_Bot@@V?$allocator@PAVRaven_Bot@@@std@@@std@@AAEXXZ ENDP ; std::vector<Raven_Bot *,std::allocator<Raven_Bot *> >::_Tidy
_TEXT	ENDS
; Function compile flags: /Odtp /RTCsu
; File c:\program files (x86)\microsoft visual studio\2017\enterprise\vc\tools\msvc\14.15.26726\include\vector
;	COMDAT ?_Change_array@?$vector@PAVRaven_Bot@@V?$allocator@PAVRaven_Bot@@@std@@@std@@AAEXQAPAVRaven_Bot@@II@Z
_TEXT	SEGMENT
_this$ = -4						; size = 4
__Newvec$ = 8						; size = 4
__Newsize$ = 12						; size = 4
__Newcapacity$ = 16					; size = 4
?_Change_array@?$vector@PAVRaven_Bot@@V?$allocator@PAVRaven_Bot@@@std@@@std@@AAEXQAPAVRaven_Bot@@II@Z PROC ; std::vector<Raven_Bot *,std::allocator<Raven_Bot *> >::_Change_array, COMDAT
; _this$ = ecx

; 1895 : 		{	// orphan all iterators, discard old array, acquire new array

	push	ebp
	mov	ebp, esp
	push	ecx
	push	esi
	mov	DWORD PTR [ebp-4], -858993460		; ccccccccH
	mov	DWORD PTR _this$[ebp], ecx

; 1896 : 		this->_Orphan_all();

	mov	ecx, DWORD PTR _this$[ebp]
	call	?_Orphan_all@?$_Vector_alloc@U?$_Vec_base_types@PAVRaven_Bot@@V?$allocator@PAVRaven_Bot@@@std@@@std@@@std@@QAEXXZ ; std::_Vector_alloc<std::_Vec_base_types<Raven_Bot *,std::allocator<Raven_Bot *> > >::_Orphan_all

; 1897 : 
; 1898 : 		if (this->_Myfirst() != pointer())

	mov	ecx, DWORD PTR _this$[ebp]
	call	?_Myfirst@?$_Vector_alloc@U?$_Vec_base_types@PAVRaven_Bot@@V?$allocator@PAVRaven_Bot@@@std@@@std@@@std@@QAEAAPAPAVRaven_Bot@@XZ ; std::_Vector_alloc<std::_Vec_base_types<Raven_Bot *,std::allocator<Raven_Bot *> > >::_Myfirst
	cmp	DWORD PTR [eax], 0
	je	SHORT $LN2@Change_arr

; 1899 : 			{	// destroy and deallocate old array
; 1900 : 			_Destroy(this->_Myfirst(), this->_Mylast());

	mov	ecx, DWORD PTR _this$[ebp]
	call	?_Mylast@?$_Vector_alloc@U?$_Vec_base_types@PAVRaven_Bot@@V?$allocator@PAVRaven_Bot@@@std@@@std@@@std@@QAEAAPAPAVRaven_Bot@@XZ ; std::_Vector_alloc<std::_Vec_base_types<Raven_Bot *,std::allocator<Raven_Bot *> > >::_Mylast
	mov	eax, DWORD PTR [eax]
	push	eax
	mov	ecx, DWORD PTR _this$[ebp]
	call	?_Myfirst@?$_Vector_alloc@U?$_Vec_base_types@PAVRaven_Bot@@V?$allocator@PAVRaven_Bot@@@std@@@std@@@std@@QAEAAPAPAVRaven_Bot@@XZ ; std::_Vector_alloc<std::_Vec_base_types<Raven_Bot *,std::allocator<Raven_Bot *> > >::_Myfirst
	mov	ecx, DWORD PTR [eax]
	push	ecx
	mov	ecx, DWORD PTR _this$[ebp]
	call	?_Destroy@?$vector@PAVRaven_Bot@@V?$allocator@PAVRaven_Bot@@@std@@@std@@AAEXPAPAVRaven_Bot@@0@Z ; std::vector<Raven_Bot *,std::allocator<Raven_Bot *> >::_Destroy

; 1901 : 			this->_Getal().deallocate(this->_Myfirst(), capacity());

	mov	ecx, DWORD PTR _this$[ebp]
	call	?capacity@?$vector@PAVRaven_Bot@@V?$allocator@PAVRaven_Bot@@@std@@@std@@QBEIXZ ; std::vector<Raven_Bot *,std::allocator<Raven_Bot *> >::capacity
	push	eax
	mov	ecx, DWORD PTR _this$[ebp]
	call	?_Myfirst@?$_Vector_alloc@U?$_Vec_base_types@PAVRaven_Bot@@V?$allocator@PAVRaven_Bot@@@std@@@std@@@std@@QAEAAPAPAVRaven_Bot@@XZ ; std::_Vector_alloc<std::_Vec_base_types<Raven_Bot *,std::allocator<Raven_Bot *> > >::_Myfirst
	mov	edx, DWORD PTR [eax]
	push	edx
	mov	ecx, DWORD PTR _this$[ebp]
	call	?_Getal@?$_Vector_alloc@U?$_Vec_base_types@PAVRaven_Bot@@V?$allocator@PAVRaven_Bot@@@std@@@std@@@std@@QAEAAV?$allocator@PAVRaven_Bot@@@2@XZ ; std::_Vector_alloc<std::_Vec_base_types<Raven_Bot *,std::allocator<Raven_Bot *> > >::_Getal
	mov	ecx, eax
	call	?deallocate@?$allocator@PAVRaven_Bot@@@std@@QAEXQAPAVRaven_Bot@@I@Z ; std::allocator<Raven_Bot *>::deallocate
$LN2@Change_arr:

; 1902 : 			}
; 1903 : 
; 1904 : 		this->_Myfirst() = _Newvec;

	mov	ecx, DWORD PTR _this$[ebp]
	call	?_Myfirst@?$_Vector_alloc@U?$_Vec_base_types@PAVRaven_Bot@@V?$allocator@PAVRaven_Bot@@@std@@@std@@@std@@QAEAAPAPAVRaven_Bot@@XZ ; std::_Vector_alloc<std::_Vec_base_types<Raven_Bot *,std::allocator<Raven_Bot *> > >::_Myfirst
	mov	ecx, DWORD PTR __Newvec$[ebp]
	mov	DWORD PTR [eax], ecx

; 1905 : 		this->_Mylast() = _Newvec + _Newsize;

	mov	edx, DWORD PTR __Newsize$[ebp]
	mov	eax, DWORD PTR __Newvec$[ebp]
	lea	esi, DWORD PTR [eax+edx*4]
	mov	ecx, DWORD PTR _this$[ebp]
	call	?_Mylast@?$_Vector_alloc@U?$_Vec_base_types@PAVRaven_Bot@@V?$allocator@PAVRaven_Bot@@@std@@@std@@@std@@QAEAAPAPAVRaven_Bot@@XZ ; std::_Vector_alloc<std::_Vec_base_types<Raven_Bot *,std::allocator<Raven_Bot *> > >::_Mylast
	mov	DWORD PTR [eax], esi

; 1906 : 		this->_Myend() = _Newvec + _Newcapacity;

	mov	ecx, DWORD PTR __Newcapacity$[ebp]
	mov	edx, DWORD PTR __Newvec$[ebp]
	lea	esi, DWORD PTR [edx+ecx*4]
	mov	ecx, DWORD PTR _this$[ebp]
	call	?_Myend@?$_Vector_alloc@U?$_Vec_base_types@PAVRaven_Bot@@V?$allocator@PAVRaven_Bot@@@std@@@std@@@std@@QAEAAPAPAVRaven_Bot@@XZ ; std::_Vector_alloc<std::_Vec_base_types<Raven_Bot *,std::allocator<Raven_Bot *> > >::_Myend
	mov	DWORD PTR [eax], esi

; 1907 : 		}

	pop	esi
	add	esp, 4
	cmp	ebp, esp
	call	__RTC_CheckEsp
	mov	esp, ebp
	pop	ebp
	ret	12					; 0000000cH
?_Change_array@?$vector@PAVRaven_Bot@@V?$allocator@PAVRaven_Bot@@@std@@@std@@AAEXQAPAVRaven_Bot@@II@Z ENDP ; std::vector<Raven_Bot *,std::allocator<Raven_Bot *> >::_Change_array
_TEXT	ENDS
; Function compile flags: /Odtp /RTCsu
; File c:\program files (x86)\microsoft visual studio\2017\enterprise\vc\tools\msvc\14.15.26726\include\vector
;	COMDAT ?_Calculate_growth@?$vector@PAVRaven_Bot@@V?$allocator@PAVRaven_Bot@@@std@@@std@@ABEII@Z
_TEXT	SEGMENT
__Geometric$ = -12					; size = 4
__Oldcapacity$ = -8					; size = 4
_this$ = -4						; size = 4
__Newsize$ = 8						; size = 4
?_Calculate_growth@?$vector@PAVRaven_Bot@@V?$allocator@PAVRaven_Bot@@@std@@@std@@ABEII@Z PROC ; std::vector<Raven_Bot *,std::allocator<Raven_Bot *> >::_Calculate_growth, COMDAT
; _this$ = ecx

; 1853 : 		{	// given _Oldcapacity and _Newsize, calculate geometric growth

	push	ebp
	mov	ebp, esp
	sub	esp, 12					; 0000000cH
	mov	DWORD PTR [ebp-12], -858993460		; ccccccccH
	mov	DWORD PTR [ebp-8], -858993460		; ccccccccH
	mov	DWORD PTR [ebp-4], -858993460		; ccccccccH
	mov	DWORD PTR _this$[ebp], ecx

; 1854 : 		const size_type _Oldcapacity = capacity();

	mov	ecx, DWORD PTR _this$[ebp]
	call	?capacity@?$vector@PAVRaven_Bot@@V?$allocator@PAVRaven_Bot@@@std@@@std@@QBEIXZ ; std::vector<Raven_Bot *,std::allocator<Raven_Bot *> >::capacity
	mov	DWORD PTR __Oldcapacity$[ebp], eax

; 1855 : 
; 1856 : 		if (_Oldcapacity > max_size() - _Oldcapacity / 2)

	mov	ecx, DWORD PTR _this$[ebp]
	call	?max_size@?$vector@PAVRaven_Bot@@V?$allocator@PAVRaven_Bot@@@std@@@std@@QBEIXZ ; std::vector<Raven_Bot *,std::allocator<Raven_Bot *> >::max_size
	mov	ecx, DWORD PTR __Oldcapacity$[ebp]
	shr	ecx, 1
	sub	eax, ecx
	cmp	DWORD PTR __Oldcapacity$[ebp], eax
	jbe	SHORT $LN2@Calculate_

; 1857 : 			{
; 1858 : 			return (_Newsize);	// geometric growth would overflow

	mov	eax, DWORD PTR __Newsize$[ebp]
	jmp	SHORT $LN1@Calculate_
$LN2@Calculate_:

; 1859 : 			}
; 1860 : 
; 1861 : 		const size_type _Geometric = _Oldcapacity + _Oldcapacity / 2;

	mov	edx, DWORD PTR __Oldcapacity$[ebp]
	shr	edx, 1
	add	edx, DWORD PTR __Oldcapacity$[ebp]
	mov	DWORD PTR __Geometric$[ebp], edx

; 1862 : 
; 1863 : 		if (_Geometric < _Newsize)

	mov	eax, DWORD PTR __Geometric$[ebp]
	cmp	eax, DWORD PTR __Newsize$[ebp]
	jae	SHORT $LN3@Calculate_

; 1864 : 			{
; 1865 : 			return (_Newsize);	// geometric growth would be insufficient

	mov	eax, DWORD PTR __Newsize$[ebp]
	jmp	SHORT $LN1@Calculate_
$LN3@Calculate_:

; 1866 : 			}
; 1867 : 
; 1868 : 		return (_Geometric);	// geometric growth is sufficient

	mov	eax, DWORD PTR __Geometric$[ebp]
$LN1@Calculate_:

; 1869 : 		}

	add	esp, 12					; 0000000cH
	cmp	ebp, esp
	call	__RTC_CheckEsp
	mov	esp, ebp
	pop	ebp
	ret	4
?_Calculate_growth@?$vector@PAVRaven_Bot@@V?$allocator@PAVRaven_Bot@@@std@@@std@@ABEII@Z ENDP ; std::vector<Raven_Bot *,std::allocator<Raven_Bot *> >::_Calculate_growth
_TEXT	ENDS
; Function compile flags: /Odtp /RTCsu
; File c:\program files (x86)\microsoft visual studio\2017\enterprise\vc\tools\msvc\14.15.26726\include\vector
;	COMDAT ?_Destroy@?$vector@PAVRaven_Bot@@V?$allocator@PAVRaven_Bot@@@std@@@std@@AAEXPAPAVRaven_Bot@@0@Z
_TEXT	SEGMENT
_this$ = -4						; size = 4
__First$ = 8						; size = 4
__Last$ = 12						; size = 4
?_Destroy@?$vector@PAVRaven_Bot@@V?$allocator@PAVRaven_Bot@@@std@@@std@@AAEXPAPAVRaven_Bot@@0@Z PROC ; std::vector<Raven_Bot *,std::allocator<Raven_Bot *> >::_Destroy, COMDAT
; _this$ = ecx

; 1848 : 		{	// destroy [_First, _Last) using allocator

	push	ebp
	mov	ebp, esp
	push	ecx
	mov	DWORD PTR [ebp-4], -858993460		; ccccccccH
	mov	DWORD PTR _this$[ebp], ecx

; 1849 : 		_Destroy_range(_First, _Last, this->_Getal());

	mov	ecx, DWORD PTR _this$[ebp]
	call	?_Getal@?$_Vector_alloc@U?$_Vec_base_types@PAVRaven_Bot@@V?$allocator@PAVRaven_Bot@@@std@@@std@@@std@@QAEAAV?$allocator@PAVRaven_Bot@@@2@XZ ; std::_Vector_alloc<std::_Vec_base_types<Raven_Bot *,std::allocator<Raven_Bot *> > >::_Getal
	push	eax
	mov	eax, DWORD PTR __Last$[ebp]
	push	eax
	mov	ecx, DWORD PTR __First$[ebp]
	push	ecx
	call	??$_Destroy_range@V?$allocator@PAVRaven_Bot@@@std@@@std@@YAXPAPAVRaven_Bot@@0AAV?$allocator@PAVRaven_Bot@@@0@@Z ; std::_Destroy_range<std::allocator<Raven_Bot *> >
	add	esp, 12					; 0000000cH

; 1850 : 		}

	add	esp, 4
	cmp	ebp, esp
	call	__RTC_CheckEsp
	mov	esp, ebp
	pop	ebp
	ret	8
?_Destroy@?$vector@PAVRaven_Bot@@V?$allocator@PAVRaven_Bot@@@std@@@std@@AAEXPAPAVRaven_Bot@@0@Z ENDP ; std::vector<Raven_Bot *,std::allocator<Raven_Bot *> >::_Destroy
_TEXT	ENDS
; Function compile flags: /Odtp /RTCsu
; File c:\program files (x86)\microsoft visual studio\2017\enterprise\vc\tools\msvc\14.15.26726\include\vector
;	COMDAT ?_Umove_if_noexcept@?$vector@PAVRaven_Bot@@V?$allocator@PAVRaven_Bot@@@std@@@std@@AAEXPAPAVRaven_Bot@@00@Z
_TEXT	SEGMENT
$T1 = -5						; size = 1
_this$ = -4						; size = 4
__First$ = 8						; size = 4
__Last$ = 12						; size = 4
__Dest$ = 16						; size = 4
?_Umove_if_noexcept@?$vector@PAVRaven_Bot@@V?$allocator@PAVRaven_Bot@@@std@@@std@@AAEXPAPAVRaven_Bot@@00@Z PROC ; std::vector<Raven_Bot *,std::allocator<Raven_Bot *> >::_Umove_if_noexcept, COMDAT
; _this$ = ecx

; 1842 : 		{	// move_if_noexcept [_First, _Last) to raw _Dest, using allocator

	push	ebp
	mov	ebp, esp
	sub	esp, 8
	mov	DWORD PTR [ebp-8], -858993460		; ccccccccH
	mov	DWORD PTR [ebp-4], -858993460		; ccccccccH
	mov	DWORD PTR _this$[ebp], ecx

; 1843 : 		_Umove_if_noexcept1(_First, _Last, _Dest,

	xor	eax, eax
	mov	BYTE PTR $T1[ebp], al
	movzx	ecx, BYTE PTR $T1[ebp]
	push	ecx
	mov	edx, DWORD PTR __Dest$[ebp]
	push	edx
	mov	eax, DWORD PTR __Last$[ebp]
	push	eax
	mov	ecx, DWORD PTR __First$[ebp]
	push	ecx
	mov	ecx, DWORD PTR _this$[ebp]
	call	?_Umove_if_noexcept1@?$vector@PAVRaven_Bot@@V?$allocator@PAVRaven_Bot@@@std@@@std@@AAEXPAPAVRaven_Bot@@00U?$integral_constant@_N$00@2@@Z ; std::vector<Raven_Bot *,std::allocator<Raven_Bot *> >::_Umove_if_noexcept1

; 1844 : 			bool_constant<disjunction_v<is_nothrow_move_constructible<_Ty>, negation<is_copy_constructible<_Ty>>>>{});
; 1845 : 		}

	add	esp, 8
	cmp	ebp, esp
	call	__RTC_CheckEsp
	mov	esp, ebp
	pop	ebp
	ret	12					; 0000000cH
?_Umove_if_noexcept@?$vector@PAVRaven_Bot@@V?$allocator@PAVRaven_Bot@@@std@@@std@@AAEXPAPAVRaven_Bot@@00@Z ENDP ; std::vector<Raven_Bot *,std::allocator<Raven_Bot *> >::_Umove_if_noexcept
_TEXT	ENDS
; Function compile flags: /Odtp /RTCsu
; File c:\program files (x86)\microsoft visual studio\2017\enterprise\vc\tools\msvc\14.15.26726\include\vector
;	COMDAT ?_Umove_if_noexcept1@?$vector@PAVRaven_Bot@@V?$allocator@PAVRaven_Bot@@@std@@@std@@AAEXPAPAVRaven_Bot@@00U?$integral_constant@_N$00@2@@Z
_TEXT	SEGMENT
_this$ = -4						; size = 4
__First$ = 8						; size = 4
__Last$ = 12						; size = 4
__Dest$ = 16						; size = 4
___formal$ = 20						; size = 1
?_Umove_if_noexcept1@?$vector@PAVRaven_Bot@@V?$allocator@PAVRaven_Bot@@@std@@@std@@AAEXPAPAVRaven_Bot@@00U?$integral_constant@_N$00@2@@Z PROC ; std::vector<Raven_Bot *,std::allocator<Raven_Bot *> >::_Umove_if_noexcept1, COMDAT
; _this$ = ecx

; 1832 : 		{	// move [_First, _Last) to raw _Dest, using allocator

	push	ebp
	mov	ebp, esp
	push	ecx
	mov	DWORD PTR [ebp-4], -858993460		; ccccccccH
	mov	DWORD PTR _this$[ebp], ecx

; 1833 : 		_Uninitialized_move(_First, _Last, _Dest, this->_Getal());

	mov	ecx, DWORD PTR _this$[ebp]
	call	?_Getal@?$_Vector_alloc@U?$_Vec_base_types@PAVRaven_Bot@@V?$allocator@PAVRaven_Bot@@@std@@@std@@@std@@QAEAAV?$allocator@PAVRaven_Bot@@@2@XZ ; std::_Vector_alloc<std::_Vec_base_types<Raven_Bot *,std::allocator<Raven_Bot *> > >::_Getal
	push	eax
	mov	eax, DWORD PTR __Dest$[ebp]
	push	eax
	mov	ecx, DWORD PTR __Last$[ebp]
	push	ecx
	mov	edx, DWORD PTR __First$[ebp]
	push	edx
	call	??$_Uninitialized_move@PAPAVRaven_Bot@@PAPAV1@V?$allocator@PAVRaven_Bot@@@std@@@std@@YAPAPAVRaven_Bot@@QAPAV1@0PAPAV1@AAV?$allocator@PAVRaven_Bot@@@0@@Z ; std::_Uninitialized_move<Raven_Bot * *,Raven_Bot * *,std::allocator<Raven_Bot *> >
	add	esp, 16					; 00000010H

; 1834 : 		}

	add	esp, 4
	cmp	ebp, esp
	call	__RTC_CheckEsp
	mov	esp, ebp
	pop	ebp
	ret	16					; 00000010H
?_Umove_if_noexcept1@?$vector@PAVRaven_Bot@@V?$allocator@PAVRaven_Bot@@@std@@@std@@AAEXPAPAVRaven_Bot@@00U?$integral_constant@_N$00@2@@Z ENDP ; std::vector<Raven_Bot *,std::allocator<Raven_Bot *> >::_Umove_if_noexcept1
_TEXT	ENDS
; Function compile flags: /Odtp /RTCsu
; File c:\program files (x86)\microsoft visual studio\2017\enterprise\vc\tools\msvc\14.15.26726\include\vector
;	COMDAT ?_Umove@?$vector@PAVRaven_Bot@@V?$allocator@PAVRaven_Bot@@@std@@@std@@AAEPAPAVRaven_Bot@@PAPAV3@00@Z
_TEXT	SEGMENT
_this$ = -4						; size = 4
__First$ = 8						; size = 4
__Last$ = 12						; size = 4
__Dest$ = 16						; size = 4
?_Umove@?$vector@PAVRaven_Bot@@V?$allocator@PAVRaven_Bot@@@std@@@std@@AAEPAPAVRaven_Bot@@PAPAV3@00@Z PROC ; std::vector<Raven_Bot *,std::allocator<Raven_Bot *> >::_Umove, COMDAT
; _this$ = ecx

; 1827 : 		{	// move [_First, _Last) to raw _Dest, using allocator

	push	ebp
	mov	ebp, esp
	push	ecx
	mov	DWORD PTR [ebp-4], -858993460		; ccccccccH
	mov	DWORD PTR _this$[ebp], ecx

; 1828 : 		return (_Uninitialized_move(_First, _Last, _Dest, this->_Getal()));

	mov	ecx, DWORD PTR _this$[ebp]
	call	?_Getal@?$_Vector_alloc@U?$_Vec_base_types@PAVRaven_Bot@@V?$allocator@PAVRaven_Bot@@@std@@@std@@@std@@QAEAAV?$allocator@PAVRaven_Bot@@@2@XZ ; std::_Vector_alloc<std::_Vec_base_types<Raven_Bot *,std::allocator<Raven_Bot *> > >::_Getal
	push	eax
	mov	eax, DWORD PTR __Dest$[ebp]
	push	eax
	mov	ecx, DWORD PTR __Last$[ebp]
	push	ecx
	mov	edx, DWORD PTR __First$[ebp]
	push	edx
	call	??$_Uninitialized_move@PAPAVRaven_Bot@@PAPAV1@V?$allocator@PAVRaven_Bot@@@std@@@std@@YAPAPAVRaven_Bot@@QAPAV1@0PAPAV1@AAV?$allocator@PAVRaven_Bot@@@0@@Z ; std::_Uninitialized_move<Raven_Bot * *,Raven_Bot * *,std::allocator<Raven_Bot *> >
	add	esp, 16					; 00000010H

; 1829 : 		}

	add	esp, 4
	cmp	ebp, esp
	call	__RTC_CheckEsp
	mov	esp, ebp
	pop	ebp
	ret	12					; 0000000cH
?_Umove@?$vector@PAVRaven_Bot@@V?$allocator@PAVRaven_Bot@@@std@@@std@@AAEPAPAVRaven_Bot@@PAPAV3@00@Z ENDP ; std::vector<Raven_Bot *,std::allocator<Raven_Bot *> >::_Umove
_TEXT	ENDS
; Function compile flags: /Odtp /RTCsu
; File c:\program files (x86)\microsoft visual studio\2017\enterprise\vc\tools\msvc\14.15.26726\include\vector
;	COMDAT ?_Has_unused_capacity@?$vector@PAVRaven_Bot@@V?$allocator@PAVRaven_Bot@@@std@@@std@@ABE_NXZ
_TEXT	SEGMENT
tv77 = -8						; size = 4
_this$ = -4						; size = 4
?_Has_unused_capacity@?$vector@PAVRaven_Bot@@V?$allocator@PAVRaven_Bot@@@std@@@std@@ABE_NXZ PROC ; std::vector<Raven_Bot *,std::allocator<Raven_Bot *> >::_Has_unused_capacity, COMDAT
; _this$ = ecx

; 1725 : 		{	// micro-optimization for capacity() != size()

	push	ebp
	mov	ebp, esp
	sub	esp, 8
	push	esi
	mov	DWORD PTR [ebp-8], -858993460		; ccccccccH
	mov	DWORD PTR [ebp-4], -858993460		; ccccccccH
	mov	DWORD PTR _this$[ebp], ecx

; 1726 : 		return (this->_Myend() != this->_Mylast());

	mov	ecx, DWORD PTR _this$[ebp]
	call	?_Myend@?$_Vector_alloc@U?$_Vec_base_types@PAVRaven_Bot@@V?$allocator@PAVRaven_Bot@@@std@@@std@@@std@@QBEABQAPAVRaven_Bot@@XZ ; std::_Vector_alloc<std::_Vec_base_types<Raven_Bot *,std::allocator<Raven_Bot *> > >::_Myend
	mov	esi, eax
	mov	ecx, DWORD PTR _this$[ebp]
	call	?_Mylast@?$_Vector_alloc@U?$_Vec_base_types@PAVRaven_Bot@@V?$allocator@PAVRaven_Bot@@@std@@@std@@@std@@QBEABQAPAVRaven_Bot@@XZ ; std::_Vector_alloc<std::_Vec_base_types<Raven_Bot *,std::allocator<Raven_Bot *> > >::_Mylast
	mov	ecx, DWORD PTR [esi]
	cmp	ecx, DWORD PTR [eax]
	je	SHORT $LN3@Has_unused
	mov	DWORD PTR tv77[ebp], 1
	jmp	SHORT $LN4@Has_unused
$LN3@Has_unused:
	mov	DWORD PTR tv77[ebp], 0
$LN4@Has_unused:
	mov	al, BYTE PTR tv77[ebp]

; 1727 : 		}

	pop	esi
	add	esp, 8
	cmp	ebp, esp
	call	__RTC_CheckEsp
	mov	esp, ebp
	pop	ebp
	ret	0
?_Has_unused_capacity@?$vector@PAVRaven_Bot@@V?$allocator@PAVRaven_Bot@@@std@@@std@@ABE_NXZ ENDP ; std::vector<Raven_Bot *,std::allocator<Raven_Bot *> >::_Has_unused_capacity
_TEXT	ENDS
; Function compile flags: /Odtp /RTCsu
; File c:\program files (x86)\microsoft visual studio\2017\enterprise\vc\tools\msvc\14.15.26726\include\vector
;	COMDAT ?capacity@?$vector@PAVRaven_Bot@@V?$allocator@PAVRaven_Bot@@@std@@@std@@QBEIXZ
_TEXT	SEGMENT
_this$ = -4						; size = 4
?capacity@?$vector@PAVRaven_Bot@@V?$allocator@PAVRaven_Bot@@@std@@@std@@QBEIXZ PROC ; std::vector<Raven_Bot *,std::allocator<Raven_Bot *> >::capacity, COMDAT
; _this$ = ecx

; 1714 : 		{	// return current length of allocated storage

	push	ebp
	mov	ebp, esp
	push	ecx
	push	esi
	mov	DWORD PTR [ebp-4], -858993460		; ccccccccH
	mov	DWORD PTR _this$[ebp], ecx

; 1715 : 		return (static_cast<size_type>(this->_Myend() - this->_Myfirst()));

	mov	ecx, DWORD PTR _this$[ebp]
	call	?_Myend@?$_Vector_alloc@U?$_Vec_base_types@PAVRaven_Bot@@V?$allocator@PAVRaven_Bot@@@std@@@std@@@std@@QBEABQAPAVRaven_Bot@@XZ ; std::_Vector_alloc<std::_Vec_base_types<Raven_Bot *,std::allocator<Raven_Bot *> > >::_Myend
	mov	esi, eax
	mov	ecx, DWORD PTR _this$[ebp]
	call	?_Myfirst@?$_Vector_alloc@U?$_Vec_base_types@PAVRaven_Bot@@V?$allocator@PAVRaven_Bot@@@std@@@std@@@std@@QBEABQAPAVRaven_Bot@@XZ ; std::_Vector_alloc<std::_Vec_base_types<Raven_Bot *,std::allocator<Raven_Bot *> > >::_Myfirst
	mov	ecx, DWORD PTR [esi]
	sub	ecx, DWORD PTR [eax]
	sar	ecx, 2
	mov	eax, ecx

; 1716 : 		}

	pop	esi
	add	esp, 4
	cmp	ebp, esp
	call	__RTC_CheckEsp
	mov	esp, ebp
	pop	ebp
	ret	0
?capacity@?$vector@PAVRaven_Bot@@V?$allocator@PAVRaven_Bot@@@std@@@std@@QBEIXZ ENDP ; std::vector<Raven_Bot *,std::allocator<Raven_Bot *> >::capacity
_TEXT	ENDS
; Function compile flags: /Odtp /RTCsu
; File c:\program files (x86)\microsoft visual studio\2017\enterprise\vc\tools\msvc\14.15.26726\include\vector
;	COMDAT ?max_size@?$vector@PAVRaven_Bot@@V?$allocator@PAVRaven_Bot@@@std@@@std@@QBEIXZ
_TEXT	SEGMENT
$T1 = -12						; size = 4
$T2 = -8						; size = 4
_this$ = -4						; size = 4
?max_size@?$vector@PAVRaven_Bot@@V?$allocator@PAVRaven_Bot@@@std@@@std@@QBEIXZ PROC ; std::vector<Raven_Bot *,std::allocator<Raven_Bot *> >::max_size, COMDAT
; _this$ = ecx

; 1708 : 		{	// return maximum possible length of sequence

	push	ebp
	mov	ebp, esp
	sub	esp, 12					; 0000000cH
	mov	DWORD PTR [ebp-12], -858993460		; ccccccccH
	mov	DWORD PTR [ebp-8], -858993460		; ccccccccH
	mov	DWORD PTR [ebp-4], -858993460		; ccccccccH
	mov	DWORD PTR _this$[ebp], ecx

; 1709 : 		return (_Min_value(static_cast<size_type>((numeric_limits<difference_type>::max)()),

	mov	ecx, DWORD PTR _this$[ebp]
	call	?_Getal@?$_Vector_alloc@U?$_Vec_base_types@PAVRaven_Bot@@V?$allocator@PAVRaven_Bot@@@std@@@std@@@std@@QBEABV?$allocator@PAVRaven_Bot@@@2@XZ ; std::_Vector_alloc<std::_Vec_base_types<Raven_Bot *,std::allocator<Raven_Bot *> > >::_Getal
	push	eax
	call	?max_size@?$_Default_allocator_traits@V?$allocator@PAVRaven_Bot@@@std@@@std@@SAIABV?$allocator@PAVRaven_Bot@@@2@@Z ; std::_Default_allocator_traits<std::allocator<Raven_Bot *> >::max_size
	add	esp, 4
	mov	DWORD PTR $T2[ebp], eax
	call	?max@?$numeric_limits@H@std@@SAHXZ	; std::numeric_limits<int>::max
	mov	DWORD PTR $T1[ebp], eax
	lea	eax, DWORD PTR $T2[ebp]
	push	eax
	lea	ecx, DWORD PTR $T1[ebp]
	push	ecx
	call	??$_Min_value@I@std@@YAABIABI0@Z	; std::_Min_value<unsigned int>
	add	esp, 8
	mov	eax, DWORD PTR [eax]

; 1710 : 			_Alty_traits::max_size(this->_Getal())));
; 1711 : 		}

	add	esp, 12					; 0000000cH
	cmp	ebp, esp
	call	__RTC_CheckEsp
	mov	esp, ebp
	pop	ebp
	ret	0
?max_size@?$vector@PAVRaven_Bot@@V?$allocator@PAVRaven_Bot@@@std@@@std@@QBEIXZ ENDP ; std::vector<Raven_Bot *,std::allocator<Raven_Bot *> >::max_size
_TEXT	ENDS
; Function compile flags: /Odtp /RTCsu
; File c:\program files (x86)\microsoft visual studio\2017\enterprise\vc\tools\msvc\14.15.26726\include\vector
;	COMDAT ?size@?$vector@PAVRaven_Bot@@V?$allocator@PAVRaven_Bot@@@std@@@std@@QBEIXZ
_TEXT	SEGMENT
_this$ = -4						; size = 4
?size@?$vector@PAVRaven_Bot@@V?$allocator@PAVRaven_Bot@@@std@@@std@@QBEIXZ PROC ; std::vector<Raven_Bot *,std::allocator<Raven_Bot *> >::size, COMDAT
; _this$ = ecx

; 1703 : 		{	// return length of sequence

	push	ebp
	mov	ebp, esp
	push	ecx
	push	esi
	mov	DWORD PTR [ebp-4], -858993460		; ccccccccH
	mov	DWORD PTR _this$[ebp], ecx

; 1704 : 		return (static_cast<size_type>(this->_Mylast() - this->_Myfirst()));

	mov	ecx, DWORD PTR _this$[ebp]
	call	?_Mylast@?$_Vector_alloc@U?$_Vec_base_types@PAVRaven_Bot@@V?$allocator@PAVRaven_Bot@@@std@@@std@@@std@@QBEABQAPAVRaven_Bot@@XZ ; std::_Vector_alloc<std::_Vec_base_types<Raven_Bot *,std::allocator<Raven_Bot *> > >::_Mylast
	mov	esi, eax
	mov	ecx, DWORD PTR _this$[ebp]
	call	?_Myfirst@?$_Vector_alloc@U?$_Vec_base_types@PAVRaven_Bot@@V?$allocator@PAVRaven_Bot@@@std@@@std@@@std@@QBEABQAPAVRaven_Bot@@XZ ; std::_Vector_alloc<std::_Vec_base_types<Raven_Bot *,std::allocator<Raven_Bot *> > >::_Myfirst
	mov	ecx, DWORD PTR [esi]
	sub	ecx, DWORD PTR [eax]
	sar	ecx, 2
	mov	eax, ecx

; 1705 : 		}

	pop	esi
	add	esp, 4
	cmp	ebp, esp
	call	__RTC_CheckEsp
	mov	esp, ebp
	pop	ebp
	ret	0
?size@?$vector@PAVRaven_Bot@@V?$allocator@PAVRaven_Bot@@@std@@@std@@QBEIXZ ENDP ; std::vector<Raven_Bot *,std::allocator<Raven_Bot *> >::size
_TEXT	ENDS
; Function compile flags: /Odtp /RTCsu
; File c:\program files (x86)\microsoft visual studio\2017\enterprise\vc\tools\msvc\14.15.26726\include\vector
;	COMDAT ?push_back@?$vector@PAVRaven_Bot@@V?$allocator@PAVRaven_Bot@@@std@@@std@@QAEXABQAVRaven_Bot@@@Z
_TEXT	SEGMENT
_this$ = -4						; size = 4
__Val$ = 8						; size = 4
?push_back@?$vector@PAVRaven_Bot@@V?$allocator@PAVRaven_Bot@@@std@@@std@@QAEXABQAVRaven_Bot@@@Z PROC ; std::vector<Raven_Bot *,std::allocator<Raven_Bot *> >::push_back, COMDAT
; _this$ = ecx

; 931  : 		{	// insert element at end, provide strong guarantee

	push	ebp
	mov	ebp, esp
	push	ecx
	mov	DWORD PTR [ebp-4], -858993460		; ccccccccH
	mov	DWORD PTR _this$[ebp], ecx

; 932  : 		emplace_back(_Val);

	mov	eax, DWORD PTR __Val$[ebp]
	push	eax
	mov	ecx, DWORD PTR _this$[ebp]
	call	??$emplace_back@ABQAVRaven_Bot@@@?$vector@PAVRaven_Bot@@V?$allocator@PAVRaven_Bot@@@std@@@std@@QAE@ABQAVRaven_Bot@@@Z ; std::vector<Raven_Bot *,std::allocator<Raven_Bot *> >::emplace_back<Raven_Bot * const &>

; 933  : 		}

	add	esp, 4
	cmp	ebp, esp
	call	__RTC_CheckEsp
	mov	esp, ebp
	pop	ebp
	ret	4
?push_back@?$vector@PAVRaven_Bot@@V?$allocator@PAVRaven_Bot@@@std@@@std@@QAEXABQAVRaven_Bot@@@Z ENDP ; std::vector<Raven_Bot *,std::allocator<Raven_Bot *> >::push_back
_TEXT	ENDS
; Function compile flags: /Odtp /RTCsu
; File c:\program files (x86)\microsoft visual studio\2017\enterprise\vc\tools\msvc\14.15.26726\include\vector
;	COMDAT ??1?$vector@PAVRaven_Bot@@V?$allocator@PAVRaven_Bot@@@std@@@std@@QAE@XZ
_TEXT	SEGMENT
_this$ = -16						; size = 4
__$EHRec$ = -12						; size = 12
??1?$vector@PAVRaven_Bot@@V?$allocator@PAVRaven_Bot@@@std@@@std@@QAE@XZ PROC ; std::vector<Raven_Bot *,std::allocator<Raven_Bot *> >::~vector<Raven_Bot *,std::allocator<Raven_Bot *> >, COMDAT
; _this$ = ecx

; 893  : 		{	// destroy the object

	push	ebp
	mov	ebp, esp
	push	-1
	push	__ehhandler$??1?$vector@PAVRaven_Bot@@V?$allocator@PAVRaven_Bot@@@std@@@std@@QAE@XZ
	mov	eax, DWORD PTR fs:0
	push	eax
	push	ecx
	mov	DWORD PTR [ebp-16], -858993460		; ccccccccH
	mov	eax, DWORD PTR ___security_cookie
	xor	eax, ebp
	push	eax
	lea	eax, DWORD PTR __$EHRec$[ebp]
	mov	DWORD PTR fs:0, eax
	mov	DWORD PTR _this$[ebp], ecx

; 894  : 		_Tidy();

	mov	ecx, DWORD PTR _this$[ebp]
	call	?_Tidy@?$vector@PAVRaven_Bot@@V?$allocator@PAVRaven_Bot@@@std@@@std@@AAEXXZ ; std::vector<Raven_Bot *,std::allocator<Raven_Bot *> >::_Tidy

; 895  : 		}

	mov	ecx, DWORD PTR _this$[ebp]
	call	??1?$_Vector_alloc@U?$_Vec_base_types@PAVRaven_Bot@@V?$allocator@PAVRaven_Bot@@@std@@@std@@@std@@QAE@XZ ; std::_Vector_alloc<std::_Vec_base_types<Raven_Bot *,std::allocator<Raven_Bot *> > >::~_Vector_alloc<std::_Vec_base_types<Raven_Bot *,std::allocator<Raven_Bot *> > >
	mov	ecx, DWORD PTR __$EHRec$[ebp]
	mov	DWORD PTR fs:0, ecx
	pop	ecx
	add	esp, 16					; 00000010H
	cmp	ebp, esp
	call	__RTC_CheckEsp
	mov	esp, ebp
	pop	ebp
	ret	0
_TEXT	ENDS
;	COMDAT text$x
text$x	SEGMENT
__ehhandler$??1?$vector@PAVRaven_Bot@@V?$allocator@PAVRaven_Bot@@@std@@@std@@QAE@XZ:
	mov	edx, DWORD PTR [esp+8]
	lea	eax, DWORD PTR [edx+12]
	mov	ecx, DWORD PTR [edx-8]
	xor	ecx, eax
	call	@__security_check_cookie@4
	mov	eax, OFFSET __ehfuncinfo$??1?$vector@PAVRaven_Bot@@V?$allocator@PAVRaven_Bot@@@std@@@std@@QAE@XZ
	jmp	___CxxFrameHandler3
text$x	ENDS
??1?$vector@PAVRaven_Bot@@V?$allocator@PAVRaven_Bot@@@std@@@std@@QAE@XZ ENDP ; std::vector<Raven_Bot *,std::allocator<Raven_Bot *> >::~vector<Raven_Bot *,std::allocator<Raven_Bot *> >
; Function compile flags: /Odtp /RTCsu
; File c:\program files (x86)\microsoft visual studio\2017\enterprise\vc\tools\msvc\14.15.26726\include\vector
;	COMDAT ??0?$vector@PAVRaven_Bot@@V?$allocator@PAVRaven_Bot@@@std@@@std@@QAE@XZ
_TEXT	SEGMENT
_this$ = -16						; size = 4
__$EHRec$ = -12						; size = 12
??0?$vector@PAVRaven_Bot@@V?$allocator@PAVRaven_Bot@@@std@@@std@@QAE@XZ PROC ; std::vector<Raven_Bot *,std::allocator<Raven_Bot *> >::vector<Raven_Bot *,std::allocator<Raven_Bot *> >, COMDAT
; _this$ = ecx

; 651  : 		{	// construct empty vector

	push	ebp
	mov	ebp, esp
	push	-1
	push	__ehhandler$??0?$vector@PAVRaven_Bot@@V?$allocator@PAVRaven_Bot@@@std@@@std@@QAE@XZ
	mov	eax, DWORD PTR fs:0
	push	eax
	push	ecx
	mov	DWORD PTR [ebp-16], -858993460		; ccccccccH
	mov	eax, DWORD PTR ___security_cookie
	xor	eax, ebp
	push	eax
	lea	eax, DWORD PTR __$EHRec$[ebp]
	mov	DWORD PTR fs:0, eax
	mov	DWORD PTR _this$[ebp], ecx

; 650  : 		: _Mybase()

	mov	ecx, DWORD PTR _this$[ebp]
	call	??0?$_Vector_alloc@U?$_Vec_base_types@PAVRaven_Bot@@V?$allocator@PAVRaven_Bot@@@std@@@std@@@std@@QAE@XZ ; std::_Vector_alloc<std::_Vec_base_types<Raven_Bot *,std::allocator<Raven_Bot *> > >::_Vector_alloc<std::_Vec_base_types<Raven_Bot *,std::allocator<Raven_Bot *> > >

; 652  : 		}

	mov	eax, DWORD PTR _this$[ebp]
	mov	ecx, DWORD PTR __$EHRec$[ebp]
	mov	DWORD PTR fs:0, ecx
	pop	ecx
	add	esp, 16					; 00000010H
	cmp	ebp, esp
	call	__RTC_CheckEsp
	mov	esp, ebp
	pop	ebp
	ret	0
_TEXT	ENDS
;	COMDAT text$x
text$x	SEGMENT
__ehhandler$??0?$vector@PAVRaven_Bot@@V?$allocator@PAVRaven_Bot@@@std@@@std@@QAE@XZ:
	mov	edx, DWORD PTR [esp+8]
	lea	eax, DWORD PTR [edx+12]
	mov	ecx, DWORD PTR [edx-8]
	xor	ecx, eax
	call	@__security_check_cookie@4
	mov	eax, OFFSET __ehfuncinfo$??0?$vector@PAVRaven_Bot@@V?$allocator@PAVRaven_Bot@@@std@@@std@@QAE@XZ
	jmp	___CxxFrameHandler3
text$x	ENDS
??0?$vector@PAVRaven_Bot@@V?$allocator@PAVRaven_Bot@@@std@@@std@@QAE@XZ ENDP ; std::vector<Raven_Bot *,std::allocator<Raven_Bot *> >::vector<Raven_Bot *,std::allocator<Raven_Bot *> >
; Function compile flags: /Odtp /RTCsu
; File c:\program files (x86)\microsoft visual studio\2017\enterprise\vc\tools\msvc\14.15.26726\include\xutility
;	COMDAT ?_Get_second@?$_Compressed_pair@V?$allocator@PAVRaven_Bot@@@std@@V?$_Vector_val@U?$_Simple_types@PAVRaven_Bot@@@std@@@2@$00@std@@QBEABV?$_Vector_val@U?$_Simple_types@PAVRaven_Bot@@@std@@@2@XZ
_TEXT	SEGMENT
_this$ = -4						; size = 4
?_Get_second@?$_Compressed_pair@V?$allocator@PAVRaven_Bot@@@std@@V?$_Vector_val@U?$_Simple_types@PAVRaven_Bot@@@std@@@2@$00@std@@QBEABV?$_Vector_val@U?$_Simple_types@PAVRaven_Bot@@@std@@@2@XZ PROC ; std::_Compressed_pair<std::allocator<Raven_Bot *>,std::_Vector_val<std::_Simple_types<Raven_Bot *> >,1>::_Get_second, COMDAT
; _this$ = ecx

; 306  : 		{	// return const reference to second

	push	ebp
	mov	ebp, esp
	push	ecx
	mov	DWORD PTR [ebp-4], -858993460		; ccccccccH
	mov	DWORD PTR _this$[ebp], ecx

; 307  : 		return (_Myval2);

	mov	eax, DWORD PTR _this$[ebp]

; 308  : 		}

	mov	esp, ebp
	pop	ebp
	ret	0
?_Get_second@?$_Compressed_pair@V?$allocator@PAVRaven_Bot@@@std@@V?$_Vector_val@U?$_Simple_types@PAVRaven_Bot@@@std@@@2@$00@std@@QBEABV?$_Vector_val@U?$_Simple_types@PAVRaven_Bot@@@std@@@2@XZ ENDP ; std::_Compressed_pair<std::allocator<Raven_Bot *>,std::_Vector_val<std::_Simple_types<Raven_Bot *> >,1>::_Get_second
_TEXT	ENDS
; Function compile flags: /Odtp /RTCsu
; File c:\program files (x86)\microsoft visual studio\2017\enterprise\vc\tools\msvc\14.15.26726\include\xutility
;	COMDAT ?_Get_second@?$_Compressed_pair@V?$allocator@PAVRaven_Bot@@@std@@V?$_Vector_val@U?$_Simple_types@PAVRaven_Bot@@@std@@@2@$00@std@@QAEAAV?$_Vector_val@U?$_Simple_types@PAVRaven_Bot@@@std@@@2@XZ
_TEXT	SEGMENT
_this$ = -4						; size = 4
?_Get_second@?$_Compressed_pair@V?$allocator@PAVRaven_Bot@@@std@@V?$_Vector_val@U?$_Simple_types@PAVRaven_Bot@@@std@@@2@$00@std@@QAEAAV?$_Vector_val@U?$_Simple_types@PAVRaven_Bot@@@std@@@2@XZ PROC ; std::_Compressed_pair<std::allocator<Raven_Bot *>,std::_Vector_val<std::_Simple_types<Raven_Bot *> >,1>::_Get_second, COMDAT
; _this$ = ecx

; 301  : 		{	// return reference to second

	push	ebp
	mov	ebp, esp
	push	ecx
	mov	DWORD PTR [ebp-4], -858993460		; ccccccccH
	mov	DWORD PTR _this$[ebp], ecx

; 302  : 		return (_Myval2);

	mov	eax, DWORD PTR _this$[ebp]

; 303  : 		}

	mov	esp, ebp
	pop	ebp
	ret	0
?_Get_second@?$_Compressed_pair@V?$allocator@PAVRaven_Bot@@@std@@V?$_Vector_val@U?$_Simple_types@PAVRaven_Bot@@@std@@@2@$00@std@@QAEAAV?$_Vector_val@U?$_Simple_types@PAVRaven_Bot@@@std@@@2@XZ ENDP ; std::_Compressed_pair<std::allocator<Raven_Bot *>,std::_Vector_val<std::_Simple_types<Raven_Bot *> >,1>::_Get_second
_TEXT	ENDS
; Function compile flags: /Odtp /RTCsu
; File c:\program files (x86)\microsoft visual studio\2017\enterprise\vc\tools\msvc\14.15.26726\include\xutility
;	COMDAT ?_Get_first@?$_Compressed_pair@V?$allocator@PAVRaven_Bot@@@std@@V?$_Vector_val@U?$_Simple_types@PAVRaven_Bot@@@std@@@2@$00@std@@QBEABV?$allocator@PAVRaven_Bot@@@2@XZ
_TEXT	SEGMENT
_this$ = -4						; size = 4
?_Get_first@?$_Compressed_pair@V?$allocator@PAVRaven_Bot@@@std@@V?$_Vector_val@U?$_Simple_types@PAVRaven_Bot@@@std@@@2@$00@std@@QBEABV?$allocator@PAVRaven_Bot@@@2@XZ PROC ; std::_Compressed_pair<std::allocator<Raven_Bot *>,std::_Vector_val<std::_Simple_types<Raven_Bot *> >,1>::_Get_first, COMDAT
; _this$ = ecx

; 296  : 		{	// return const reference to first

	push	ebp
	mov	ebp, esp
	push	ecx
	mov	DWORD PTR [ebp-4], -858993460		; ccccccccH
	mov	DWORD PTR _this$[ebp], ecx

; 297  : 		return (*this);

	mov	eax, DWORD PTR _this$[ebp]

; 298  : 		}

	mov	esp, ebp
	pop	ebp
	ret	0
?_Get_first@?$_Compressed_pair@V?$allocator@PAVRaven_Bot@@@std@@V?$_Vector_val@U?$_Simple_types@PAVRaven_Bot@@@std@@@2@$00@std@@QBEABV?$allocator@PAVRaven_Bot@@@2@XZ ENDP ; std::_Compressed_pair<std::allocator<Raven_Bot *>,std::_Vector_val<std::_Simple_types<Raven_Bot *> >,1>::_Get_first
_TEXT	ENDS
; Function compile flags: /Odtp /RTCsu
; File c:\program files (x86)\microsoft visual studio\2017\enterprise\vc\tools\msvc\14.15.26726\include\xutility
;	COMDAT ?_Get_first@?$_Compressed_pair@V?$allocator@PAVRaven_Bot@@@std@@V?$_Vector_val@U?$_Simple_types@PAVRaven_Bot@@@std@@@2@$00@std@@QAEAAV?$allocator@PAVRaven_Bot@@@2@XZ
_TEXT	SEGMENT
_this$ = -4						; size = 4
?_Get_first@?$_Compressed_pair@V?$allocator@PAVRaven_Bot@@@std@@V?$_Vector_val@U?$_Simple_types@PAVRaven_Bot@@@std@@@2@$00@std@@QAEAAV?$allocator@PAVRaven_Bot@@@2@XZ PROC ; std::_Compressed_pair<std::allocator<Raven_Bot *>,std::_Vector_val<std::_Simple_types<Raven_Bot *> >,1>::_Get_first, COMDAT
; _this$ = ecx

; 291  : 		{	// return reference to first

	push	ebp
	mov	ebp, esp
	push	ecx
	mov	DWORD PTR [ebp-4], -858993460		; ccccccccH
	mov	DWORD PTR _this$[ebp], ecx

; 292  : 		return (*this);

	mov	eax, DWORD PTR _this$[ebp]

; 293  : 		}

	mov	esp, ebp
	pop	ebp
	ret	0
?_Get_first@?$_Compressed_pair@V?$allocator@PAVRaven_Bot@@@std@@V?$_Vector_val@U?$_Simple_types@PAVRaven_Bot@@@std@@@2@$00@std@@QAEAAV?$allocator@PAVRaven_Bot@@@2@XZ ENDP ; std::_Compressed_pair<std::allocator<Raven_Bot *>,std::_Vector_val<std::_Simple_types<Raven_Bot *> >,1>::_Get_first
_TEXT	ENDS
; Function compile flags: /Odtp /RTCsu
; File c:\program files (x86)\microsoft visual studio\2017\enterprise\vc\tools\msvc\14.15.26726\include\vector
;	COMDAT ??0?$_Vector_val@U?$_Simple_types@PAVRaven_Bot@@@std@@@std@@QAE@XZ
_TEXT	SEGMENT
_this$ = -4						; size = 4
??0?$_Vector_val@U?$_Simple_types@PAVRaven_Bot@@@std@@@std@@QAE@XZ PROC ; std::_Vector_val<std::_Simple_types<Raven_Bot *> >::_Vector_val<std::_Simple_types<Raven_Bot *> >, COMDAT
; _this$ = ecx

; 392  : 		{	// initialize values

	push	ebp
	mov	ebp, esp
	push	ecx
	mov	DWORD PTR [ebp-4], -858993460		; ccccccccH
	mov	DWORD PTR _this$[ebp], ecx
	mov	ecx, DWORD PTR _this$[ebp]
	call	??0_Container_base12@std@@QAE@XZ	; std::_Container_base12::_Container_base12

; 389  : 		: _Myfirst(),

	mov	eax, DWORD PTR _this$[ebp]
	mov	DWORD PTR [eax+4], 0

; 390  : 		_Mylast(),

	mov	ecx, DWORD PTR _this$[ebp]
	mov	DWORD PTR [ecx+8], 0

; 391  : 		_Myend()

	mov	edx, DWORD PTR _this$[ebp]
	mov	DWORD PTR [edx+12], 0

; 393  : 		}

	mov	eax, DWORD PTR _this$[ebp]
	add	esp, 4
	cmp	ebp, esp
	call	__RTC_CheckEsp
	mov	esp, ebp
	pop	ebp
	ret	0
??0?$_Vector_val@U?$_Simple_types@PAVRaven_Bot@@@std@@@std@@QAE@XZ ENDP ; std::_Vector_val<std::_Simple_types<Raven_Bot *> >::_Vector_val<std::_Simple_types<Raven_Bot *> >
_TEXT	ENDS
; Function compile flags: /Odtp /RTCsu
; File c:\program files (x86)\microsoft visual studio\2017\enterprise\vc\tools\msvc\14.15.26726\include\vector
;	COMDAT ?_Myend@?$_Vector_alloc@U?$_Vec_base_types@PAVRaven_Bot@@V?$allocator@PAVRaven_Bot@@@std@@@std@@@std@@QBEABQAPAVRaven_Bot@@XZ
_TEXT	SEGMENT
_this$ = -4						; size = 4
?_Myend@?$_Vector_alloc@U?$_Vec_base_types@PAVRaven_Bot@@V?$allocator@PAVRaven_Bot@@@std@@@std@@@std@@QBEABQAPAVRaven_Bot@@XZ PROC ; std::_Vector_alloc<std::_Vec_base_types<Raven_Bot *,std::allocator<Raven_Bot *> > >::_Myend, COMDAT
; _this$ = ecx

; 600  : 		{	// return const reference to _Myend

	push	ebp
	mov	ebp, esp
	push	ecx
	mov	DWORD PTR [ebp-4], -858993460		; ccccccccH
	mov	DWORD PTR _this$[ebp], ecx

; 601  : 		return (_Get_data()._Myend);

	mov	ecx, DWORD PTR _this$[ebp]
	call	?_Get_data@?$_Vector_alloc@U?$_Vec_base_types@PAVRaven_Bot@@V?$allocator@PAVRaven_Bot@@@std@@@std@@@std@@QBEABV?$_Vector_val@U?$_Simple_types@PAVRaven_Bot@@@std@@@2@XZ ; std::_Vector_alloc<std::_Vec_base_types<Raven_Bot *,std::allocator<Raven_Bot *> > >::_Get_data
	add	eax, 12					; 0000000cH

; 602  : 		}

	add	esp, 4
	cmp	ebp, esp
	call	__RTC_CheckEsp
	mov	esp, ebp
	pop	ebp
	ret	0
?_Myend@?$_Vector_alloc@U?$_Vec_base_types@PAVRaven_Bot@@V?$allocator@PAVRaven_Bot@@@std@@@std@@@std@@QBEABQAPAVRaven_Bot@@XZ ENDP ; std::_Vector_alloc<std::_Vec_base_types<Raven_Bot *,std::allocator<Raven_Bot *> > >::_Myend
_TEXT	ENDS
; Function compile flags: /Odtp /RTCsu
; File c:\program files (x86)\microsoft visual studio\2017\enterprise\vc\tools\msvc\14.15.26726\include\vector
;	COMDAT ?_Myend@?$_Vector_alloc@U?$_Vec_base_types@PAVRaven_Bot@@V?$allocator@PAVRaven_Bot@@@std@@@std@@@std@@QAEAAPAPAVRaven_Bot@@XZ
_TEXT	SEGMENT
_this$ = -4						; size = 4
?_Myend@?$_Vector_alloc@U?$_Vec_base_types@PAVRaven_Bot@@V?$allocator@PAVRaven_Bot@@@std@@@std@@@std@@QAEAAPAPAVRaven_Bot@@XZ PROC ; std::_Vector_alloc<std::_Vec_base_types<Raven_Bot *,std::allocator<Raven_Bot *> > >::_Myend, COMDAT
; _this$ = ecx

; 595  : 		{	// return reference to _Myend

	push	ebp
	mov	ebp, esp
	push	ecx
	mov	DWORD PTR [ebp-4], -858993460		; ccccccccH
	mov	DWORD PTR _this$[ebp], ecx

; 596  : 		return (_Get_data()._Myend);

	mov	ecx, DWORD PTR _this$[ebp]
	call	?_Get_data@?$_Vector_alloc@U?$_Vec_base_types@PAVRaven_Bot@@V?$allocator@PAVRaven_Bot@@@std@@@std@@@std@@QAEAAV?$_Vector_val@U?$_Simple_types@PAVRaven_Bot@@@std@@@2@XZ ; std::_Vector_alloc<std::_Vec_base_types<Raven_Bot *,std::allocator<Raven_Bot *> > >::_Get_data
	add	eax, 12					; 0000000cH

; 597  : 		}

	add	esp, 4
	cmp	ebp, esp
	call	__RTC_CheckEsp
	mov	esp, ebp
	pop	ebp
	ret	0
?_Myend@?$_Vector_alloc@U?$_Vec_base_types@PAVRaven_Bot@@V?$allocator@PAVRaven_Bot@@@std@@@std@@@std@@QAEAAPAPAVRaven_Bot@@XZ ENDP ; std::_Vector_alloc<std::_Vec_base_types<Raven_Bot *,std::allocator<Raven_Bot *> > >::_Myend
_TEXT	ENDS
; Function compile flags: /Odtp /RTCsu
; File c:\program files (x86)\microsoft visual studio\2017\enterprise\vc\tools\msvc\14.15.26726\include\vector
;	COMDAT ?_Mylast@?$_Vector_alloc@U?$_Vec_base_types@PAVRaven_Bot@@V?$allocator@PAVRaven_Bot@@@std@@@std@@@std@@QBEABQAPAVRaven_Bot@@XZ
_TEXT	SEGMENT
_this$ = -4						; size = 4
?_Mylast@?$_Vector_alloc@U?$_Vec_base_types@PAVRaven_Bot@@V?$allocator@PAVRaven_Bot@@@std@@@std@@@std@@QBEABQAPAVRaven_Bot@@XZ PROC ; std::_Vector_alloc<std::_Vec_base_types<Raven_Bot *,std::allocator<Raven_Bot *> > >::_Mylast, COMDAT
; _this$ = ecx

; 590  : 		{	// return const reference to _Mylast

	push	ebp
	mov	ebp, esp
	push	ecx
	mov	DWORD PTR [ebp-4], -858993460		; ccccccccH
	mov	DWORD PTR _this$[ebp], ecx

; 591  : 		return (_Get_data()._Mylast);

	mov	ecx, DWORD PTR _this$[ebp]
	call	?_Get_data@?$_Vector_alloc@U?$_Vec_base_types@PAVRaven_Bot@@V?$allocator@PAVRaven_Bot@@@std@@@std@@@std@@QBEABV?$_Vector_val@U?$_Simple_types@PAVRaven_Bot@@@std@@@2@XZ ; std::_Vector_alloc<std::_Vec_base_types<Raven_Bot *,std::allocator<Raven_Bot *> > >::_Get_data
	add	eax, 8

; 592  : 		}

	add	esp, 4
	cmp	ebp, esp
	call	__RTC_CheckEsp
	mov	esp, ebp
	pop	ebp
	ret	0
?_Mylast@?$_Vector_alloc@U?$_Vec_base_types@PAVRaven_Bot@@V?$allocator@PAVRaven_Bot@@@std@@@std@@@std@@QBEABQAPAVRaven_Bot@@XZ ENDP ; std::_Vector_alloc<std::_Vec_base_types<Raven_Bot *,std::allocator<Raven_Bot *> > >::_Mylast
_TEXT	ENDS
; Function compile flags: /Odtp /RTCsu
; File c:\program files (x86)\microsoft visual studio\2017\enterprise\vc\tools\msvc\14.15.26726\include\vector
;	COMDAT ?_Mylast@?$_Vector_alloc@U?$_Vec_base_types@PAVRaven_Bot@@V?$allocator@PAVRaven_Bot@@@std@@@std@@@std@@QAEAAPAPAVRaven_Bot@@XZ
_TEXT	SEGMENT
_this$ = -4						; size = 4
?_Mylast@?$_Vector_alloc@U?$_Vec_base_types@PAVRaven_Bot@@V?$allocator@PAVRaven_Bot@@@std@@@std@@@std@@QAEAAPAPAVRaven_Bot@@XZ PROC ; std::_Vector_alloc<std::_Vec_base_types<Raven_Bot *,std::allocator<Raven_Bot *> > >::_Mylast, COMDAT
; _this$ = ecx

; 585  : 		{	// return reference to _Mylast

	push	ebp
	mov	ebp, esp
	push	ecx
	mov	DWORD PTR [ebp-4], -858993460		; ccccccccH
	mov	DWORD PTR _this$[ebp], ecx

; 586  : 		return (_Get_data()._Mylast);

	mov	ecx, DWORD PTR _this$[ebp]
	call	?_Get_data@?$_Vector_alloc@U?$_Vec_base_types@PAVRaven_Bot@@V?$allocator@PAVRaven_Bot@@@std@@@std@@@std@@QAEAAV?$_Vector_val@U?$_Simple_types@PAVRaven_Bot@@@std@@@2@XZ ; std::_Vector_alloc<std::_Vec_base_types<Raven_Bot *,std::allocator<Raven_Bot *> > >::_Get_data
	add	eax, 8

; 587  : 		}

	add	esp, 4
	cmp	ebp, esp
	call	__RTC_CheckEsp
	mov	esp, ebp
	pop	ebp
	ret	0
?_Mylast@?$_Vector_alloc@U?$_Vec_base_types@PAVRaven_Bot@@V?$allocator@PAVRaven_Bot@@@std@@@std@@@std@@QAEAAPAPAVRaven_Bot@@XZ ENDP ; std::_Vector_alloc<std::_Vec_base_types<Raven_Bot *,std::allocator<Raven_Bot *> > >::_Mylast
_TEXT	ENDS
; Function compile flags: /Odtp /RTCsu
; File c:\program files (x86)\microsoft visual studio\2017\enterprise\vc\tools\msvc\14.15.26726\include\vector
;	COMDAT ?_Myfirst@?$_Vector_alloc@U?$_Vec_base_types@PAVRaven_Bot@@V?$allocator@PAVRaven_Bot@@@std@@@std@@@std@@QBEABQAPAVRaven_Bot@@XZ
_TEXT	SEGMENT
_this$ = -4						; size = 4
?_Myfirst@?$_Vector_alloc@U?$_Vec_base_types@PAVRaven_Bot@@V?$allocator@PAVRaven_Bot@@@std@@@std@@@std@@QBEABQAPAVRaven_Bot@@XZ PROC ; std::_Vector_alloc<std::_Vec_base_types<Raven_Bot *,std::allocator<Raven_Bot *> > >::_Myfirst, COMDAT
; _this$ = ecx

; 580  : 		{	// return const reference to _Myfirst

	push	ebp
	mov	ebp, esp
	push	ecx
	mov	DWORD PTR [ebp-4], -858993460		; ccccccccH
	mov	DWORD PTR _this$[ebp], ecx

; 581  : 		return (_Get_data()._Myfirst);

	mov	ecx, DWORD PTR _this$[ebp]
	call	?_Get_data@?$_Vector_alloc@U?$_Vec_base_types@PAVRaven_Bot@@V?$allocator@PAVRaven_Bot@@@std@@@std@@@std@@QBEABV?$_Vector_val@U?$_Simple_types@PAVRaven_Bot@@@std@@@2@XZ ; std::_Vector_alloc<std::_Vec_base_types<Raven_Bot *,std::allocator<Raven_Bot *> > >::_Get_data
	add	eax, 4

; 582  : 		}

	add	esp, 4
	cmp	ebp, esp
	call	__RTC_CheckEsp
	mov	esp, ebp
	pop	ebp
	ret	0
?_Myfirst@?$_Vector_alloc@U?$_Vec_base_types@PAVRaven_Bot@@V?$allocator@PAVRaven_Bot@@@std@@@std@@@std@@QBEABQAPAVRaven_Bot@@XZ ENDP ; std::_Vector_alloc<std::_Vec_base_types<Raven_Bot *,std::allocator<Raven_Bot *> > >::_Myfirst
_TEXT	ENDS
; Function compile flags: /Odtp /RTCsu
; File c:\program files (x86)\microsoft visual studio\2017\enterprise\vc\tools\msvc\14.15.26726\include\vector
;	COMDAT ?_Myfirst@?$_Vector_alloc@U?$_Vec_base_types@PAVRaven_Bot@@V?$allocator@PAVRaven_Bot@@@std@@@std@@@std@@QAEAAPAPAVRaven_Bot@@XZ
_TEXT	SEGMENT
_this$ = -4						; size = 4
?_Myfirst@?$_Vector_alloc@U?$_Vec_base_types@PAVRaven_Bot@@V?$allocator@PAVRaven_Bot@@@std@@@std@@@std@@QAEAAPAPAVRaven_Bot@@XZ PROC ; std::_Vector_alloc<std::_Vec_base_types<Raven_Bot *,std::allocator<Raven_Bot *> > >::_Myfirst, COMDAT
; _this$ = ecx

; 575  : 		{	// return reference to _Myfirst

	push	ebp
	mov	ebp, esp
	push	ecx
	mov	DWORD PTR [ebp-4], -858993460		; ccccccccH
	mov	DWORD PTR _this$[ebp], ecx

; 576  : 		return (_Get_data()._Myfirst);

	mov	ecx, DWORD PTR _this$[ebp]
	call	?_Get_data@?$_Vector_alloc@U?$_Vec_base_types@PAVRaven_Bot@@V?$allocator@PAVRaven_Bot@@@std@@@std@@@std@@QAEAAV?$_Vector_val@U?$_Simple_types@PAVRaven_Bot@@@std@@@2@XZ ; std::_Vector_alloc<std::_Vec_base_types<Raven_Bot *,std::allocator<Raven_Bot *> > >::_Get_data
	add	eax, 4

; 577  : 		}

	add	esp, 4
	cmp	ebp, esp
	call	__RTC_CheckEsp
	mov	esp, ebp
	pop	ebp
	ret	0
?_Myfirst@?$_Vector_alloc@U?$_Vec_base_types@PAVRaven_Bot@@V?$allocator@PAVRaven_Bot@@@std@@@std@@@std@@QAEAAPAPAVRaven_Bot@@XZ ENDP ; std::_Vector_alloc<std::_Vec_base_types<Raven_Bot *,std::allocator<Raven_Bot *> > >::_Myfirst
_TEXT	ENDS
; Function compile flags: /Odtp /RTCsu
; File c:\program files (x86)\microsoft visual studio\2017\enterprise\vc\tools\msvc\14.15.26726\include\vector
;	COMDAT ?_Get_data@?$_Vector_alloc@U?$_Vec_base_types@PAVRaven_Bot@@V?$allocator@PAVRaven_Bot@@@std@@@std@@@std@@QBEABV?$_Vector_val@U?$_Simple_types@PAVRaven_Bot@@@std@@@2@XZ
_TEXT	SEGMENT
_this$ = -4						; size = 4
?_Get_data@?$_Vector_alloc@U?$_Vec_base_types@PAVRaven_Bot@@V?$allocator@PAVRaven_Bot@@@std@@@std@@@std@@QBEABV?$_Vector_val@U?$_Simple_types@PAVRaven_Bot@@@std@@@2@XZ PROC ; std::_Vector_alloc<std::_Vec_base_types<Raven_Bot *,std::allocator<Raven_Bot *> > >::_Get_data, COMDAT
; _this$ = ecx

; 559  : 		{	// return const reference to _Vector_val

	push	ebp
	mov	ebp, esp
	push	ecx
	mov	DWORD PTR [ebp-4], -858993460		; ccccccccH
	mov	DWORD PTR _this$[ebp], ecx

; 560  : 		return (_Mypair._Get_second());

	mov	ecx, DWORD PTR _this$[ebp]
	call	?_Get_second@?$_Compressed_pair@V?$allocator@PAVRaven_Bot@@@std@@V?$_Vector_val@U?$_Simple_types@PAVRaven_Bot@@@std@@@2@$00@std@@QBEABV?$_Vector_val@U?$_Simple_types@PAVRaven_Bot@@@std@@@2@XZ ; std::_Compressed_pair<std::allocator<Raven_Bot *>,std::_Vector_val<std::_Simple_types<Raven_Bot *> >,1>::_Get_second

; 561  : 		}

	add	esp, 4
	cmp	ebp, esp
	call	__RTC_CheckEsp
	mov	esp, ebp
	pop	ebp
	ret	0
?_Get_data@?$_Vector_alloc@U?$_Vec_base_types@PAVRaven_Bot@@V?$allocator@PAVRaven_Bot@@@std@@@std@@@std@@QBEABV?$_Vector_val@U?$_Simple_types@PAVRaven_Bot@@@std@@@2@XZ ENDP ; std::_Vector_alloc<std::_Vec_base_types<Raven_Bot *,std::allocator<Raven_Bot *> > >::_Get_data
_TEXT	ENDS
; Function compile flags: /Odtp /RTCsu
; File c:\program files (x86)\microsoft visual studio\2017\enterprise\vc\tools\msvc\14.15.26726\include\vector
;	COMDAT ?_Get_data@?$_Vector_alloc@U?$_Vec_base_types@PAVRaven_Bot@@V?$allocator@PAVRaven_Bot@@@std@@@std@@@std@@QAEAAV?$_Vector_val@U?$_Simple_types@PAVRaven_Bot@@@std@@@2@XZ
_TEXT	SEGMENT
_this$ = -4						; size = 4
?_Get_data@?$_Vector_alloc@U?$_Vec_base_types@PAVRaven_Bot@@V?$allocator@PAVRaven_Bot@@@std@@@std@@@std@@QAEAAV?$_Vector_val@U?$_Simple_types@PAVRaven_Bot@@@std@@@2@XZ PROC ; std::_Vector_alloc<std::_Vec_base_types<Raven_Bot *,std::allocator<Raven_Bot *> > >::_Get_data, COMDAT
; _this$ = ecx

; 554  : 		{	// return reference to _Vector_val

	push	ebp
	mov	ebp, esp
	push	ecx
	mov	DWORD PTR [ebp-4], -858993460		; ccccccccH
	mov	DWORD PTR _this$[ebp], ecx

; 555  : 		return (_Mypair._Get_second());

	mov	ecx, DWORD PTR _this$[ebp]
	call	?_Get_second@?$_Compressed_pair@V?$allocator@PAVRaven_Bot@@@std@@V?$_Vector_val@U?$_Simple_types@PAVRaven_Bot@@@std@@@2@$00@std@@QAEAAV?$_Vector_val@U?$_Simple_types@PAVRaven_Bot@@@std@@@2@XZ ; std::_Compressed_pair<std::allocator<Raven_Bot *>,std::_Vector_val<std::_Simple_types<Raven_Bot *> >,1>::_Get_second

; 556  : 		}

	add	esp, 4
	cmp	ebp, esp
	call	__RTC_CheckEsp
	mov	esp, ebp
	pop	ebp
	ret	0
?_Get_data@?$_Vector_alloc@U?$_Vec_base_types@PAVRaven_Bot@@V?$allocator@PAVRaven_Bot@@@std@@@std@@@std@@QAEAAV?$_Vector_val@U?$_Simple_types@PAVRaven_Bot@@@std@@@2@XZ ENDP ; std::_Vector_alloc<std::_Vec_base_types<Raven_Bot *,std::allocator<Raven_Bot *> > >::_Get_data
_TEXT	ENDS
; Function compile flags: /Odtp /RTCsu
; File c:\program files (x86)\microsoft visual studio\2017\enterprise\vc\tools\msvc\14.15.26726\include\vector
;	COMDAT ?_Getal@?$_Vector_alloc@U?$_Vec_base_types@PAVRaven_Bot@@V?$allocator@PAVRaven_Bot@@@std@@@std@@@std@@QBEABV?$allocator@PAVRaven_Bot@@@2@XZ
_TEXT	SEGMENT
_this$ = -4						; size = 4
?_Getal@?$_Vector_alloc@U?$_Vec_base_types@PAVRaven_Bot@@V?$allocator@PAVRaven_Bot@@@std@@@std@@@std@@QBEABV?$allocator@PAVRaven_Bot@@@2@XZ PROC ; std::_Vector_alloc<std::_Vec_base_types<Raven_Bot *,std::allocator<Raven_Bot *> > >::_Getal, COMDAT
; _this$ = ecx

; 549  : 		{	// return const reference to allocator

	push	ebp
	mov	ebp, esp
	push	ecx
	mov	DWORD PTR [ebp-4], -858993460		; ccccccccH
	mov	DWORD PTR _this$[ebp], ecx

; 550  : 		return (_Mypair._Get_first());

	mov	ecx, DWORD PTR _this$[ebp]
	call	?_Get_first@?$_Compressed_pair@V?$allocator@PAVRaven_Bot@@@std@@V?$_Vector_val@U?$_Simple_types@PAVRaven_Bot@@@std@@@2@$00@std@@QBEABV?$allocator@PAVRaven_Bot@@@2@XZ ; std::_Compressed_pair<std::allocator<Raven_Bot *>,std::_Vector_val<std::_Simple_types<Raven_Bot *> >,1>::_Get_first

; 551  : 		}

	add	esp, 4
	cmp	ebp, esp
	call	__RTC_CheckEsp
	mov	esp, ebp
	pop	ebp
	ret	0
?_Getal@?$_Vector_alloc@U?$_Vec_base_types@PAVRaven_Bot@@V?$allocator@PAVRaven_Bot@@@std@@@std@@@std@@QBEABV?$allocator@PAVRaven_Bot@@@2@XZ ENDP ; std::_Vector_alloc<std::_Vec_base_types<Raven_Bot *,std::allocator<Raven_Bot *> > >::_Getal
_TEXT	ENDS
; Function compile flags: /Odtp /RTCsu
; File c:\program files (x86)\microsoft visual studio\2017\enterprise\vc\tools\msvc\14.15.26726\include\vector
;	COMDAT ?_Getal@?$_Vector_alloc@U?$_Vec_base_types@PAVRaven_Bot@@V?$allocator@PAVRaven_Bot@@@std@@@std@@@std@@QAEAAV?$allocator@PAVRaven_Bot@@@2@XZ
_TEXT	SEGMENT
_this$ = -4						; size = 4
?_Getal@?$_Vector_alloc@U?$_Vec_base_types@PAVRaven_Bot@@V?$allocator@PAVRaven_Bot@@@std@@@std@@@std@@QAEAAV?$allocator@PAVRaven_Bot@@@2@XZ PROC ; std::_Vector_alloc<std::_Vec_base_types<Raven_Bot *,std::allocator<Raven_Bot *> > >::_Getal, COMDAT
; _this$ = ecx

; 544  : 		{	// return reference to allocator

	push	ebp
	mov	ebp, esp
	push	ecx
	mov	DWORD PTR [ebp-4], -858993460		; ccccccccH
	mov	DWORD PTR _this$[ebp], ecx

; 545  : 		return (_Mypair._Get_first());

	mov	ecx, DWORD PTR _this$[ebp]
	call	?_Get_first@?$_Compressed_pair@V?$allocator@PAVRaven_Bot@@@std@@V?$_Vector_val@U?$_Simple_types@PAVRaven_Bot@@@std@@@2@$00@std@@QAEAAV?$allocator@PAVRaven_Bot@@@2@XZ ; std::_Compressed_pair<std::allocator<Raven_Bot *>,std::_Vector_val<std::_Simple_types<Raven_Bot *> >,1>::_Get_first

; 546  : 		}

	add	esp, 4
	cmp	ebp, esp
	call	__RTC_CheckEsp
	mov	esp, ebp
	pop	ebp
	ret	0
?_Getal@?$_Vector_alloc@U?$_Vec_base_types@PAVRaven_Bot@@V?$allocator@PAVRaven_Bot@@@std@@@std@@@std@@QAEAAV?$allocator@PAVRaven_Bot@@@2@XZ ENDP ; std::_Vector_alloc<std::_Vec_base_types<Raven_Bot *,std::allocator<Raven_Bot *> > >::_Getal
_TEXT	ENDS
; Function compile flags: /Odtp /RTCsu
; File c:\program files (x86)\microsoft visual studio\2017\enterprise\vc\tools\msvc\14.15.26726\include\vector
;	COMDAT ?_Orphan_all@?$_Vector_alloc@U?$_Vec_base_types@PAVRaven_Bot@@V?$allocator@PAVRaven_Bot@@@std@@@std@@@std@@QAEXXZ
_TEXT	SEGMENT
_this$ = -4						; size = 4
?_Orphan_all@?$_Vector_alloc@U?$_Vec_base_types@PAVRaven_Bot@@V?$allocator@PAVRaven_Bot@@@std@@@std@@@std@@QAEXXZ PROC ; std::_Vector_alloc<std::_Vec_base_types<Raven_Bot *,std::allocator<Raven_Bot *> > >::_Orphan_all, COMDAT
; _this$ = ecx

; 534  : 		{	// orphan all iterators

	push	ebp
	mov	ebp, esp
	push	ecx
	mov	DWORD PTR [ebp-4], -858993460		; ccccccccH
	mov	DWORD PTR _this$[ebp], ecx

; 535  : 		_Get_data()._Orphan_all();

	mov	ecx, DWORD PTR _this$[ebp]
	call	?_Get_data@?$_Vector_alloc@U?$_Vec_base_types@PAVRaven_Bot@@V?$allocator@PAVRaven_Bot@@@std@@@std@@@std@@QAEAAV?$_Vector_val@U?$_Simple_types@PAVRaven_Bot@@@std@@@2@XZ ; std::_Vector_alloc<std::_Vec_base_types<Raven_Bot *,std::allocator<Raven_Bot *> > >::_Get_data
	mov	ecx, eax
	call	?_Orphan_all@_Container_base12@std@@QAEXXZ ; std::_Container_base12::_Orphan_all

; 536  : 		}

	add	esp, 4
	cmp	ebp, esp
	call	__RTC_CheckEsp
	mov	esp, ebp
	pop	ebp
	ret	0
?_Orphan_all@?$_Vector_alloc@U?$_Vec_base_types@PAVRaven_Bot@@V?$allocator@PAVRaven_Bot@@@std@@@std@@@std@@QAEXXZ ENDP ; std::_Vector_alloc<std::_Vec_base_types<Raven_Bot *,std::allocator<Raven_Bot *> > >::_Orphan_all
_TEXT	ENDS
; Function compile flags: /Odtp /RTCsu
; File c:\program files (x86)\microsoft visual studio\2017\enterprise\vc\tools\msvc\14.15.26726\include\vector
;	COMDAT ?_Myproxy@?$_Vector_alloc@U?$_Vec_base_types@PAVRaven_Bot@@V?$allocator@PAVRaven_Bot@@@std@@@std@@@std@@QAEAAPAU_Container_proxy@2@XZ
_TEXT	SEGMENT
_this$ = -4						; size = 4
?_Myproxy@?$_Vector_alloc@U?$_Vec_base_types@PAVRaven_Bot@@V?$allocator@PAVRaven_Bot@@@std@@@std@@@std@@QAEAAPAU_Container_proxy@2@XZ PROC ; std::_Vector_alloc<std::_Vec_base_types<Raven_Bot *,std::allocator<Raven_Bot *> > >::_Myproxy, COMDAT
; _this$ = ecx

; 523  : 		{	// return reference to _Myproxy

	push	ebp
	mov	ebp, esp
	push	ecx
	mov	DWORD PTR [ebp-4], -858993460		; ccccccccH
	mov	DWORD PTR _this$[ebp], ecx

; 524  : 		return (_Get_data()._Myproxy);

	mov	ecx, DWORD PTR _this$[ebp]
	call	?_Get_data@?$_Vector_alloc@U?$_Vec_base_types@PAVRaven_Bot@@V?$allocator@PAVRaven_Bot@@@std@@@std@@@std@@QAEAAV?$_Vector_val@U?$_Simple_types@PAVRaven_Bot@@@std@@@2@XZ ; std::_Vector_alloc<std::_Vec_base_types<Raven_Bot *,std::allocator<Raven_Bot *> > >::_Get_data

; 525  : 		}

	add	esp, 4
	cmp	ebp, esp
	call	__RTC_CheckEsp
	mov	esp, ebp
	pop	ebp
	ret	0
?_Myproxy@?$_Vector_alloc@U?$_Vec_base_types@PAVRaven_Bot@@V?$allocator@PAVRaven_Bot@@@std@@@std@@@std@@QAEAAPAU_Container_proxy@2@XZ ENDP ; std::_Vector_alloc<std::_Vec_base_types<Raven_Bot *,std::allocator<Raven_Bot *> > >::_Myproxy
_TEXT	ENDS
; Function compile flags: /Odtp /RTCsu
; File c:\program files (x86)\microsoft visual studio\2017\enterprise\vc\tools\msvc\14.15.26726\include\vector
;	COMDAT ?_Getpfirst@?$_Vector_alloc@U?$_Vec_base_types@PAVRaven_Bot@@V?$allocator@PAVRaven_Bot@@@std@@@std@@@std@@QBEPAPAU_Iterator_base12@2@XZ
_TEXT	SEGMENT
_this$ = -4						; size = 4
?_Getpfirst@?$_Vector_alloc@U?$_Vec_base_types@PAVRaven_Bot@@V?$allocator@PAVRaven_Bot@@@std@@@std@@@std@@QBEPAPAU_Iterator_base12@2@XZ PROC ; std::_Vector_alloc<std::_Vec_base_types<Raven_Bot *,std::allocator<Raven_Bot *> > >::_Getpfirst, COMDAT
; _this$ = ecx

; 518  : 		{	// get address of iterator chain

	push	ebp
	mov	ebp, esp
	push	ecx
	mov	DWORD PTR [ebp-4], -858993460		; ccccccccH
	mov	DWORD PTR _this$[ebp], ecx

; 519  : 		return (_Get_data()._Getpfirst());

	mov	ecx, DWORD PTR _this$[ebp]
	call	?_Get_data@?$_Vector_alloc@U?$_Vec_base_types@PAVRaven_Bot@@V?$allocator@PAVRaven_Bot@@@std@@@std@@@std@@QBEABV?$_Vector_val@U?$_Simple_types@PAVRaven_Bot@@@std@@@2@XZ ; std::_Vector_alloc<std::_Vec_base_types<Raven_Bot *,std::allocator<Raven_Bot *> > >::_Get_data
	mov	ecx, eax
	call	?_Getpfirst@_Container_base12@std@@QBEPAPAU_Iterator_base12@2@XZ ; std::_Container_base12::_Getpfirst

; 520  : 		}

	add	esp, 4
	cmp	ebp, esp
	call	__RTC_CheckEsp
	mov	esp, ebp
	pop	ebp
	ret	0
?_Getpfirst@?$_Vector_alloc@U?$_Vec_base_types@PAVRaven_Bot@@V?$allocator@PAVRaven_Bot@@@std@@@std@@@std@@QBEPAPAU_Iterator_base12@2@XZ ENDP ; std::_Vector_alloc<std::_Vec_base_types<Raven_Bot *,std::allocator<Raven_Bot *> > >::_Getpfirst
_TEXT	ENDS
; Function compile flags: /Odtp /RTCsu
; File c:\program files (x86)\microsoft visual studio\2017\enterprise\vc\tools\msvc\14.15.26726\include\vector
;	COMDAT ?_Free_proxy@?$_Vector_alloc@U?$_Vec_base_types@PAVRaven_Bot@@V?$allocator@PAVRaven_Bot@@@std@@@std@@@std@@QAEXXZ
_TEXT	SEGMENT
__Proxy_allocator$ = -9					; size = 1
_this$ = -4						; size = 4
?_Free_proxy@?$_Vector_alloc@U?$_Vec_base_types@PAVRaven_Bot@@V?$allocator@PAVRaven_Bot@@@std@@@std@@@std@@QAEXXZ PROC ; std::_Vector_alloc<std::_Vec_base_types<Raven_Bot *,std::allocator<Raven_Bot *> > >::_Free_proxy, COMDAT
; _this$ = ecx

; 509  : 		{	// destroy proxy

	push	ebp
	mov	ebp, esp
	sub	esp, 16					; 00000010H
	mov	eax, -858993460				; ccccccccH
	mov	DWORD PTR [ebp-16], eax
	mov	DWORD PTR [ebp-12], eax
	mov	DWORD PTR [ebp-8], eax
	mov	DWORD PTR [ebp-4], eax
	mov	DWORD PTR _this$[ebp], ecx

; 510  : 		_Alproxy _Proxy_allocator(_Getal());

	mov	ecx, DWORD PTR _this$[ebp]
	call	?_Getal@?$_Vector_alloc@U?$_Vec_base_types@PAVRaven_Bot@@V?$allocator@PAVRaven_Bot@@@std@@@std@@@std@@QAEAAV?$allocator@PAVRaven_Bot@@@2@XZ ; std::_Vector_alloc<std::_Vec_base_types<Raven_Bot *,std::allocator<Raven_Bot *> > >::_Getal
	push	eax
	lea	ecx, DWORD PTR __Proxy_allocator$[ebp]
	call	??$?0PAVRaven_Bot@@@?$allocator@U_Container_proxy@std@@@std@@QAE@ABV?$allocator@PAVRaven_Bot@@@1@@Z ; std::allocator<std::_Container_proxy>::allocator<std::_Container_proxy><Raven_Bot *>

; 511  : 		_Orphan_all();

	mov	ecx, DWORD PTR _this$[ebp]
	call	?_Orphan_all@?$_Vector_alloc@U?$_Vec_base_types@PAVRaven_Bot@@V?$allocator@PAVRaven_Bot@@@std@@@std@@@std@@QAEXXZ ; std::_Vector_alloc<std::_Vec_base_types<Raven_Bot *,std::allocator<Raven_Bot *> > >::_Orphan_all

; 512  : 		_Alproxy_traits::destroy(_Proxy_allocator, _Myproxy());

	mov	ecx, DWORD PTR _this$[ebp]
	call	?_Myproxy@?$_Vector_alloc@U?$_Vec_base_types@PAVRaven_Bot@@V?$allocator@PAVRaven_Bot@@@std@@@std@@@std@@QAEAAPAU_Container_proxy@2@XZ ; std::_Vector_alloc<std::_Vec_base_types<Raven_Bot *,std::allocator<Raven_Bot *> > >::_Myproxy
	mov	eax, DWORD PTR [eax]
	push	eax
	lea	ecx, DWORD PTR __Proxy_allocator$[ebp]
	push	ecx
	call	??$destroy@U_Container_proxy@std@@@?$_Default_allocator_traits@V?$allocator@U_Container_proxy@std@@@std@@@std@@SAXAAV?$allocator@U_Container_proxy@std@@@1@QAU_Container_proxy@1@@Z ; std::_Default_allocator_traits<std::allocator<std::_Container_proxy> >::destroy<std::_Container_proxy>
	add	esp, 8

; 513  : 		_Deallocate_plain(_Proxy_allocator, _Myproxy());

	mov	ecx, DWORD PTR _this$[ebp]
	call	?_Myproxy@?$_Vector_alloc@U?$_Vec_base_types@PAVRaven_Bot@@V?$allocator@PAVRaven_Bot@@@std@@@std@@@std@@QAEAAPAU_Container_proxy@2@XZ ; std::_Vector_alloc<std::_Vec_base_types<Raven_Bot *,std::allocator<Raven_Bot *> > >::_Myproxy
	mov	edx, DWORD PTR [eax]
	push	edx
	lea	eax, DWORD PTR __Proxy_allocator$[ebp]
	push	eax
	call	??$_Deallocate_plain@V?$allocator@U_Container_proxy@std@@@std@@$0A@@std@@YAXAAV?$allocator@U_Container_proxy@std@@@0@QAU_Container_proxy@0@@Z ; std::_Deallocate_plain<std::allocator<std::_Container_proxy>,0>
	add	esp, 8

; 514  : 		_Myproxy() = nullptr;

	mov	ecx, DWORD PTR _this$[ebp]
	call	?_Myproxy@?$_Vector_alloc@U?$_Vec_base_types@PAVRaven_Bot@@V?$allocator@PAVRaven_Bot@@@std@@@std@@@std@@QAEAAPAU_Container_proxy@2@XZ ; std::_Vector_alloc<std::_Vec_base_types<Raven_Bot *,std::allocator<Raven_Bot *> > >::_Myproxy
	mov	DWORD PTR [eax], 0

; 515  : 		}

	push	edx
	mov	ecx, ebp
	push	eax
	lea	edx, DWORD PTR $LN5@Free_proxy
	call	@_RTC_CheckStackVars@8
	pop	eax
	pop	edx
	add	esp, 16					; 00000010H
	cmp	ebp, esp
	call	__RTC_CheckEsp
	mov	esp, ebp
	pop	ebp
	ret	0
	npad	2
$LN5@Free_proxy:
	DD	1
	DD	$LN4@Free_proxy
$LN4@Free_proxy:
	DD	-9					; fffffff7H
	DD	1
	DD	$LN3@Free_proxy
$LN3@Free_proxy:
	DB	95					; 0000005fH
	DB	80					; 00000050H
	DB	114					; 00000072H
	DB	111					; 0000006fH
	DB	120					; 00000078H
	DB	121					; 00000079H
	DB	95					; 0000005fH
	DB	97					; 00000061H
	DB	108					; 0000006cH
	DB	108					; 0000006cH
	DB	111					; 0000006fH
	DB	99					; 00000063H
	DB	97					; 00000061H
	DB	116					; 00000074H
	DB	111					; 0000006fH
	DB	114					; 00000072H
	DB	0
?_Free_proxy@?$_Vector_alloc@U?$_Vec_base_types@PAVRaven_Bot@@V?$allocator@PAVRaven_Bot@@@std@@@std@@@std@@QAEXXZ ENDP ; std::_Vector_alloc<std::_Vec_base_types<Raven_Bot *,std::allocator<Raven_Bot *> > >::_Free_proxy
_TEXT	ENDS
; Function compile flags: /Odtp /RTCsu
; File c:\program files (x86)\microsoft visual studio\2017\enterprise\vc\tools\msvc\14.15.26726\include\vector
;	COMDAT ?_Alloc_proxy@?$_Vector_alloc@U?$_Vec_base_types@PAVRaven_Bot@@V?$allocator@PAVRaven_Bot@@@std@@@std@@@std@@QAEXXZ
_TEXT	SEGMENT
$T1 = -24						; size = 8
__Proxy_allocator$ = -9					; size = 1
_this$ = -4						; size = 4
?_Alloc_proxy@?$_Vector_alloc@U?$_Vec_base_types@PAVRaven_Bot@@V?$allocator@PAVRaven_Bot@@@std@@@std@@@std@@QAEXXZ PROC ; std::_Vector_alloc<std::_Vec_base_types<Raven_Bot *,std::allocator<Raven_Bot *> > >::_Alloc_proxy, COMDAT
; _this$ = ecx

; 501  : 		{	// construct proxy

	push	ebp
	mov	ebp, esp
	sub	esp, 24					; 00000018H
	push	esi
	mov	eax, -858993460				; ccccccccH
	mov	DWORD PTR [ebp-24], eax
	mov	DWORD PTR [ebp-20], eax
	mov	DWORD PTR [ebp-16], eax
	mov	DWORD PTR [ebp-12], eax
	mov	DWORD PTR [ebp-8], eax
	mov	DWORD PTR [ebp-4], eax
	mov	DWORD PTR _this$[ebp], ecx

; 502  : 		_Alproxy _Proxy_allocator(_Getal());

	mov	ecx, DWORD PTR _this$[ebp]
	call	?_Getal@?$_Vector_alloc@U?$_Vec_base_types@PAVRaven_Bot@@V?$allocator@PAVRaven_Bot@@@std@@@std@@@std@@QAEAAV?$allocator@PAVRaven_Bot@@@2@XZ ; std::_Vector_alloc<std::_Vec_base_types<Raven_Bot *,std::allocator<Raven_Bot *> > >::_Getal
	push	eax
	lea	ecx, DWORD PTR __Proxy_allocator$[ebp]
	call	??$?0PAVRaven_Bot@@@?$allocator@U_Container_proxy@std@@@std@@QAE@ABV?$allocator@PAVRaven_Bot@@@1@@Z ; std::allocator<std::_Container_proxy>::allocator<std::_Container_proxy><Raven_Bot *>

; 503  : 		_Myproxy() = _Unfancy(_Proxy_allocator.allocate(1));

	push	1
	lea	ecx, DWORD PTR __Proxy_allocator$[ebp]
	call	?allocate@?$allocator@U_Container_proxy@std@@@std@@QAEPAU_Container_proxy@2@I@Z ; std::allocator<std::_Container_proxy>::allocate
	push	eax
	call	??$_Unfancy@U_Container_proxy@std@@@std@@YAPAU_Container_proxy@0@PAU10@@Z ; std::_Unfancy<std::_Container_proxy>
	add	esp, 4
	mov	esi, eax
	mov	ecx, DWORD PTR _this$[ebp]
	call	?_Myproxy@?$_Vector_alloc@U?$_Vec_base_types@PAVRaven_Bot@@V?$allocator@PAVRaven_Bot@@@std@@@std@@@std@@QAEAAPAU_Container_proxy@2@XZ ; std::_Vector_alloc<std::_Vec_base_types<Raven_Bot *,std::allocator<Raven_Bot *> > >::_Myproxy
	mov	DWORD PTR [eax], esi

; 504  : 		_Alproxy_traits::construct(_Proxy_allocator, _Myproxy(), _Container_proxy());

	lea	ecx, DWORD PTR $T1[ebp]
	call	??0_Container_proxy@std@@QAE@XZ		; std::_Container_proxy::_Container_proxy
	push	eax
	mov	ecx, DWORD PTR _this$[ebp]
	call	?_Myproxy@?$_Vector_alloc@U?$_Vec_base_types@PAVRaven_Bot@@V?$allocator@PAVRaven_Bot@@@std@@@std@@@std@@QAEAAPAU_Container_proxy@2@XZ ; std::_Vector_alloc<std::_Vec_base_types<Raven_Bot *,std::allocator<Raven_Bot *> > >::_Myproxy
	mov	eax, DWORD PTR [eax]
	push	eax
	lea	ecx, DWORD PTR __Proxy_allocator$[ebp]
	push	ecx
	call	??$construct@U_Container_proxy@std@@U12@@?$_Default_allocator_traits@V?$allocator@U_Container_proxy@std@@@std@@@std@@SAXAAV?$allocator@U_Container_proxy@std@@@1@QAU_Container_proxy@1@$$QAU31@@Z ; std::_Default_allocator_traits<std::allocator<std::_Container_proxy> >::construct<std::_Container_proxy,std::_Container_proxy>
	add	esp, 12					; 0000000cH

; 505  : 		_Myproxy()->_Mycont = _STD addressof(_Get_data());

	mov	ecx, DWORD PTR _this$[ebp]
	call	?_Get_data@?$_Vector_alloc@U?$_Vec_base_types@PAVRaven_Bot@@V?$allocator@PAVRaven_Bot@@@std@@@std@@@std@@QAEAAV?$_Vector_val@U?$_Simple_types@PAVRaven_Bot@@@std@@@2@XZ ; std::_Vector_alloc<std::_Vec_base_types<Raven_Bot *,std::allocator<Raven_Bot *> > >::_Get_data
	push	eax
	call	??$addressof@V?$_Vector_val@U?$_Simple_types@PAVRaven_Bot@@@std@@@std@@@std@@YAPAV?$_Vector_val@U?$_Simple_types@PAVRaven_Bot@@@std@@@0@AAV10@@Z ; std::addressof<std::_Vector_val<std::_Simple_types<Raven_Bot *> > >
	add	esp, 4
	mov	esi, eax
	mov	ecx, DWORD PTR _this$[ebp]
	call	?_Myproxy@?$_Vector_alloc@U?$_Vec_base_types@PAVRaven_Bot@@V?$allocator@PAVRaven_Bot@@@std@@@std@@@std@@QAEAAPAU_Container_proxy@2@XZ ; std::_Vector_alloc<std::_Vec_base_types<Raven_Bot *,std::allocator<Raven_Bot *> > >::_Myproxy
	mov	edx, DWORD PTR [eax]
	mov	DWORD PTR [edx], esi

; 506  : 		}

	push	edx
	mov	ecx, ebp
	push	eax
	lea	edx, DWORD PTR $LN5@Alloc_prox
	call	@_RTC_CheckStackVars@8
	pop	eax
	pop	edx
	pop	esi
	add	esp, 24					; 00000018H
	cmp	ebp, esp
	call	__RTC_CheckEsp
	mov	esp, ebp
	pop	ebp
	ret	0
$LN5@Alloc_prox:
	DD	1
	DD	$LN4@Alloc_prox
$LN4@Alloc_prox:
	DD	-9					; fffffff7H
	DD	1
	DD	$LN3@Alloc_prox
$LN3@Alloc_prox:
	DB	95					; 0000005fH
	DB	80					; 00000050H
	DB	114					; 00000072H
	DB	111					; 0000006fH
	DB	120					; 00000078H
	DB	121					; 00000079H
	DB	95					; 0000005fH
	DB	97					; 00000061H
	DB	108					; 0000006cH
	DB	108					; 0000006cH
	DB	111					; 0000006fH
	DB	99					; 00000063H
	DB	97					; 00000061H
	DB	116					; 00000074H
	DB	111					; 0000006fH
	DB	114					; 00000072H
	DB	0
?_Alloc_proxy@?$_Vector_alloc@U?$_Vec_base_types@PAVRaven_Bot@@V?$allocator@PAVRaven_Bot@@@std@@@std@@@std@@QAEXXZ ENDP ; std::_Vector_alloc<std::_Vec_base_types<Raven_Bot *,std::allocator<Raven_Bot *> > >::_Alloc_proxy
_TEXT	ENDS
; Function compile flags: /Odtp /RTCsu
; File c:\program files (x86)\microsoft visual studio\2017\enterprise\vc\tools\msvc\14.15.26726\include\vector
;	COMDAT ??1?$_Vector_alloc@U?$_Vec_base_types@PAVRaven_Bot@@V?$allocator@PAVRaven_Bot@@@std@@@std@@@std@@QAE@XZ
_TEXT	SEGMENT
_this$ = -16						; size = 4
__$EHRec$ = -12						; size = 12
??1?$_Vector_alloc@U?$_Vec_base_types@PAVRaven_Bot@@V?$allocator@PAVRaven_Bot@@@std@@@std@@@std@@QAE@XZ PROC ; std::_Vector_alloc<std::_Vec_base_types<Raven_Bot *,std::allocator<Raven_Bot *> > >::~_Vector_alloc<std::_Vec_base_types<Raven_Bot *,std::allocator<Raven_Bot *> > >, COMDAT
; _this$ = ecx

; 460  : 		{	// destroy proxy

	push	ebp
	mov	ebp, esp
	push	-1
	push	__ehhandler$??1?$_Vector_alloc@U?$_Vec_base_types@PAVRaven_Bot@@V?$allocator@PAVRaven_Bot@@@std@@@std@@@std@@QAE@XZ
	mov	eax, DWORD PTR fs:0
	push	eax
	push	ecx
	mov	DWORD PTR [ebp-16], -858993460		; ccccccccH
	mov	eax, DWORD PTR ___security_cookie
	xor	eax, ebp
	push	eax
	lea	eax, DWORD PTR __$EHRec$[ebp]
	mov	DWORD PTR fs:0, eax
	mov	DWORD PTR _this$[ebp], ecx

; 461  : 		_Free_proxy();

	mov	ecx, DWORD PTR _this$[ebp]
	call	?_Free_proxy@?$_Vector_alloc@U?$_Vec_base_types@PAVRaven_Bot@@V?$allocator@PAVRaven_Bot@@@std@@@std@@@std@@QAEXXZ ; std::_Vector_alloc<std::_Vec_base_types<Raven_Bot *,std::allocator<Raven_Bot *> > >::_Free_proxy

; 462  : 		}

	mov	ecx, DWORD PTR __$EHRec$[ebp]
	mov	DWORD PTR fs:0, ecx
	pop	ecx
	add	esp, 16					; 00000010H
	cmp	ebp, esp
	call	__RTC_CheckEsp
	mov	esp, ebp
	pop	ebp
	ret	0
_TEXT	ENDS
;	COMDAT text$x
text$x	SEGMENT
__ehhandler$??1?$_Vector_alloc@U?$_Vec_base_types@PAVRaven_Bot@@V?$allocator@PAVRaven_Bot@@@std@@@std@@@std@@QAE@XZ:
	mov	edx, DWORD PTR [esp+8]
	lea	eax, DWORD PTR [edx+12]
	mov	ecx, DWORD PTR [edx-8]
	xor	ecx, eax
	call	@__security_check_cookie@4
	mov	eax, OFFSET __ehfuncinfo$??1?$_Vector_alloc@U?$_Vec_base_types@PAVRaven_Bot@@V?$allocator@PAVRaven_Bot@@@std@@@std@@@std@@QAE@XZ
	jmp	___CxxFrameHandler3
text$x	ENDS
??1?$_Vector_alloc@U?$_Vec_base_types@PAVRaven_Bot@@V?$allocator@PAVRaven_Bot@@@std@@@std@@@std@@QAE@XZ ENDP ; std::_Vector_alloc<std::_Vec_base_types<Raven_Bot *,std::allocator<Raven_Bot *> > >::~_Vector_alloc<std::_Vec_base_types<Raven_Bot *,std::allocator<Raven_Bot *> > >
; Function compile flags: /Odtp /RTCsu
; File c:\program files (x86)\microsoft visual studio\2017\enterprise\vc\tools\msvc\14.15.26726\include\vector
;	COMDAT ??0?$_Vector_alloc@U?$_Vec_base_types@PAVRaven_Bot@@V?$allocator@PAVRaven_Bot@@@std@@@std@@@std@@QAE@XZ
_TEXT	SEGMENT
$T1 = -5						; size = 1
_this$ = -4						; size = 4
??0?$_Vector_alloc@U?$_Vec_base_types@PAVRaven_Bot@@V?$allocator@PAVRaven_Bot@@@std@@@std@@@std@@QAE@XZ PROC ; std::_Vector_alloc<std::_Vec_base_types<Raven_Bot *,std::allocator<Raven_Bot *> > >::_Vector_alloc<std::_Vec_base_types<Raven_Bot *,std::allocator<Raven_Bot *> > >, COMDAT
; _this$ = ecx

; 446  : 		{	// default construct allocator

	push	ebp
	mov	ebp, esp
	sub	esp, 8
	mov	DWORD PTR [ebp-8], -858993460		; ccccccccH
	mov	DWORD PTR [ebp-4], -858993460		; ccccccccH
	mov	DWORD PTR _this$[ebp], ecx

; 445  : 		: _Mypair(_Zero_then_variadic_args_t())

	movzx	eax, BYTE PTR $T1[ebp]
	push	eax
	mov	ecx, DWORD PTR _this$[ebp]
	call	??$?0$$V@?$_Compressed_pair@V?$allocator@PAVRaven_Bot@@@std@@V?$_Vector_val@U?$_Simple_types@PAVRaven_Bot@@@std@@@2@$00@std@@QAE@U_Zero_then_variadic_args_t@1@@Z ; std::_Compressed_pair<std::allocator<Raven_Bot *>,std::_Vector_val<std::_Simple_types<Raven_Bot *> >,1>::_Compressed_pair<std::allocator<Raven_Bot *>,std::_Vector_val<std::_Simple_types<Raven_Bot *> >,1><>

; 447  : 		_Alloc_proxy();

	mov	ecx, DWORD PTR _this$[ebp]
	call	?_Alloc_proxy@?$_Vector_alloc@U?$_Vec_base_types@PAVRaven_Bot@@V?$allocator@PAVRaven_Bot@@@std@@@std@@@std@@QAEXXZ ; std::_Vector_alloc<std::_Vec_base_types<Raven_Bot *,std::allocator<Raven_Bot *> > >::_Alloc_proxy

; 448  : 		}

	mov	eax, DWORD PTR _this$[ebp]
	add	esp, 8
	cmp	ebp, esp
	call	__RTC_CheckEsp
	mov	esp, ebp
	pop	ebp
	ret	0
??0?$_Vector_alloc@U?$_Vec_base_types@PAVRaven_Bot@@V?$allocator@PAVRaven_Bot@@@std@@@std@@@std@@QAE@XZ ENDP ; std::_Vector_alloc<std::_Vec_base_types<Raven_Bot *,std::allocator<Raven_Bot *> > >::_Vector_alloc<std::_Vec_base_types<Raven_Bot *,std::allocator<Raven_Bot *> > >
_TEXT	ENDS
; Function compile flags: /Odtp /RTCsu
; File c:\program files (x86)\microsoft visual studio\2017\enterprise\vc\tools\msvc\14.15.26726\include\xmemory0
;	COMDAT ?max_size@?$_Default_allocator_traits@V?$allocator@PAVRaven_Bot@@@std@@@std@@SAIABV?$allocator@PAVRaven_Bot@@@2@@Z
_TEXT	SEGMENT
___formal$ = 8						; size = 4
?max_size@?$_Default_allocator_traits@V?$allocator@PAVRaven_Bot@@@std@@@std@@SAIABV?$allocator@PAVRaven_Bot@@@2@@Z PROC ; std::_Default_allocator_traits<std::allocator<Raven_Bot *> >::max_size, COMDAT

; 891  : 		{	// get maximum size

	push	ebp
	mov	ebp, esp

; 892  : 		return (static_cast<size_t>(-1) / sizeof(value_type));

	mov	eax, 1073741823				; 3fffffffH

; 893  : 		}

	pop	ebp
	ret	0
?max_size@?$_Default_allocator_traits@V?$allocator@PAVRaven_Bot@@@std@@@std@@SAIABV?$allocator@PAVRaven_Bot@@@2@@Z ENDP ; std::_Default_allocator_traits<std::allocator<Raven_Bot *> >::max_size
_TEXT	ENDS
; Function compile flags: /Odtp /RTCsu
; File c:\program files (x86)\microsoft visual studio\2017\enterprise\vc\tools\msvc\14.15.26726\include\xmemory0
;	COMDAT ?allocate@?$allocator@PAVRaven_Bot@@@std@@QAEPAPAVRaven_Bot@@I@Z
_TEXT	SEGMENT
_this$ = -4						; size = 4
__Count$ = 8						; size = 4
?allocate@?$allocator@PAVRaven_Bot@@@std@@QAEPAPAVRaven_Bot@@I@Z PROC ; std::allocator<Raven_Bot *>::allocate, COMDAT
; _this$ = ecx

; 996  : 		{	// allocate array of _Count elements

	push	ebp
	mov	ebp, esp
	push	ecx
	mov	DWORD PTR [ebp-4], -858993460		; ccccccccH
	mov	DWORD PTR _this$[ebp], ecx

; 997  : 		return (static_cast<_Ty *>(_Allocate<_New_alignof<_Ty>>(_Get_size_of_n<sizeof(_Ty)>(_Count))));

	mov	eax, DWORD PTR __Count$[ebp]
	push	eax
	call	??$_Get_size_of_n@$03@std@@YAII@Z	; std::_Get_size_of_n<4>
	add	esp, 4
	push	eax
	call	??$_Allocate@$07U_Default_allocate_traits@std@@$0A@@std@@YAPAXI@Z ; std::_Allocate<8,std::_Default_allocate_traits,0>
	add	esp, 4

; 998  : 		}

	add	esp, 4
	cmp	ebp, esp
	call	__RTC_CheckEsp
	mov	esp, ebp
	pop	ebp
	ret	4
?allocate@?$allocator@PAVRaven_Bot@@@std@@QAEPAPAVRaven_Bot@@I@Z ENDP ; std::allocator<Raven_Bot *>::allocate
_TEXT	ENDS
; Function compile flags: /Odtp /RTCsu
; File c:\program files (x86)\microsoft visual studio\2017\enterprise\vc\tools\msvc\14.15.26726\include\xmemory0
;	COMDAT ?deallocate@?$allocator@PAVRaven_Bot@@@std@@QAEXQAPAVRaven_Bot@@I@Z
_TEXT	SEGMENT
_this$ = -4						; size = 4
__Ptr$ = 8						; size = 4
__Count$ = 12						; size = 4
?deallocate@?$allocator@PAVRaven_Bot@@@std@@QAEXQAPAVRaven_Bot@@I@Z PROC ; std::allocator<Raven_Bot *>::deallocate, COMDAT
; _this$ = ecx

; 990  : 		{	// deallocate object at _Ptr

	push	ebp
	mov	ebp, esp
	push	ecx
	mov	DWORD PTR [ebp-4], -858993460		; ccccccccH
	mov	DWORD PTR _this$[ebp], ecx

; 991  : 		// no overflow check on the following multiply; we assume _Allocate did that check
; 992  : 		_Deallocate<_New_alignof<_Ty>>(_Ptr, sizeof(_Ty) * _Count);

	mov	eax, DWORD PTR __Count$[ebp]
	shl	eax, 2
	push	eax
	mov	ecx, DWORD PTR __Ptr$[ebp]
	push	ecx
	call	??$_Deallocate@$07$0A@@std@@YAXPAXI@Z	; std::_Deallocate<8,0>
	add	esp, 8

; 993  : 		}

	add	esp, 4
	cmp	ebp, esp
	call	__RTC_CheckEsp
	mov	esp, ebp
	pop	ebp
	ret	8
?deallocate@?$allocator@PAVRaven_Bot@@@std@@QAEXQAPAVRaven_Bot@@I@Z ENDP ; std::allocator<Raven_Bot *>::deallocate
_TEXT	ENDS
; Function compile flags: /Odtp /RTCsu
; File c:\program files (x86)\microsoft visual studio\2017\enterprise\vc\tools\msvc\14.15.26726\include\xmemory0
;	COMDAT ??0?$allocator@PAVRaven_Bot@@@std@@QAE@XZ
_TEXT	SEGMENT
_this$ = -4						; size = 4
??0?$allocator@PAVRaven_Bot@@@std@@QAE@XZ PROC		; std::allocator<Raven_Bot *>::allocator<Raven_Bot *>, COMDAT
; _this$ = ecx

; 979  : 	constexpr allocator() noexcept

	push	ebp
	mov	ebp, esp
	push	ecx
	mov	DWORD PTR [ebp-4], -858993460		; ccccccccH
	mov	DWORD PTR _this$[ebp], ecx

; 980  : 		{	// construct default allocator (do nothing)
; 981  : 		}

	mov	eax, DWORD PTR _this$[ebp]
	mov	esp, ebp
	pop	ebp
	ret	0
??0?$allocator@PAVRaven_Bot@@@std@@QAE@XZ ENDP		; std::allocator<Raven_Bot *>::allocator<Raven_Bot *>
_TEXT	ENDS
; Function compile flags: /Odtp /RTCsu
; File d:\utilisateurs\samuel\mes documents\cours\uqac\ia\ravenproject\sources\raven_bot.h
;	COMDAT ?SetTeam@Raven_Bot@@QAEXPAVRaven_team@@@Z
_TEXT	SEGMENT
_this$ = -4						; size = 4
_new_team$ = 8						; size = 4
?SetTeam@Raven_Bot@@QAEXPAVRaven_team@@@Z PROC		; Raven_Bot::SetTeam, COMDAT
; _this$ = ecx

; 214  : 	void						       SetTeam(Raven_team* new_team){ m_pteam = new_team; }

	push	ebp
	mov	ebp, esp
	push	ecx
	mov	DWORD PTR [ebp-4], -858993460		; ccccccccH
	mov	DWORD PTR _this$[ebp], ecx
	mov	eax, DWORD PTR _this$[ebp]
	mov	ecx, DWORD PTR _new_team$[ebp]
	mov	DWORD PTR [eax+272], ecx
	mov	esp, ebp
	pop	ebp
	ret	4
?SetTeam@Raven_Bot@@QAEXPAVRaven_team@@@Z ENDP		; Raven_Bot::SetTeam
_TEXT	ENDS
; Function compile flags: /Odtp /RTCsu
; File d:\utilisateurs\samuel\mes documents\cours\uqac\ia\ravenproject\common\misc\utils.h
;	COMDAT ??__EMinFloat@@YAXXZ
text$di	SEGMENT
??__EMinFloat@@YAXXZ PROC				; `dynamic initializer for 'MinFloat'', COMDAT

; 25   : const float   MinFloat = (std::numeric_limits<float>::min)();

	push	ebp
	mov	ebp, esp
	call	?min@?$numeric_limits@M@std@@SAMXZ	; std::numeric_limits<float>::min
	fstp	DWORD PTR ?MinFloat@@3MB
	cmp	ebp, esp
	call	__RTC_CheckEsp
	pop	ebp
	ret	0
??__EMinFloat@@YAXXZ ENDP				; `dynamic initializer for 'MinFloat''
text$di	ENDS
; Function compile flags: /Odtp /RTCsu
; File d:\utilisateurs\samuel\mes documents\cours\uqac\ia\ravenproject\common\misc\utils.h
;	COMDAT ??__EMaxFloat@@YAXXZ
text$di	SEGMENT
??__EMaxFloat@@YAXXZ PROC				; `dynamic initializer for 'MaxFloat'', COMDAT

; 24   : const float   MaxFloat = (std::numeric_limits<float>::max)();

	push	ebp
	mov	ebp, esp
	call	?max@?$numeric_limits@M@std@@SAMXZ	; std::numeric_limits<float>::max
	fstp	DWORD PTR ?MaxFloat@@3MB
	cmp	ebp, esp
	call	__RTC_CheckEsp
	pop	ebp
	ret	0
??__EMaxFloat@@YAXXZ ENDP				; `dynamic initializer for 'MaxFloat''
text$di	ENDS
; Function compile flags: /Odtp /RTCsu
; File d:\utilisateurs\samuel\mes documents\cours\uqac\ia\ravenproject\common\misc\utils.h
;	COMDAT ??__EMinDouble@@YAXXZ
text$di	SEGMENT
??__EMinDouble@@YAXXZ PROC				; `dynamic initializer for 'MinDouble'', COMDAT

; 23   : const double  MinDouble = (std::numeric_limits<double>::min)();

	push	ebp
	mov	ebp, esp
	call	?min@?$numeric_limits@N@std@@SANXZ	; std::numeric_limits<double>::min
	fstp	QWORD PTR ?MinDouble@@3NB
	cmp	ebp, esp
	call	__RTC_CheckEsp
	pop	ebp
	ret	0
??__EMinDouble@@YAXXZ ENDP				; `dynamic initializer for 'MinDouble''
text$di	ENDS
; Function compile flags: /Odtp /RTCsu
; File d:\utilisateurs\samuel\mes documents\cours\uqac\ia\ravenproject\common\misc\utils.h
;	COMDAT ??__EMaxDouble@@YAXXZ
text$di	SEGMENT
??__EMaxDouble@@YAXXZ PROC				; `dynamic initializer for 'MaxDouble'', COMDAT

; 22   : const double  MaxDouble = (std::numeric_limits<double>::max)();

	push	ebp
	mov	ebp, esp
	call	?max@?$numeric_limits@N@std@@SANXZ	; std::numeric_limits<double>::max
	fstp	QWORD PTR ?MaxDouble@@3NB
	cmp	ebp, esp
	call	__RTC_CheckEsp
	pop	ebp
	ret	0
??__EMaxDouble@@YAXXZ ENDP				; `dynamic initializer for 'MaxDouble''
text$di	ENDS
; Function compile flags: /Odtp /RTCsu
; File d:\utilisateurs\samuel\mes documents\cours\uqac\ia\ravenproject\common\misc\utils.h
;	COMDAT ??__EMaxInt@@YAXXZ
text$di	SEGMENT
??__EMaxInt@@YAXXZ PROC					; `dynamic initializer for 'MaxInt'', COMDAT

; 21   : const int     MaxInt = (std::numeric_limits<int>::max)();

	push	ebp
	mov	ebp, esp
	call	?max@?$numeric_limits@H@std@@SAHXZ	; std::numeric_limits<int>::max
	mov	DWORD PTR ?MaxInt@@3HB, eax
	cmp	ebp, esp
	call	__RTC_CheckEsp
	pop	ebp
	ret	0
??__EMaxInt@@YAXXZ ENDP					; `dynamic initializer for 'MaxInt''
text$di	ENDS
; Function compile flags: /Odtp /RTCsu
; File c:\program files (x86)\microsoft visual studio\2017\enterprise\vc\tools\msvc\14.15.26726\include\xmemory0
;	COMDAT ?_Adjust_manually_vector_aligned@std@@YAXAAPAXAAI@Z
_TEXT	SEGMENT
__Back_shift$ = -16					; size = 4
__Min_back_shift$ = -12					; size = 4
__Ptr_container$ = -8					; size = 4
__Ptr_user$ = -4					; size = 4
__Ptr$ = 8						; size = 4
__Bytes$ = 12						; size = 4
?_Adjust_manually_vector_aligned@std@@YAXAAPAXAAI@Z PROC ; std::_Adjust_manually_vector_aligned, COMDAT

; 114  : 	{	// adjust parameters from _Allocate_manually_vector_aligned to pass to operator delete

	push	ebp
	mov	ebp, esp
	sub	esp, 16					; 00000010H
	mov	eax, -858993460				; ccccccccH
	mov	DWORD PTR [ebp-16], eax
	mov	DWORD PTR [ebp-12], eax
	mov	DWORD PTR [ebp-8], eax
	mov	DWORD PTR [ebp-4], eax

; 115  : 	_Bytes += _Non_user_size;

	mov	eax, DWORD PTR __Bytes$[ebp]
	mov	ecx, DWORD PTR [eax]
	add	ecx, 39					; 00000027H
	mov	edx, DWORD PTR __Bytes$[ebp]
	mov	DWORD PTR [edx], ecx

; 116  : 
; 117  : 	const uintptr_t * const _Ptr_user = reinterpret_cast<uintptr_t *>(_Ptr);

	mov	eax, DWORD PTR __Ptr$[ebp]
	mov	ecx, DWORD PTR [eax]
	mov	DWORD PTR __Ptr_user$[ebp], ecx

; 118  : 	const uintptr_t _Ptr_container = _Ptr_user[-1];

	mov	edx, 4
	imul	eax, edx, -1
	mov	ecx, DWORD PTR __Ptr_user$[ebp]
	mov	edx, DWORD PTR [ecx+eax]
	mov	DWORD PTR __Ptr_container$[ebp], edx
$LN4@Adjust_man:

; 119  : 
; 120  : 	// If the following asserts, it likely means that we are performing
; 121  : 	// an aligned delete on memory coming from an unaligned allocation.
; 122  : 	_STL_ASSERT(_Ptr_user[-2] == _Big_allocation_sentinel, "invalid argument");

	mov	eax, 4
	imul	ecx, eax, -2
	mov	edx, DWORD PTR __Ptr_user$[ebp]
	cmp	DWORD PTR [edx+ecx], -84215046		; fafafafaH
	jne	SHORT $LN7@Adjust_man
	jmp	SHORT $LN2@Adjust_man
$LN7@Adjust_man:
	push	OFFSET ??_C@_0BB@FCMFBGOM@invalid?5argument@
	push	OFFSET ??_C@_02DKCKIIND@?$CFs@
	push	0
	push	122					; 0000007aH
	push	OFFSET ??_C@_0GK@FKLKIKPD@c?3?2program?5files?5?$CIx86?$CJ?2microsof@
	push	2
	call	__CrtDbgReport
	add	esp, 24					; 00000018H
	cmp	eax, 1
	jne	SHORT $LN19@Adjust_man
	int	3
$LN19@Adjust_man:
	push	0
	push	122					; 0000007aH
	push	OFFSET ??_C@_1NE@MCNNPIKO@?$AAc?$AA?3?$AA?2?$AAp?$AAr?$AAo?$AAg?$AAr?$AAa?$AAm?$AA?5?$AAf?$AAi?$AAl?$AAe@
	push	OFFSET ??_C@_1EK@NIFDJFDG@?$AAs?$AAt?$AAd?$AA?3?$AA?3?$AA_?$AAA?$AAd?$AAj?$AAu?$AAs?$AAt?$AA_?$AAm?$AAa@
	push	OFFSET ??_C@_1CG@JNLFBNGN@?$AA?$CC?$AAi?$AAn?$AAv?$AAa?$AAl?$AAi?$AAd?$AA?5?$AAa?$AAr?$AAg?$AAu?$AAm?$AAe@
	call	__invalid_parameter
	add	esp, 20					; 00000014H
	xor	ecx, ecx
	jne	SHORT $LN7@Adjust_man
$LN2@Adjust_man:
	xor	edx, edx
	jne	SHORT $LN4@Adjust_man

; 123  : 
; 124  : 	// Extra paranoia on aligned allocation/deallocation; ensure _Ptr_container is
; 125  : 	// in range [_Min_back_shift, _Non_user_size]
; 126  :   #ifdef _DEBUG
; 127  : 	constexpr uintptr_t _Min_back_shift = 2 * sizeof(void *);

	mov	DWORD PTR __Min_back_shift$[ebp], 8

; 128  :   #else /* ^^^ _DEBUG ^^^ // vvv !_DEBUG vvv */
; 129  : 	constexpr uintptr_t _Min_back_shift = sizeof(void *);
; 130  :   #endif /* _DEBUG */
; 131  : 	const uintptr_t _Back_shift = reinterpret_cast<uintptr_t>(_Ptr) - _Ptr_container;

	mov	eax, DWORD PTR __Ptr$[ebp]
	mov	ecx, DWORD PTR [eax]
	sub	ecx, DWORD PTR __Ptr_container$[ebp]
	mov	DWORD PTR __Back_shift$[ebp], ecx
$LN10@Adjust_man:

; 132  : 	_STL_VERIFY(_Back_shift >= _Min_back_shift && _Back_shift <= _Non_user_size, "invalid argument");

	cmp	DWORD PTR __Back_shift$[ebp], 8
	jb	SHORT $LN13@Adjust_man
	cmp	DWORD PTR __Back_shift$[ebp], 39	; 00000027H
	ja	SHORT $LN13@Adjust_man
	jmp	SHORT $LN8@Adjust_man
$LN13@Adjust_man:
	push	OFFSET ??_C@_0BB@FCMFBGOM@invalid?5argument@
	push	OFFSET ??_C@_02DKCKIIND@?$CFs@
	push	0
	push	132					; 00000084H
	push	OFFSET ??_C@_0GK@FKLKIKPD@c?3?2program?5files?5?$CIx86?$CJ?2microsof@
	push	2
	call	__CrtDbgReport
	add	esp, 24					; 00000018H
	cmp	eax, 1
	jne	SHORT $LN20@Adjust_man
	int	3
$LN20@Adjust_man:
	push	0
	push	132					; 00000084H
	push	OFFSET ??_C@_1NE@MCNNPIKO@?$AAc?$AA?3?$AA?2?$AAp?$AAr?$AAo?$AAg?$AAr?$AAa?$AAm?$AA?5?$AAf?$AAi?$AAl?$AAe@
	push	OFFSET ??_C@_1EK@NIFDJFDG@?$AAs?$AAt?$AAd?$AA?3?$AA?3?$AA_?$AAA?$AAd?$AAj?$AAu?$AAs?$AAt?$AA_?$AAm?$AAa@
	push	OFFSET ??_C@_1CG@JNLFBNGN@?$AA?$CC?$AAi?$AAn?$AAv?$AAa?$AAl?$AAi?$AAd?$AA?5?$AAa?$AAr?$AAg?$AAu?$AAm?$AAe@
	call	__invalid_parameter
	add	esp, 20					; 00000014H
	xor	eax, eax
	jne	SHORT $LN13@Adjust_man
$LN8@Adjust_man:
	xor	ecx, ecx
	jne	SHORT $LN10@Adjust_man

; 133  : 	_Ptr = reinterpret_cast<void *>(_Ptr_container);

	mov	edx, DWORD PTR __Ptr$[ebp]
	mov	eax, DWORD PTR __Ptr_container$[ebp]
	mov	DWORD PTR [edx], eax

; 134  : 	}

	add	esp, 16					; 00000010H
	cmp	ebp, esp
	call	__RTC_CheckEsp
	mov	esp, ebp
	pop	ebp
	ret	0
?_Adjust_manually_vector_aligned@std@@YAXAAPAXAAI@Z ENDP ; std::_Adjust_manually_vector_aligned
_TEXT	ENDS
; Function compile flags: /Odtp /RTCsu
; File c:\program files (x86)\microsoft visual studio\2017\enterprise\vc\tools\msvc\14.15.26726\include\xmemory0
;	COMDAT ?_Allocate@_Default_allocate_traits@std@@SAPAXI@Z
_TEXT	SEGMENT
__Bytes$ = 8						; size = 4
?_Allocate@_Default_allocate_traits@std@@SAPAXI@Z PROC	; std::_Default_allocate_traits::_Allocate, COMDAT

; 51   : 		{

	push	ebp
	mov	ebp, esp

; 52   : 		return (::operator new(_Bytes));

	mov	eax, DWORD PTR __Bytes$[ebp]
	push	eax
	call	??2@YAPAXI@Z				; operator new
	add	esp, 4

; 53   : 		}

	cmp	ebp, esp
	call	__RTC_CheckEsp
	pop	ebp
	ret	0
?_Allocate@_Default_allocate_traits@std@@SAPAXI@Z ENDP	; std::_Default_allocate_traits::_Allocate
_TEXT	ENDS
; Function compile flags: /Odtp /RTCsu
; File c:\program files (x86)\microsoft visual studio\2017\enterprise\vc\tools\msvc\14.15.26726\include\xutility
;	COMDAT ?_Getpnext@_Iterator_base12@std@@QAEPAPAU12@XZ
_TEXT	SEGMENT
_this$ = -4						; size = 4
?_Getpnext@_Iterator_base12@std@@QAEPAPAU12@XZ PROC	; std::_Iterator_base12::_Getpnext, COMDAT
; _this$ = ecx

; 186  : 		{	// get address of remaining iterator chain

	push	ebp
	mov	ebp, esp
	push	ecx
	mov	DWORD PTR [ebp-4], -858993460		; ccccccccH
	mov	DWORD PTR _this$[ebp], ecx

; 187  : 		return (&_Mynextiter);

	mov	eax, DWORD PTR _this$[ebp]
	add	eax, 4

; 188  : 		}

	mov	esp, ebp
	pop	ebp
	ret	0
?_Getpnext@_Iterator_base12@std@@QAEPAPAU12@XZ ENDP	; std::_Iterator_base12::_Getpnext
_TEXT	ENDS
; Function compile flags: /Odtp /RTCsu
; File c:\program files (x86)\microsoft visual studio\2017\enterprise\vc\tools\msvc\14.15.26726\include\xutility
;	COMDAT ?_Clrcont@_Iterator_base12@std@@QAEXXZ
_TEXT	SEGMENT
_this$ = -4						; size = 4
?_Clrcont@_Iterator_base12@std@@QAEXXZ PROC		; std::_Iterator_base12::_Clrcont, COMDAT
; _this$ = ecx

; 176  : 		{	// disown owning container

	push	ebp
	mov	ebp, esp
	push	ecx
	mov	DWORD PTR [ebp-4], -858993460		; ccccccccH
	mov	DWORD PTR _this$[ebp], ecx

; 177  : 		_Myproxy = nullptr;

	mov	eax, DWORD PTR _this$[ebp]
	mov	DWORD PTR [eax], 0

; 178  : 		}

	mov	esp, ebp
	pop	ebp
	ret	0
?_Clrcont@_Iterator_base12@std@@QAEXXZ ENDP		; std::_Iterator_base12::_Clrcont
_TEXT	ENDS
; Function compile flags: /Odtp /RTCsu
; File c:\program files (x86)\microsoft visual studio\2017\enterprise\vc\tools\msvc\14.15.26726\include\xutility
;	COMDAT ?_Orphan_all@_Container_base12@std@@QAEXXZ
_TEXT	SEGMENT
__Pnext$2 = -32						; size = 4
__Lock$3 = -24						; size = 4
_this$ = -16						; size = 4
__$EHRec$ = -12						; size = 12
?_Orphan_all@_Container_base12@std@@QAEXXZ PROC		; std::_Container_base12::_Orphan_all, COMDAT
; _this$ = ecx

; 214  : 	{	// orphan all iterators

	push	ebp
	mov	ebp, esp
	push	-1
	push	__ehhandler$?_Orphan_all@_Container_base12@std@@QAEXXZ
	mov	eax, DWORD PTR fs:0
	push	eax
	sub	esp, 20					; 00000014H
	mov	eax, -858993460				; ccccccccH
	mov	DWORD PTR [ebp-32], eax
	mov	DWORD PTR [ebp-28], eax
	mov	DWORD PTR [ebp-24], eax
	mov	DWORD PTR [ebp-20], eax
	mov	DWORD PTR [ebp-16], eax
	mov	eax, DWORD PTR ___security_cookie
	xor	eax, ebp
	push	eax
	lea	eax, DWORD PTR __$EHRec$[ebp]
	mov	DWORD PTR fs:0, eax
	mov	DWORD PTR _this$[ebp], ecx

; 215  :  #if _ITERATOR_DEBUG_LEVEL == 2
; 216  : 	if (_Myproxy != nullptr)

	mov	eax, DWORD PTR _this$[ebp]
	cmp	DWORD PTR [eax], 0
	je	SHORT $LN6@Orphan_all

; 217  : 		{	// proxy allocated, drain it
; 218  : 		_Lockit _Lock(_LOCK_DEBUG);

	push	3
	lea	ecx, DWORD PTR __Lock$3[ebp]
	call	??0_Lockit@std@@QAE@H@Z			; std::_Lockit::_Lockit

; 219  : 
; 220  : 		for (_Iterator_base12 **_Pnext = &_Myproxy->_Myfirstiter;

	mov	ecx, DWORD PTR _this$[ebp]
	mov	edx, DWORD PTR [ecx]
	add	edx, 4
	mov	DWORD PTR __Pnext$2[ebp], edx
	jmp	SHORT $LN4@Orphan_all
$LN2@Orphan_all:

; 221  : 			*_Pnext != nullptr; *_Pnext = (*_Pnext)->_Mynextiter)

	mov	eax, DWORD PTR __Pnext$2[ebp]
	mov	ecx, DWORD PTR [eax]
	mov	edx, DWORD PTR __Pnext$2[ebp]
	mov	eax, DWORD PTR [ecx+4]
	mov	DWORD PTR [edx], eax
$LN4@Orphan_all:
	mov	ecx, DWORD PTR __Pnext$2[ebp]
	cmp	DWORD PTR [ecx], 0
	je	SHORT $LN3@Orphan_all

; 222  : 			(*_Pnext)->_Myproxy = nullptr;

	mov	edx, DWORD PTR __Pnext$2[ebp]
	mov	eax, DWORD PTR [edx]
	mov	DWORD PTR [eax], 0
	jmp	SHORT $LN2@Orphan_all
$LN3@Orphan_all:

; 223  : 		_Myproxy->_Myfirstiter = nullptr;

	mov	ecx, DWORD PTR _this$[ebp]
	mov	edx, DWORD PTR [ecx]
	mov	DWORD PTR [edx+4], 0

; 224  : 		}

	lea	ecx, DWORD PTR __Lock$3[ebp]
	call	??1_Lockit@std@@QAE@XZ			; std::_Lockit::~_Lockit
$LN6@Orphan_all:

; 225  :  #endif /* _ITERATOR_DEBUG_LEVEL == 2 */
; 226  : 	}

	push	edx
	mov	ecx, ebp
	push	eax
	lea	edx, DWORD PTR $LN10@Orphan_all
	call	@_RTC_CheckStackVars@8
	pop	eax
	pop	edx
	mov	ecx, DWORD PTR __$EHRec$[ebp]
	mov	DWORD PTR fs:0, ecx
	pop	ecx
	add	esp, 32					; 00000020H
	cmp	ebp, esp
	call	__RTC_CheckEsp
	mov	esp, ebp
	pop	ebp
	ret	0
	npad	1
$LN10@Orphan_all:
	DD	1
	DD	$LN9@Orphan_all
$LN9@Orphan_all:
	DD	-24					; ffffffe8H
	DD	4
	DD	$LN7@Orphan_all
$LN7@Orphan_all:
	DB	95					; 0000005fH
	DB	76					; 0000004cH
	DB	111					; 0000006fH
	DB	99					; 00000063H
	DB	107					; 0000006bH
	DB	0
_TEXT	ENDS
;	COMDAT text$x
text$x	SEGMENT
__ehhandler$?_Orphan_all@_Container_base12@std@@QAEXXZ:
	mov	edx, DWORD PTR [esp+8]
	lea	eax, DWORD PTR [edx+12]
	mov	ecx, DWORD PTR [edx-24]
	xor	ecx, eax
	call	@__security_check_cookie@4
	mov	eax, OFFSET __ehfuncinfo$?_Orphan_all@_Container_base12@std@@QAEXXZ
	jmp	___CxxFrameHandler3
text$x	ENDS
?_Orphan_all@_Container_base12@std@@QAEXXZ ENDP		; std::_Container_base12::_Orphan_all
; Function compile flags: /Odtp /RTCsu
; File c:\program files (x86)\microsoft visual studio\2017\enterprise\vc\tools\msvc\14.15.26726\include\xutility
;	COMDAT ?_Getpfirst@_Container_base12@std@@QBEPAPAU_Iterator_base12@2@XZ
_TEXT	SEGMENT
tv68 = -8						; size = 4
_this$ = -4						; size = 4
?_Getpfirst@_Container_base12@std@@QBEPAPAU_Iterator_base12@2@XZ PROC ; std::_Container_base12::_Getpfirst, COMDAT
; _this$ = ecx

; 95   : 		{	// get address of iterator chain

	push	ebp
	mov	ebp, esp
	sub	esp, 8
	mov	DWORD PTR [ebp-8], -858993460		; ccccccccH
	mov	DWORD PTR [ebp-4], -858993460		; ccccccccH
	mov	DWORD PTR _this$[ebp], ecx

; 96   : 		return (_Myproxy == nullptr ? nullptr : &_Myproxy->_Myfirstiter);

	mov	eax, DWORD PTR _this$[ebp]
	cmp	DWORD PTR [eax], 0
	jne	SHORT $LN3@Getpfirst
	mov	DWORD PTR tv68[ebp], 0
	jmp	SHORT $LN4@Getpfirst
$LN3@Getpfirst:
	mov	ecx, DWORD PTR _this$[ebp]
	mov	edx, DWORD PTR [ecx]
	add	edx, 4
	mov	DWORD PTR tv68[ebp], edx
$LN4@Getpfirst:
	mov	eax, DWORD PTR tv68[ebp]

; 97   : 		}

	mov	esp, ebp
	pop	ebp
	ret	0
?_Getpfirst@_Container_base12@std@@QBEPAPAU_Iterator_base12@2@XZ ENDP ; std::_Container_base12::_Getpfirst
_TEXT	ENDS
; Function compile flags: /Odtp /RTCsu
; File c:\program files (x86)\microsoft visual studio\2017\enterprise\vc\tools\msvc\14.15.26726\include\xutility
;	COMDAT ??0_Container_base12@std@@QAE@XZ
_TEXT	SEGMENT
_this$ = -4						; size = 4
??0_Container_base12@std@@QAE@XZ PROC			; std::_Container_base12::_Container_base12, COMDAT
; _this$ = ecx

; 81   : 		{	// construct childless container

	push	ebp
	mov	ebp, esp
	push	ecx
	mov	DWORD PTR [ebp-4], -858993460		; ccccccccH
	mov	DWORD PTR _this$[ebp], ecx

; 80   : 		: _Myproxy(nullptr)

	mov	eax, DWORD PTR _this$[ebp]
	mov	DWORD PTR [eax], 0

; 82   : 		}

	mov	eax, DWORD PTR _this$[ebp]
	mov	esp, ebp
	pop	ebp
	ret	0
??0_Container_base12@std@@QAE@XZ ENDP			; std::_Container_base12::_Container_base12
_TEXT	ENDS
; Function compile flags: /Odtp /RTCsu
; File c:\program files (x86)\microsoft visual studio\2017\enterprise\vc\tools\msvc\14.15.26726\include\xutility
;	COMDAT ??0_Container_proxy@std@@QAE@XZ
_TEXT	SEGMENT
_this$ = -4						; size = 4
??0_Container_proxy@std@@QAE@XZ PROC			; std::_Container_proxy::_Container_proxy, COMDAT
; _this$ = ecx

; 69   : 		{	// construct from pointers

	push	ebp
	mov	ebp, esp
	push	ecx
	mov	DWORD PTR [ebp-4], -858993460		; ccccccccH
	mov	DWORD PTR _this$[ebp], ecx

; 68   : 		: _Mycont(nullptr), _Myfirstiter(nullptr)

	mov	eax, DWORD PTR _this$[ebp]
	mov	DWORD PTR [eax], 0
	mov	ecx, DWORD PTR _this$[ebp]
	mov	DWORD PTR [ecx+4], 0

; 70   : 		}

	mov	eax, DWORD PTR _this$[ebp]
	mov	esp, ebp
	pop	ebp
	ret	0
??0_Container_proxy@std@@QAE@XZ ENDP			; std::_Container_proxy::_Container_proxy
_TEXT	ENDS
; Function compile flags: /Odtp /RTCsu
; File c:\program files (x86)\microsoft visual studio\2017\enterprise\vc\tools\msvc\14.15.26726\include\limits
;	COMDAT ?max@?$numeric_limits@N@std@@SANXZ
_TEXT	SEGMENT
?max@?$numeric_limits@N@std@@SANXZ PROC			; std::numeric_limits<double>::max, COMDAT

; 1062 : 		{	// return maximum value

	push	ebp
	mov	ebp, esp

; 1063 : 		return (DBL_MAX);

	fld	QWORD PTR __real@7fefffffffffffff

; 1064 : 		}

	pop	ebp
	ret	0
?max@?$numeric_limits@N@std@@SANXZ ENDP			; std::numeric_limits<double>::max
_TEXT	ENDS
; Function compile flags: /Odtp /RTCsu
; File c:\program files (x86)\microsoft visual studio\2017\enterprise\vc\tools\msvc\14.15.26726\include\limits
;	COMDAT ?min@?$numeric_limits@N@std@@SANXZ
_TEXT	SEGMENT
?min@?$numeric_limits@N@std@@SANXZ PROC			; std::numeric_limits<double>::min, COMDAT

; 1057 : 		{	// return minimum value

	push	ebp
	mov	ebp, esp

; 1058 : 		return (DBL_MIN);

	fld	QWORD PTR __real@0010000000000000

; 1059 : 		}

	pop	ebp
	ret	0
?min@?$numeric_limits@N@std@@SANXZ ENDP			; std::numeric_limits<double>::min
_TEXT	ENDS
; Function compile flags: /Odtp /RTCsu
; File c:\program files (x86)\microsoft visual studio\2017\enterprise\vc\tools\msvc\14.15.26726\include\limits
;	COMDAT ?max@?$numeric_limits@M@std@@SAMXZ
_TEXT	SEGMENT
?max@?$numeric_limits@M@std@@SAMXZ PROC			; std::numeric_limits<float>::max, COMDAT

; 1003 : 		{	// return maximum value

	push	ebp
	mov	ebp, esp

; 1004 : 		return (FLT_MAX);

	fld	DWORD PTR __real@7f7fffff

; 1005 : 		}

	pop	ebp
	ret	0
?max@?$numeric_limits@M@std@@SAMXZ ENDP			; std::numeric_limits<float>::max
_TEXT	ENDS
; Function compile flags: /Odtp /RTCsu
; File c:\program files (x86)\microsoft visual studio\2017\enterprise\vc\tools\msvc\14.15.26726\include\limits
;	COMDAT ?min@?$numeric_limits@M@std@@SAMXZ
_TEXT	SEGMENT
?min@?$numeric_limits@M@std@@SAMXZ PROC			; std::numeric_limits<float>::min, COMDAT

; 998  : 		{	// return minimum value

	push	ebp
	mov	ebp, esp

; 999  : 		return (FLT_MIN);

	fld	DWORD PTR __real@00800000

; 1000 : 		}

	pop	ebp
	ret	0
?min@?$numeric_limits@M@std@@SAMXZ ENDP			; std::numeric_limits<float>::min
_TEXT	ENDS
; Function compile flags: /Odtp /RTCsu
; File c:\program files (x86)\microsoft visual studio\2017\enterprise\vc\tools\msvc\14.15.26726\include\limits
;	COMDAT ?max@?$numeric_limits@H@std@@SAHXZ
_TEXT	SEGMENT
?max@?$numeric_limits@H@std@@SAHXZ PROC			; std::numeric_limits<int>::max, COMDAT

; 616  : 		{	// return maximum value

	push	ebp
	mov	ebp, esp

; 617  : 		return (INT_MAX);

	mov	eax, 2147483647				; 7fffffffH

; 618  : 		}

	pop	ebp
	ret	0
?max@?$numeric_limits@H@std@@SAHXZ ENDP			; std::numeric_limits<int>::max
_TEXT	ENDS
; Function compile flags: /Odtp /RTCsu
; File c:\program files (x86)\microsoft visual studio\2017\enterprise\vc\tools\msvc\14.15.26726\include\vcruntime_new.h
;	COMDAT ??2@YAPAXIPAX@Z
_TEXT	SEGMENT
__Size$ = 8						; size = 4
__Where$ = 12						; size = 4
??2@YAPAXIPAX@Z PROC					; operator new, COMDAT

; 185  :     {

	push	ebp
	mov	ebp, esp

; 186  :         (void)_Size;
; 187  :         return _Where;

	mov	eax, DWORD PTR __Where$[ebp]

; 188  :     }

	pop	ebp
	ret	0
??2@YAPAXIPAX@Z ENDP					; operator new
_TEXT	ENDS
; Function compile flags: /Odtp /RTCsu
; File d:\utilisateurs\samuel\mes documents\cours\uqac\ia\ravenproject\sources\raven_team.cpp
;	COMDAT ?__empty_global_delete@@YAXPAXI@Z
_TEXT	SEGMENT
___formal$ = 8						; size = 4
___formal$ = 12						; size = 4
?__empty_global_delete@@YAXPAXI@Z PROC			; __empty_global_delete, COMDAT

	push	ebp
	mov	ebp, esp
	pop	ebp
	ret	0
?__empty_global_delete@@YAXPAXI@Z ENDP			; __empty_global_delete
_TEXT	ENDS
; Function compile flags: /Odtp /RTCsu
; File d:\utilisateurs\samuel\mes documents\cours\uqac\ia\ravenproject\sources\raven_team.cpp
;	COMDAT ?__empty_global_delete@@YAXPAX@Z
_TEXT	SEGMENT
___formal$ = 8						; size = 4
?__empty_global_delete@@YAXPAX@Z PROC			; __empty_global_delete, COMDAT

	push	ebp
	mov	ebp, esp
	pop	ebp
	ret	0
?__empty_global_delete@@YAXPAX@Z ENDP			; __empty_global_delete
_TEXT	ENDS
END
