; Listing generated by Microsoft (R) Optimizing Compiler Version 19.15.26730.0 

	TITLE	D:\Utilisateurs\Samuel\Mes documents\Cours\UQAC\IA\RavenProject\Sources\WeaponMarkers.cpp
	.686P
	.XMM
	include listing.inc
	.model	flat

INCLUDELIB LIBCMTD
INCLUDELIB OLDNAMES

CONST	SEGMENT
?colors@@3QBKB DD 0ffH					; colors
	DD	0ff0000H
	DD	0ff00H
	DD	00H
	DD	0c8c8ffH
	DD	0c8c8c8H
	DD	0ffffH
	DD	0aaffH
	DD	0aa00ffH
	DD	05a85H
	DD	0ffffffH
	DD	06400H
	DD	0ffff00H
	DD	0c8c8c8H
	DD	0e6e6ffH
CONST	ENDS
PUBLIC	?__empty_global_delete@@YAXPAX@Z		; __empty_global_delete
PUBLIC	?__empty_global_delete@@YAXPAXI@Z		; __empty_global_delete
PUBLIC	??2@YAPAXIPAX@Z					; operator new
PUBLIC	?max@?$numeric_limits@H@std@@SAHXZ		; std::numeric_limits<int>::max
PUBLIC	?min@?$numeric_limits@M@std@@SAMXZ		; std::numeric_limits<float>::min
PUBLIC	?max@?$numeric_limits@M@std@@SAMXZ		; std::numeric_limits<float>::max
PUBLIC	?min@?$numeric_limits@N@std@@SANXZ		; std::numeric_limits<double>::min
PUBLIC	?max@?$numeric_limits@N@std@@SANXZ		; std::numeric_limits<double>::max
PUBLIC	?_Adopt@_Iterator_base0@std@@QAEXPBX@Z		; std::_Iterator_base0::_Adopt
PUBLIC	??0_Container_proxy@std@@QAE@XZ			; std::_Container_proxy::_Container_proxy
PUBLIC	??0_Container_base12@std@@QAE@XZ		; std::_Container_base12::_Container_base12
PUBLIC	?_Getpfirst@_Container_base12@std@@QBEPAPAU_Iterator_base12@2@XZ ; std::_Container_base12::_Getpfirst
PUBLIC	?_Orphan_all@_Container_base12@std@@QAEXXZ	; std::_Container_base12::_Orphan_all
PUBLIC	?_Swap_all@_Container_base12@std@@QAEXAAU12@@Z	; std::_Container_base12::_Swap_all
PUBLIC	??0_Iterator_base12@std@@QAE@XZ			; std::_Iterator_base12::_Iterator_base12
PUBLIC	??1_Iterator_base12@std@@QAE@XZ			; std::_Iterator_base12::~_Iterator_base12
PUBLIC	?_Adopt@_Iterator_base12@std@@QAEXPBU_Container_base12@2@@Z ; std::_Iterator_base12::_Adopt
PUBLIC	?_Clrcont@_Iterator_base12@std@@QAEXXZ		; std::_Iterator_base12::_Clrcont
PUBLIC	?_Getcont@_Iterator_base12@std@@QBEPBU_Container_base12@2@XZ ; std::_Iterator_base12::_Getcont
PUBLIC	?_Getpnext@_Iterator_base12@std@@QAEPAPAU12@XZ	; std::_Iterator_base12::_Getpnext
PUBLIC	?_Orphan_me@_Iterator_base12@std@@QAEXXZ	; std::_Iterator_base12::_Orphan_me
PUBLIC	?_Allocate@_Default_allocate_traits@std@@SAPAXI@Z ; std::_Default_allocate_traits::_Allocate
PUBLIC	?_Adjust_manually_vector_aligned@std@@YAXAAPAXAAI@Z ; std::_Adjust_manually_vector_aligned
PUBLIC	??0Vector2D@@QAE@XZ				; Vector2D::Vector2D
PUBLIC	??0Vector2D@@QAE@NN@Z				; Vector2D::Vector2D
PUBLIC	?Perp@Vector2D@@QBE?AU1@XZ			; Vector2D::Perp
PUBLIC	??0Matrix@C2DMatrix@@QAE@XZ			; C2DMatrix::Matrix::Matrix
PUBLIC	?MatrixMultiply@C2DMatrix@@AAEXAAUMatrix@1@@Z	; C2DMatrix::MatrixMultiply
PUBLIC	??0C2DMatrix@@QAE@XZ				; C2DMatrix::C2DMatrix
PUBLIC	?Identity@C2DMatrix@@QAEXXZ			; C2DMatrix::Identity
PUBLIC	?Translate@C2DMatrix@@QAEXNN@Z			; C2DMatrix::Translate
PUBLIC	?Scale@C2DMatrix@@QAEXNN@Z			; C2DMatrix::Scale
PUBLIC	?Rotate@C2DMatrix@@QAEXABUVector2D@@0@Z		; C2DMatrix::Rotate
PUBLIC	?TransformVector2Ds@C2DMatrix@@QAEXAAV?$vector@UVector2D@@V?$allocator@UVector2D@@@std@@@std@@@Z ; C2DMatrix::TransformVector2Ds
PUBLIC	??0?$allocator@UVector2D@@@std@@QAE@XZ		; std::allocator<Vector2D>::allocator<Vector2D>
PUBLIC	?deallocate@?$allocator@UVector2D@@@std@@QAEXQAUVector2D@@I@Z ; std::allocator<Vector2D>::deallocate
PUBLIC	?allocate@?$allocator@UVector2D@@@std@@QAEPAUVector2D@@I@Z ; std::allocator<Vector2D>::allocate
PUBLIC	?max_size@?$_Default_allocator_traits@V?$allocator@UVector2D@@@std@@@std@@SAIABV?$allocator@UVector2D@@@2@@Z ; std::_Default_allocator_traits<std::allocator<Vector2D> >::max_size
PUBLIC	?select_on_container_copy_construction@?$_Default_allocator_traits@V?$allocator@UVector2D@@@std@@@std@@SA?AV?$allocator@UVector2D@@@2@ABV32@@Z ; std::_Default_allocator_traits<std::allocator<Vector2D> >::select_on_container_copy_construction
PUBLIC	??0?$_Vector_alloc@U?$_Vec_base_types@UVector2D@@V?$allocator@UVector2D@@@std@@@std@@@std@@QAE@XZ ; std::_Vector_alloc<std::_Vec_base_types<Vector2D,std::allocator<Vector2D> > >::_Vector_alloc<std::_Vec_base_types<Vector2D,std::allocator<Vector2D> > >
PUBLIC	??1?$_Vector_alloc@U?$_Vec_base_types@UVector2D@@V?$allocator@UVector2D@@@std@@@std@@@std@@QAE@XZ ; std::_Vector_alloc<std::_Vec_base_types<Vector2D,std::allocator<Vector2D> > >::~_Vector_alloc<std::_Vec_base_types<Vector2D,std::allocator<Vector2D> > >
PUBLIC	?_Move_alloc@?$_Vector_alloc@U?$_Vec_base_types@UVector2D@@V?$allocator@UVector2D@@@std@@@std@@@std@@QAEXAAV?$allocator@UVector2D@@@2@@Z ; std::_Vector_alloc<std::_Vec_base_types<Vector2D,std::allocator<Vector2D> > >::_Move_alloc
PUBLIC	?_Alloc_proxy@?$_Vector_alloc@U?$_Vec_base_types@UVector2D@@V?$allocator@UVector2D@@@std@@@std@@@std@@QAEXXZ ; std::_Vector_alloc<std::_Vec_base_types<Vector2D,std::allocator<Vector2D> > >::_Alloc_proxy
PUBLIC	?_Free_proxy@?$_Vector_alloc@U?$_Vec_base_types@UVector2D@@V?$allocator@UVector2D@@@std@@@std@@@std@@QAEXXZ ; std::_Vector_alloc<std::_Vec_base_types<Vector2D,std::allocator<Vector2D> > >::_Free_proxy
PUBLIC	?_Getpfirst@?$_Vector_alloc@U?$_Vec_base_types@UVector2D@@V?$allocator@UVector2D@@@std@@@std@@@std@@QBEPAPAU_Iterator_base12@2@XZ ; std::_Vector_alloc<std::_Vec_base_types<Vector2D,std::allocator<Vector2D> > >::_Getpfirst
PUBLIC	?_Myproxy@?$_Vector_alloc@U?$_Vec_base_types@UVector2D@@V?$allocator@UVector2D@@@std@@@std@@@std@@QAEAAPAU_Container_proxy@2@XZ ; std::_Vector_alloc<std::_Vec_base_types<Vector2D,std::allocator<Vector2D> > >::_Myproxy
PUBLIC	?_Orphan_all@?$_Vector_alloc@U?$_Vec_base_types@UVector2D@@V?$allocator@UVector2D@@@std@@@std@@@std@@QAEXXZ ; std::_Vector_alloc<std::_Vec_base_types<Vector2D,std::allocator<Vector2D> > >::_Orphan_all
PUBLIC	?_Swap_all@?$_Vector_alloc@U?$_Vec_base_types@UVector2D@@V?$allocator@UVector2D@@@std@@@std@@@std@@QAEXAAV12@@Z ; std::_Vector_alloc<std::_Vec_base_types<Vector2D,std::allocator<Vector2D> > >::_Swap_all
PUBLIC	?_Getal@?$_Vector_alloc@U?$_Vec_base_types@UVector2D@@V?$allocator@UVector2D@@@std@@@std@@@std@@QAEAAV?$allocator@UVector2D@@@2@XZ ; std::_Vector_alloc<std::_Vec_base_types<Vector2D,std::allocator<Vector2D> > >::_Getal
PUBLIC	?_Getal@?$_Vector_alloc@U?$_Vec_base_types@UVector2D@@V?$allocator@UVector2D@@@std@@@std@@@std@@QBEABV?$allocator@UVector2D@@@2@XZ ; std::_Vector_alloc<std::_Vec_base_types<Vector2D,std::allocator<Vector2D> > >::_Getal
PUBLIC	?_Get_data@?$_Vector_alloc@U?$_Vec_base_types@UVector2D@@V?$allocator@UVector2D@@@std@@@std@@@std@@QAEAAV?$_Vector_val@U?$_Simple_types@UVector2D@@@std@@@2@XZ ; std::_Vector_alloc<std::_Vec_base_types<Vector2D,std::allocator<Vector2D> > >::_Get_data
PUBLIC	?_Get_data@?$_Vector_alloc@U?$_Vec_base_types@UVector2D@@V?$allocator@UVector2D@@@std@@@std@@@std@@QBEABV?$_Vector_val@U?$_Simple_types@UVector2D@@@std@@@2@XZ ; std::_Vector_alloc<std::_Vec_base_types<Vector2D,std::allocator<Vector2D> > >::_Get_data
PUBLIC	?_Myfirst@?$_Vector_alloc@U?$_Vec_base_types@UVector2D@@V?$allocator@UVector2D@@@std@@@std@@@std@@QAEAAPAUVector2D@@XZ ; std::_Vector_alloc<std::_Vec_base_types<Vector2D,std::allocator<Vector2D> > >::_Myfirst
PUBLIC	?_Myfirst@?$_Vector_alloc@U?$_Vec_base_types@UVector2D@@V?$allocator@UVector2D@@@std@@@std@@@std@@QBEABQAUVector2D@@XZ ; std::_Vector_alloc<std::_Vec_base_types<Vector2D,std::allocator<Vector2D> > >::_Myfirst
PUBLIC	?_Mylast@?$_Vector_alloc@U?$_Vec_base_types@UVector2D@@V?$allocator@UVector2D@@@std@@@std@@@std@@QAEAAPAUVector2D@@XZ ; std::_Vector_alloc<std::_Vec_base_types<Vector2D,std::allocator<Vector2D> > >::_Mylast
PUBLIC	?_Mylast@?$_Vector_alloc@U?$_Vec_base_types@UVector2D@@V?$allocator@UVector2D@@@std@@@std@@@std@@QBEABQAUVector2D@@XZ ; std::_Vector_alloc<std::_Vec_base_types<Vector2D,std::allocator<Vector2D> > >::_Mylast
PUBLIC	?_Myend@?$_Vector_alloc@U?$_Vec_base_types@UVector2D@@V?$allocator@UVector2D@@@std@@@std@@@std@@QAEAAPAUVector2D@@XZ ; std::_Vector_alloc<std::_Vec_base_types<Vector2D,std::allocator<Vector2D> > >::_Myend
PUBLIC	?_Myend@?$_Vector_alloc@U?$_Vec_base_types@UVector2D@@V?$allocator@UVector2D@@@std@@@std@@@std@@QBEABQAUVector2D@@XZ ; std::_Vector_alloc<std::_Vec_base_types<Vector2D,std::allocator<Vector2D> > >::_Myend
PUBLIC	??0?$_Vector_val@U?$_Simple_types@UVector2D@@@std@@@std@@QAE@XZ ; std::_Vector_val<std::_Simple_types<Vector2D> >::_Vector_val<std::_Simple_types<Vector2D> >
PUBLIC	?_Get_first@?$_Compressed_pair@V?$allocator@UVector2D@@@std@@V?$_Vector_val@U?$_Simple_types@UVector2D@@@std@@@2@$00@std@@QAEAAV?$allocator@UVector2D@@@2@XZ ; std::_Compressed_pair<std::allocator<Vector2D>,std::_Vector_val<std::_Simple_types<Vector2D> >,1>::_Get_first
PUBLIC	?_Get_first@?$_Compressed_pair@V?$allocator@UVector2D@@@std@@V?$_Vector_val@U?$_Simple_types@UVector2D@@@std@@@2@$00@std@@QBEABV?$allocator@UVector2D@@@2@XZ ; std::_Compressed_pair<std::allocator<Vector2D>,std::_Vector_val<std::_Simple_types<Vector2D> >,1>::_Get_first
PUBLIC	?_Get_second@?$_Compressed_pair@V?$allocator@UVector2D@@@std@@V?$_Vector_val@U?$_Simple_types@UVector2D@@@std@@@2@$00@std@@QAEAAV?$_Vector_val@U?$_Simple_types@UVector2D@@@std@@@2@XZ ; std::_Compressed_pair<std::allocator<Vector2D>,std::_Vector_val<std::_Simple_types<Vector2D> >,1>::_Get_second
PUBLIC	?_Get_second@?$_Compressed_pair@V?$allocator@UVector2D@@@std@@V?$_Vector_val@U?$_Simple_types@UVector2D@@@std@@@2@$00@std@@QBEABV?$_Vector_val@U?$_Simple_types@UVector2D@@@std@@@2@XZ ; std::_Compressed_pair<std::allocator<Vector2D>,std::_Vector_val<std::_Simple_types<Vector2D> >,1>::_Get_second
PUBLIC	??0?$vector@UVector2D@@V?$allocator@UVector2D@@@std@@@std@@QAE@XZ ; std::vector<Vector2D,std::allocator<Vector2D> >::vector<Vector2D,std::allocator<Vector2D> >
PUBLIC	??0?$vector@UVector2D@@V?$allocator@UVector2D@@@std@@@std@@QAE@ABV01@@Z ; std::vector<Vector2D,std::allocator<Vector2D> >::vector<Vector2D,std::allocator<Vector2D> >
PUBLIC	?_Move_from@?$vector@UVector2D@@V?$allocator@UVector2D@@@std@@@std@@AAEX$$QAV12@U?$integral_constant@_N$00@2@@Z ; std::vector<Vector2D,std::allocator<Vector2D> >::_Move_from
PUBLIC	??0?$vector@UVector2D@@V?$allocator@UVector2D@@@std@@@std@@QAE@$$QAV01@@Z ; std::vector<Vector2D,std::allocator<Vector2D> >::vector<Vector2D,std::allocator<Vector2D> >
PUBLIC	?_Move_assign_from@?$vector@UVector2D@@V?$allocator@UVector2D@@@std@@@std@@AAEX$$QAV12@U?$integral_constant@_N$00@2@@Z ; std::vector<Vector2D,std::allocator<Vector2D> >::_Move_assign_from
PUBLIC	??4?$vector@UVector2D@@V?$allocator@UVector2D@@@std@@@std@@QAEAAV01@$$QAV01@@Z ; std::vector<Vector2D,std::allocator<Vector2D> >::operator=
PUBLIC	??1?$vector@UVector2D@@V?$allocator@UVector2D@@@std@@@std@@QAE@XZ ; std::vector<Vector2D,std::allocator<Vector2D> >::~vector<Vector2D,std::allocator<Vector2D> >
PUBLIC	?push_back@?$vector@UVector2D@@V?$allocator@UVector2D@@@std@@@std@@QAEXABUVector2D@@@Z ; std::vector<Vector2D,std::allocator<Vector2D> >::push_back
PUBLIC	?size@?$vector@UVector2D@@V?$allocator@UVector2D@@@std@@@std@@QBEIXZ ; std::vector<Vector2D,std::allocator<Vector2D> >::size
PUBLIC	?max_size@?$vector@UVector2D@@V?$allocator@UVector2D@@@std@@@std@@QBEIXZ ; std::vector<Vector2D,std::allocator<Vector2D> >::max_size
PUBLIC	?capacity@?$vector@UVector2D@@V?$allocator@UVector2D@@@std@@@std@@QBEIXZ ; std::vector<Vector2D,std::allocator<Vector2D> >::capacity
PUBLIC	?_Has_unused_capacity@?$vector@UVector2D@@V?$allocator@UVector2D@@@std@@@std@@ABE_NXZ ; std::vector<Vector2D,std::allocator<Vector2D> >::_Has_unused_capacity
PUBLIC	??A?$vector@UVector2D@@V?$allocator@UVector2D@@@std@@@std@@QAEAAUVector2D@@I@Z ; std::vector<Vector2D,std::allocator<Vector2D> >::operator[]
PUBLIC	??A?$vector@UVector2D@@V?$allocator@UVector2D@@@std@@@std@@QBEABUVector2D@@I@Z ; std::vector<Vector2D,std::allocator<Vector2D> >::operator[]
PUBLIC	?_Umove@?$vector@UVector2D@@V?$allocator@UVector2D@@@std@@@std@@AAEPAUVector2D@@PAU3@00@Z ; std::vector<Vector2D,std::allocator<Vector2D> >::_Umove
PUBLIC	?_Umove_if_noexcept1@?$vector@UVector2D@@V?$allocator@UVector2D@@@std@@@std@@AAEXPAUVector2D@@00U?$integral_constant@_N$00@2@@Z ; std::vector<Vector2D,std::allocator<Vector2D> >::_Umove_if_noexcept1
PUBLIC	?_Umove_if_noexcept@?$vector@UVector2D@@V?$allocator@UVector2D@@@std@@@std@@AAEXPAUVector2D@@00@Z ; std::vector<Vector2D,std::allocator<Vector2D> >::_Umove_if_noexcept
PUBLIC	?_Destroy@?$vector@UVector2D@@V?$allocator@UVector2D@@@std@@@std@@AAEXPAUVector2D@@0@Z ; std::vector<Vector2D,std::allocator<Vector2D> >::_Destroy
PUBLIC	?_Calculate_growth@?$vector@UVector2D@@V?$allocator@UVector2D@@@std@@@std@@ABEII@Z ; std::vector<Vector2D,std::allocator<Vector2D> >::_Calculate_growth
PUBLIC	?_Buy@?$vector@UVector2D@@V?$allocator@UVector2D@@@std@@@std@@AAE_NI@Z ; std::vector<Vector2D,std::allocator<Vector2D> >::_Buy
PUBLIC	?_Change_array@?$vector@UVector2D@@V?$allocator@UVector2D@@@std@@@std@@AAEXQAUVector2D@@II@Z ; std::vector<Vector2D,std::allocator<Vector2D> >::_Change_array
PUBLIC	?_Tidy@?$vector@UVector2D@@V?$allocator@UVector2D@@@std@@@std@@AAEXXZ ; std::vector<Vector2D,std::allocator<Vector2D> >::_Tidy
PUBLIC	?_Xlength@?$vector@UVector2D@@V?$allocator@UVector2D@@@std@@@std@@CAXXZ ; std::vector<Vector2D,std::allocator<Vector2D> >::_Xlength
PUBLIC	?_Orphan_range@?$vector@UVector2D@@V?$allocator@UVector2D@@@std@@@std@@ABEXPAUVector2D@@0@Z ; std::vector<Vector2D,std::allocator<Vector2D> >::_Orphan_range
PUBLIC	?WorldTransform@@YA?AV?$vector@UVector2D@@V?$allocator@UVector2D@@@std@@@std@@AAV12@ABUVector2D@@111@Z ; WorldTransform
PUBLIC	??0WeaponRecord@WeaponMarkers@@QAE@UVector2D@@H@Z ; WeaponMarkers::WeaponRecord::WeaponRecord
PUBLIC	??0?$allocator@U?$_List_node@UWeaponRecord@WeaponMarkers@@PAX@std@@@std@@QAE@XZ ; std::allocator<std::_List_node<WeaponMarkers::WeaponRecord,void *> >::allocator<std::_List_node<WeaponMarkers::WeaponRecord,void *> >
PUBLIC	?deallocate@?$allocator@U?$_List_node@UWeaponRecord@WeaponMarkers@@PAX@std@@@std@@QAEXQAU?$_List_node@UWeaponRecord@WeaponMarkers@@PAX@2@I@Z ; std::allocator<std::_List_node<WeaponMarkers::WeaponRecord,void *> >::deallocate
PUBLIC	?allocate@?$allocator@U?$_List_node@UWeaponRecord@WeaponMarkers@@PAX@std@@@std@@QAEPAU?$_List_node@UWeaponRecord@WeaponMarkers@@PAX@2@I@Z ; std::allocator<std::_List_node<WeaponMarkers::WeaponRecord,void *> >::allocate
PUBLIC	?deallocate@?$_Default_allocator_traits@V?$allocator@U?$_List_node@UWeaponRecord@WeaponMarkers@@PAX@std@@@std@@@std@@SAXAAV?$allocator@U?$_List_node@UWeaponRecord@WeaponMarkers@@PAX@std@@@2@QAU?$_List_node@UWeaponRecord@WeaponMarkers@@PAX@2@I@Z ; std::_Default_allocator_traits<std::allocator<std::_List_node<WeaponMarkers::WeaponRecord,void *> > >::deallocate
PUBLIC	?max_size@?$_Default_allocator_traits@V?$allocator@U?$_List_node@UWeaponRecord@WeaponMarkers@@PAX@std@@@std@@@std@@SAIABV?$allocator@U?$_List_node@UWeaponRecord@WeaponMarkers@@PAX@std@@@2@@Z ; std::_Default_allocator_traits<std::allocator<std::_List_node<WeaponMarkers::WeaponRecord,void *> > >::max_size
PUBLIC	??0?$_List_alloc@U?$_List_base_types@UWeaponRecord@WeaponMarkers@@V?$allocator@UWeaponRecord@WeaponMarkers@@@std@@@std@@@std@@QAE@XZ ; std::_List_alloc<std::_List_base_types<WeaponMarkers::WeaponRecord,std::allocator<WeaponMarkers::WeaponRecord> > >::_List_alloc<std::_List_base_types<WeaponMarkers::WeaponRecord,std::allocator<WeaponMarkers::WeaponRecord> > >
PUBLIC	??1?$_List_alloc@U?$_List_base_types@UWeaponRecord@WeaponMarkers@@V?$allocator@UWeaponRecord@WeaponMarkers@@@std@@@std@@@std@@QAE@XZ ; std::_List_alloc<std::_List_base_types<WeaponMarkers::WeaponRecord,std::allocator<WeaponMarkers::WeaponRecord> > >::~_List_alloc<std::_List_base_types<WeaponMarkers::WeaponRecord,std::allocator<WeaponMarkers::WeaponRecord> > >
PUBLIC	?_Alloc_proxy@?$_List_alloc@U?$_List_base_types@UWeaponRecord@WeaponMarkers@@V?$allocator@UWeaponRecord@WeaponMarkers@@@std@@@std@@@std@@QAEXXZ ; std::_List_alloc<std::_List_base_types<WeaponMarkers::WeaponRecord,std::allocator<WeaponMarkers::WeaponRecord> > >::_Alloc_proxy
PUBLIC	?_Free_proxy@?$_List_alloc@U?$_List_base_types@UWeaponRecord@WeaponMarkers@@V?$allocator@UWeaponRecord@WeaponMarkers@@@std@@@std@@@std@@QAEXXZ ; std::_List_alloc<std::_List_base_types<WeaponMarkers::WeaponRecord,std::allocator<WeaponMarkers::WeaponRecord> > >::_Free_proxy
PUBLIC	?_Getpfirst@?$_List_alloc@U?$_List_base_types@UWeaponRecord@WeaponMarkers@@V?$allocator@UWeaponRecord@WeaponMarkers@@@std@@@std@@@std@@QBEPAPAU_Iterator_base12@2@XZ ; std::_List_alloc<std::_List_base_types<WeaponMarkers::WeaponRecord,std::allocator<WeaponMarkers::WeaponRecord> > >::_Getpfirst
PUBLIC	?_Myproxy@?$_List_alloc@U?$_List_base_types@UWeaponRecord@WeaponMarkers@@V?$allocator@UWeaponRecord@WeaponMarkers@@@std@@@std@@@std@@QAEAAPAU_Container_proxy@2@XZ ; std::_List_alloc<std::_List_base_types<WeaponMarkers::WeaponRecord,std::allocator<WeaponMarkers::WeaponRecord> > >::_Myproxy
PUBLIC	?_Buyheadnode@?$_List_alloc@U?$_List_base_types@UWeaponRecord@WeaponMarkers@@V?$allocator@UWeaponRecord@WeaponMarkers@@@std@@@std@@@std@@QAEPAU?$_List_node@UWeaponRecord@WeaponMarkers@@PAX@2@XZ ; std::_List_alloc<std::_List_base_types<WeaponMarkers::WeaponRecord,std::allocator<WeaponMarkers::WeaponRecord> > >::_Buyheadnode
PUBLIC	?_Freeheadnode@?$_List_alloc@U?$_List_base_types@UWeaponRecord@WeaponMarkers@@V?$allocator@UWeaponRecord@WeaponMarkers@@@std@@@std@@@std@@QAEXPAU?$_List_node@UWeaponRecord@WeaponMarkers@@PAX@2@@Z ; std::_List_alloc<std::_List_base_types<WeaponMarkers::WeaponRecord,std::allocator<WeaponMarkers::WeaponRecord> > >::_Freeheadnode
PUBLIC	?_Buynode0@?$_List_alloc@U?$_List_base_types@UWeaponRecord@WeaponMarkers@@V?$allocator@UWeaponRecord@WeaponMarkers@@@std@@@std@@@std@@QAEPAU?$_List_node@UWeaponRecord@WeaponMarkers@@PAX@2@PAU32@0@Z ; std::_List_alloc<std::_List_base_types<WeaponMarkers::WeaponRecord,std::allocator<WeaponMarkers::WeaponRecord> > >::_Buynode0
PUBLIC	?_Orphan_all@?$_List_alloc@U?$_List_base_types@UWeaponRecord@WeaponMarkers@@V?$allocator@UWeaponRecord@WeaponMarkers@@@std@@@std@@@std@@QAEXXZ ; std::_List_alloc<std::_List_base_types<WeaponMarkers::WeaponRecord,std::allocator<WeaponMarkers::WeaponRecord> > >::_Orphan_all
PUBLIC	?_Getal@?$_List_alloc@U?$_List_base_types@UWeaponRecord@WeaponMarkers@@V?$allocator@UWeaponRecord@WeaponMarkers@@@std@@@std@@@std@@QAEAAV?$allocator@U?$_List_node@UWeaponRecord@WeaponMarkers@@PAX@std@@@2@XZ ; std::_List_alloc<std::_List_base_types<WeaponMarkers::WeaponRecord,std::allocator<WeaponMarkers::WeaponRecord> > >::_Getal
PUBLIC	?_Getal@?$_List_alloc@U?$_List_base_types@UWeaponRecord@WeaponMarkers@@V?$allocator@UWeaponRecord@WeaponMarkers@@@std@@@std@@@std@@QBEABV?$allocator@U?$_List_node@UWeaponRecord@WeaponMarkers@@PAX@std@@@2@XZ ; std::_List_alloc<std::_List_base_types<WeaponMarkers::WeaponRecord,std::allocator<WeaponMarkers::WeaponRecord> > >::_Getal
PUBLIC	?_Get_data@?$_List_alloc@U?$_List_base_types@UWeaponRecord@WeaponMarkers@@V?$allocator@UWeaponRecord@WeaponMarkers@@@std@@@std@@@std@@QAEAAV?$_List_val@U?$_List_simple_types@UWeaponRecord@WeaponMarkers@@@std@@@2@XZ ; std::_List_alloc<std::_List_base_types<WeaponMarkers::WeaponRecord,std::allocator<WeaponMarkers::WeaponRecord> > >::_Get_data
PUBLIC	?_Get_data@?$_List_alloc@U?$_List_base_types@UWeaponRecord@WeaponMarkers@@V?$allocator@UWeaponRecord@WeaponMarkers@@@std@@@std@@@std@@QBEABV?$_List_val@U?$_List_simple_types@UWeaponRecord@WeaponMarkers@@@std@@@2@XZ ; std::_List_alloc<std::_List_base_types<WeaponMarkers::WeaponRecord,std::allocator<WeaponMarkers::WeaponRecord> > >::_Get_data
PUBLIC	?_Myhead@?$_List_alloc@U?$_List_base_types@UWeaponRecord@WeaponMarkers@@V?$allocator@UWeaponRecord@WeaponMarkers@@@std@@@std@@@std@@QAEAAPAU?$_List_node@UWeaponRecord@WeaponMarkers@@PAX@2@XZ ; std::_List_alloc<std::_List_base_types<WeaponMarkers::WeaponRecord,std::allocator<WeaponMarkers::WeaponRecord> > >::_Myhead
PUBLIC	?_Mysize@?$_List_alloc@U?$_List_base_types@UWeaponRecord@WeaponMarkers@@V?$allocator@UWeaponRecord@WeaponMarkers@@@std@@@std@@@std@@QAEAAIXZ ; std::_List_alloc<std::_List_base_types<WeaponMarkers::WeaponRecord,std::allocator<WeaponMarkers::WeaponRecord> > >::_Mysize
PUBLIC	??0?$_List_val@U?$_List_simple_types@UWeaponRecord@WeaponMarkers@@@std@@@std@@QAE@XZ ; std::_List_val<std::_List_simple_types<WeaponMarkers::WeaponRecord> >::_List_val<std::_List_simple_types<WeaponMarkers::WeaponRecord> >
PUBLIC	?_Get_first@?$_Compressed_pair@V?$allocator@U?$_List_node@UWeaponRecord@WeaponMarkers@@PAX@std@@@std@@V?$_List_val@U?$_List_simple_types@UWeaponRecord@WeaponMarkers@@@std@@@2@$00@std@@QAEAAV?$allocator@U?$_List_node@UWeaponRecord@WeaponMarkers@@PAX@std@@@2@XZ ; std::_Compressed_pair<std::allocator<std::_List_node<WeaponMarkers::WeaponRecord,void *> >,std::_List_val<std::_List_simple_types<WeaponMarkers::WeaponRecord> >,1>::_Get_first
PUBLIC	?_Get_first@?$_Compressed_pair@V?$allocator@U?$_List_node@UWeaponRecord@WeaponMarkers@@PAX@std@@@std@@V?$_List_val@U?$_List_simple_types@UWeaponRecord@WeaponMarkers@@@std@@@2@$00@std@@QBEABV?$allocator@U?$_List_node@UWeaponRecord@WeaponMarkers@@PAX@std@@@2@XZ ; std::_Compressed_pair<std::allocator<std::_List_node<WeaponMarkers::WeaponRecord,void *> >,std::_List_val<std::_List_simple_types<WeaponMarkers::WeaponRecord> >,1>::_Get_first
PUBLIC	?_Get_second@?$_Compressed_pair@V?$allocator@U?$_List_node@UWeaponRecord@WeaponMarkers@@PAX@std@@@std@@V?$_List_val@U?$_List_simple_types@UWeaponRecord@WeaponMarkers@@@std@@@2@$00@std@@QAEAAV?$_List_val@U?$_List_simple_types@UWeaponRecord@WeaponMarkers@@@std@@@2@XZ ; std::_Compressed_pair<std::allocator<std::_List_node<WeaponMarkers::WeaponRecord,void *> >,std::_List_val<std::_List_simple_types<WeaponMarkers::WeaponRecord> >,1>::_Get_second
PUBLIC	?_Get_second@?$_Compressed_pair@V?$allocator@U?$_List_node@UWeaponRecord@WeaponMarkers@@PAX@std@@@std@@V?$_List_val@U?$_List_simple_types@UWeaponRecord@WeaponMarkers@@@std@@@2@$00@std@@QBEABV?$_List_val@U?$_List_simple_types@UWeaponRecord@WeaponMarkers@@@std@@@2@XZ ; std::_Compressed_pair<std::allocator<std::_List_node<WeaponMarkers::WeaponRecord,void *> >,std::_List_val<std::_List_simple_types<WeaponMarkers::WeaponRecord> >,1>::_Get_second
PUBLIC	??0?$_List_buy@UWeaponRecord@WeaponMarkers@@V?$allocator@UWeaponRecord@WeaponMarkers@@@std@@@std@@QAE@XZ ; std::_List_buy<WeaponMarkers::WeaponRecord,std::allocator<WeaponMarkers::WeaponRecord> >::_List_buy<WeaponMarkers::WeaponRecord,std::allocator<WeaponMarkers::WeaponRecord> >
PUBLIC	?_Freenode@?$_List_buy@UWeaponRecord@WeaponMarkers@@V?$allocator@UWeaponRecord@WeaponMarkers@@@std@@@std@@QAEXPAU?$_List_node@UWeaponRecord@WeaponMarkers@@PAX@2@@Z ; std::_List_buy<WeaponMarkers::WeaponRecord,std::allocator<WeaponMarkers::WeaponRecord> >::_Freenode
PUBLIC	??1?$_List_buy@UWeaponRecord@WeaponMarkers@@V?$allocator@UWeaponRecord@WeaponMarkers@@@std@@@std@@QAE@XZ ; std::_List_buy<WeaponMarkers::WeaponRecord,std::allocator<WeaponMarkers::WeaponRecord> >::~_List_buy<WeaponMarkers::WeaponRecord,std::allocator<WeaponMarkers::WeaponRecord> >
PUBLIC	??0?$list@UWeaponRecord@WeaponMarkers@@V?$allocator@UWeaponRecord@WeaponMarkers@@@std@@@std@@QAE@XZ ; std::list<WeaponMarkers::WeaponRecord,std::allocator<WeaponMarkers::WeaponRecord> >::list<WeaponMarkers::WeaponRecord,std::allocator<WeaponMarkers::WeaponRecord> >
PUBLIC	?push_back@?$list@UWeaponRecord@WeaponMarkers@@V?$allocator@UWeaponRecord@WeaponMarkers@@@std@@@std@@QAEX$$QAUWeaponRecord@WeaponMarkers@@@Z ; std::list<WeaponMarkers::WeaponRecord,std::allocator<WeaponMarkers::WeaponRecord> >::push_back
PUBLIC	??1?$list@UWeaponRecord@WeaponMarkers@@V?$allocator@UWeaponRecord@WeaponMarkers@@@std@@@std@@QAE@XZ ; std::list<WeaponMarkers::WeaponRecord,std::allocator<WeaponMarkers::WeaponRecord> >::~list<WeaponMarkers::WeaponRecord,std::allocator<WeaponMarkers::WeaponRecord> >
PUBLIC	?begin@?$list@UWeaponRecord@WeaponMarkers@@V?$allocator@UWeaponRecord@WeaponMarkers@@@std@@@std@@QAE?AV?$_List_iterator@V?$_List_val@U?$_List_simple_types@UWeaponRecord@WeaponMarkers@@@std@@@std@@@2@XZ ; std::list<WeaponMarkers::WeaponRecord,std::allocator<WeaponMarkers::WeaponRecord> >::begin
PUBLIC	?end@?$list@UWeaponRecord@WeaponMarkers@@V?$allocator@UWeaponRecord@WeaponMarkers@@@std@@@std@@QAE?AV?$_List_iterator@V?$_List_val@U?$_List_simple_types@UWeaponRecord@WeaponMarkers@@@std@@@std@@@2@XZ ; std::list<WeaponMarkers::WeaponRecord,std::allocator<WeaponMarkers::WeaponRecord> >::end
PUBLIC	?_Unchecked_end@?$list@UWeaponRecord@WeaponMarkers@@V?$allocator@UWeaponRecord@WeaponMarkers@@@std@@@std@@QAE?AV?$_List_unchecked_iterator@V?$_List_val@U?$_List_simple_types@UWeaponRecord@WeaponMarkers@@@std@@@std@@@2@XZ ; std::list<WeaponMarkers::WeaponRecord,std::allocator<WeaponMarkers::WeaponRecord> >::_Unchecked_end
PUBLIC	?max_size@?$list@UWeaponRecord@WeaponMarkers@@V?$allocator@UWeaponRecord@WeaponMarkers@@@std@@@std@@QBEIXZ ; std::list<WeaponMarkers::WeaponRecord,std::allocator<WeaponMarkers::WeaponRecord> >::max_size
PUBLIC	?clear@?$list@UWeaponRecord@WeaponMarkers@@V?$allocator@UWeaponRecord@WeaponMarkers@@@std@@@std@@QAEXXZ ; std::list<WeaponMarkers::WeaponRecord,std::allocator<WeaponMarkers::WeaponRecord> >::clear
PUBLIC	?_Tidy@?$list@UWeaponRecord@WeaponMarkers@@V?$allocator@UWeaponRecord@WeaponMarkers@@@std@@@std@@QAEXXZ ; std::list<WeaponMarkers::WeaponRecord,std::allocator<WeaponMarkers::WeaponRecord> >::_Tidy
PUBLIC	?_Incsize@?$list@UWeaponRecord@WeaponMarkers@@V?$allocator@UWeaponRecord@WeaponMarkers@@@std@@@std@@QAEXI@Z ; std::list<WeaponMarkers::WeaponRecord,std::allocator<WeaponMarkers::WeaponRecord> >::_Incsize
PUBLIC	?_Orphan_ptr@?$list@UWeaponRecord@WeaponMarkers@@V?$allocator@UWeaponRecord@WeaponMarkers@@@std@@@std@@QAEXPAU?$_List_node@UWeaponRecord@WeaponMarkers@@PAX@2@@Z ; std::list<WeaponMarkers::WeaponRecord,std::allocator<WeaponMarkers::WeaponRecord> >::_Orphan_ptr
PUBLIC	??0WeaponMarkers@@QAE@XZ			; WeaponMarkers::WeaponMarkers
PUBLIC	?Update@WeaponMarkers@@QAEXXZ			; WeaponMarkers::Update
PUBLIC	?Render@WeaponMarkers@@QAEXXZ			; WeaponMarkers::Render
PUBLIC	?AddWeapon@WeaponMarkers@@QAEXUVector2D@@H@Z	; WeaponMarkers::AddWeapon
PUBLIC	?RedPen@Cgdi@@QAEXXZ				; Cgdi::RedPen
PUBLIC	?BluePen@Cgdi@@QAEXXZ				; Cgdi::BluePen
PUBLIC	?BrownPen@Cgdi@@QAEXXZ				; Cgdi::BrownPen
PUBLIC	?ThickBluePen@Cgdi@@QAEXXZ			; Cgdi::ThickBluePen
PUBLIC	?BlackBrush@Cgdi@@QAEXXZ			; Cgdi::BlackBrush
PUBLIC	?BlueBrush@Cgdi@@QAEXXZ				; Cgdi::BlueBrush
PUBLIC	?Line@Cgdi@@QAEXUVector2D@@0@Z			; Cgdi::Line
PUBLIC	?ClosedShape@Cgdi@@QAEXABV?$vector@UVector2D@@V?$allocator@UVector2D@@@std@@@std@@@Z ; Cgdi::ClosedShape
PUBLIC	?Circle@Cgdi@@QAEXUVector2D@@N@Z		; Cgdi::Circle
PUBLIC	?Circle@Cgdi@@QAEXNNN@Z				; Cgdi::Circle
PUBLIC	??0?$_List_unchecked_const_iterator@V?$_List_val@U?$_List_simple_types@UWeaponRecord@WeaponMarkers@@@std@@@std@@U_Iterator_base12@2@@std@@QAE@PAU?$_List_node@UWeaponRecord@WeaponMarkers@@PAX@1@PBV?$_List_val@U?$_List_simple_types@UWeaponRecord@WeaponMarkers@@@std@@@1@@Z ; std::_List_unchecked_const_iterator<std::_List_val<std::_List_simple_types<WeaponMarkers::WeaponRecord> >,std::_Iterator_base12>::_List_unchecked_const_iterator<std::_List_val<std::_List_simple_types<WeaponMarkers::WeaponRecord> >,std::_Iterator_base12>
PUBLIC	??1?$_List_unchecked_const_iterator@V?$_List_val@U?$_List_simple_types@UWeaponRecord@WeaponMarkers@@@std@@@std@@U_Iterator_base12@2@@std@@QAE@XZ ; std::_List_unchecked_const_iterator<std::_List_val<std::_List_simple_types<WeaponMarkers::WeaponRecord> >,std::_Iterator_base12>::~_List_unchecked_const_iterator<std::_List_val<std::_List_simple_types<WeaponMarkers::WeaponRecord> >,std::_Iterator_base12>
PUBLIC	??0?$_List_const_iterator@V?$_List_val@U?$_List_simple_types@UWeaponRecord@WeaponMarkers@@@std@@@std@@@std@@QAE@PAU?$_List_node@UWeaponRecord@WeaponMarkers@@PAX@1@PBV?$_List_val@U?$_List_simple_types@UWeaponRecord@WeaponMarkers@@@std@@@1@@Z ; std::_List_const_iterator<std::_List_val<std::_List_simple_types<WeaponMarkers::WeaponRecord> > >::_List_const_iterator<std::_List_val<std::_List_simple_types<WeaponMarkers::WeaponRecord> > >
PUBLIC	??D?$_List_const_iterator@V?$_List_val@U?$_List_simple_types@UWeaponRecord@WeaponMarkers@@@std@@@std@@@std@@QBEABUWeaponRecord@WeaponMarkers@@XZ ; std::_List_const_iterator<std::_List_val<std::_List_simple_types<WeaponMarkers::WeaponRecord> > >::operator*
PUBLIC	??E?$_List_const_iterator@V?$_List_val@U?$_List_simple_types@UWeaponRecord@WeaponMarkers@@@std@@@std@@@std@@QAEAAV01@XZ ; std::_List_const_iterator<std::_List_val<std::_List_simple_types<WeaponMarkers::WeaponRecord> > >::operator++
PUBLIC	??8?$_List_const_iterator@V?$_List_val@U?$_List_simple_types@UWeaponRecord@WeaponMarkers@@@std@@@std@@@std@@QBE_NABV01@@Z ; std::_List_const_iterator<std::_List_val<std::_List_simple_types<WeaponMarkers::WeaponRecord> > >::operator==
PUBLIC	??9?$_List_const_iterator@V?$_List_val@U?$_List_simple_types@UWeaponRecord@WeaponMarkers@@@std@@@std@@@std@@QBE_NABV01@@Z ; std::_List_const_iterator<std::_List_val<std::_List_simple_types<WeaponMarkers::WeaponRecord> > >::operator!=
PUBLIC	??1?$_List_const_iterator@V?$_List_val@U?$_List_simple_types@UWeaponRecord@WeaponMarkers@@@std@@@std@@@std@@QAE@XZ ; std::_List_const_iterator<std::_List_val<std::_List_simple_types<WeaponMarkers::WeaponRecord> > >::~_List_const_iterator<std::_List_val<std::_List_simple_types<WeaponMarkers::WeaponRecord> > >
PUBLIC	??0?$_List_iterator@V?$_List_val@U?$_List_simple_types@UWeaponRecord@WeaponMarkers@@@std@@@std@@@std@@QAE@PAU?$_List_node@UWeaponRecord@WeaponMarkers@@PAX@1@PBV?$_List_val@U?$_List_simple_types@UWeaponRecord@WeaponMarkers@@@std@@@1@@Z ; std::_List_iterator<std::_List_val<std::_List_simple_types<WeaponMarkers::WeaponRecord> > >::_List_iterator<std::_List_val<std::_List_simple_types<WeaponMarkers::WeaponRecord> > >
PUBLIC	??D?$_List_iterator@V?$_List_val@U?$_List_simple_types@UWeaponRecord@WeaponMarkers@@@std@@@std@@@std@@QBEAAUWeaponRecord@WeaponMarkers@@XZ ; std::_List_iterator<std::_List_val<std::_List_simple_types<WeaponMarkers::WeaponRecord> > >::operator*
PUBLIC	??C?$_List_iterator@V?$_List_val@U?$_List_simple_types@UWeaponRecord@WeaponMarkers@@@std@@@std@@@std@@QBEPAUWeaponRecord@WeaponMarkers@@XZ ; std::_List_iterator<std::_List_val<std::_List_simple_types<WeaponMarkers::WeaponRecord> > >::operator->
PUBLIC	??E?$_List_iterator@V?$_List_val@U?$_List_simple_types@UWeaponRecord@WeaponMarkers@@@std@@@std@@@std@@QAEAAV01@XZ ; std::_List_iterator<std::_List_val<std::_List_simple_types<WeaponMarkers::WeaponRecord> > >::operator++
PUBLIC	??1?$_List_iterator@V?$_List_val@U?$_List_simple_types@UWeaponRecord@WeaponMarkers@@@std@@@std@@@std@@QAE@XZ ; std::_List_iterator<std::_List_val<std::_List_simple_types<WeaponMarkers::WeaponRecord> > >::~_List_iterator<std::_List_val<std::_List_simple_types<WeaponMarkers::WeaponRecord> > >
PUBLIC	?pointer_to@?$pointer_traits@PAUWeaponRecord@WeaponMarkers@@@std@@SAPAUWeaponRecord@WeaponMarkers@@AAU34@@Z ; std::pointer_traits<WeaponMarkers::WeaponRecord *>::pointer_to
PUBLIC	??$addressof@V?$_List_val@U?$_List_simple_types@UWeaponRecord@WeaponMarkers@@@std@@@std@@@std@@YAPAV?$_List_val@U?$_List_simple_types@UWeaponRecord@WeaponMarkers@@@std@@@0@AAV10@@Z ; std::addressof<std::_List_val<std::_List_simple_types<WeaponMarkers::WeaponRecord> > >
PUBLIC	??0?$_List_unchecked_const_iterator@V?$_List_val@U?$_List_simple_types@UWeaponRecord@WeaponMarkers@@@std@@@std@@U_Iterator_base0@2@@std@@QAE@PAU?$_List_node@UWeaponRecord@WeaponMarkers@@PAX@1@PBV?$_List_val@U?$_List_simple_types@UWeaponRecord@WeaponMarkers@@@std@@@1@@Z ; std::_List_unchecked_const_iterator<std::_List_val<std::_List_simple_types<WeaponMarkers::WeaponRecord> >,std::_Iterator_base0>::_List_unchecked_const_iterator<std::_List_val<std::_List_simple_types<WeaponMarkers::WeaponRecord> >,std::_Iterator_base0>
PUBLIC	??0?$_List_unchecked_iterator@V?$_List_val@U?$_List_simple_types@UWeaponRecord@WeaponMarkers@@@std@@@std@@@std@@QAE@PAU?$_List_node@UWeaponRecord@WeaponMarkers@@PAX@1@PBV?$_List_val@U?$_List_simple_types@UWeaponRecord@WeaponMarkers@@@std@@@1@@Z ; std::_List_unchecked_iterator<std::_List_val<std::_List_simple_types<WeaponMarkers::WeaponRecord> > >::_List_unchecked_iterator<std::_List_val<std::_List_simple_types<WeaponMarkers::WeaponRecord> > >
PUBLIC	??$move@AAUWeaponRecord@WeaponMarkers@@@std@@YA$$QAUWeaponRecord@WeaponMarkers@@AAU12@@Z ; std::move<WeaponMarkers::WeaponRecord &>
PUBLIC	??$_Insert@UWeaponRecord@WeaponMarkers@@@?$list@UWeaponRecord@WeaponMarkers@@V?$allocator@UWeaponRecord@WeaponMarkers@@@std@@@std@@QAEXV?$_List_unchecked_const_iterator@V?$_List_val@U?$_List_simple_types@UWeaponRecord@WeaponMarkers@@@std@@@std@@U_Iterator_base0@2@@1@$$QAUWeaponRecord@WeaponMarkers@@@Z ; std::list<WeaponMarkers::WeaponRecord,std::allocator<WeaponMarkers::WeaponRecord> >::_Insert<WeaponMarkers::WeaponRecord>
PUBLIC	??$move@AAUVector2D@@@std@@YA$$QAUVector2D@@AAU1@@Z ; std::move<Vector2D &>
PUBLIC	??$forward@UVector2D@@@std@@YA$$QAUVector2D@@AAU1@@Z ; std::forward<Vector2D>
PUBLIC	??$_Unfancy@UVector2D@@@std@@YAPAUVector2D@@PAU1@@Z ; std::_Unfancy<Vector2D>
PUBLIC	??$construct@UVector2D@@U1@@?$_Default_allocator_traits@V?$allocator@UVector2D@@@std@@@std@@SAXAAV?$allocator@UVector2D@@@1@QAUVector2D@@$$QAU3@@Z ; std::_Default_allocator_traits<std::allocator<Vector2D> >::construct<Vector2D,Vector2D>
PUBLIC	??$emplace_back@ABUVector2D@@@?$vector@UVector2D@@V?$allocator@UVector2D@@@std@@@std@@QAE@ABUVector2D@@@Z ; std::vector<Vector2D,std::allocator<Vector2D> >::emplace_back<Vector2D const &>
PUBLIC	??$forward@ABUVector2D@@@std@@YAABUVector2D@@ABU1@@Z ; std::forward<Vector2D const &>
PUBLIC	??$_Emplace_back_with_unused_capacity@ABUVector2D@@@?$vector@UVector2D@@V?$allocator@UVector2D@@@std@@@std@@AAE@ABUVector2D@@@Z ; std::vector<Vector2D,std::allocator<Vector2D> >::_Emplace_back_with_unused_capacity<Vector2D const &>
PUBLIC	??$construct@UVector2D@@ABU1@@?$_Default_allocator_traits@V?$allocator@UVector2D@@@std@@@std@@SAXAAV?$allocator@UVector2D@@@1@QAUVector2D@@ABU3@@Z ; std::_Default_allocator_traits<std::allocator<Vector2D> >::construct<Vector2D,Vector2D const &>
PUBLIC	??$_Emplace_reallocate@ABUVector2D@@@?$vector@UVector2D@@V?$allocator@UVector2D@@@std@@@std@@QAEPAUVector2D@@QAU2@ABU2@@Z ; std::vector<Vector2D,std::allocator<Vector2D> >::_Emplace_reallocate<Vector2D const &>
PUBLIC	??$addressof@V?$vector@UVector2D@@V?$allocator@UVector2D@@@std@@@std@@@std@@YAPAV?$vector@UVector2D@@V?$allocator@UVector2D@@@std@@@0@AAV10@@Z ; std::addressof<std::vector<Vector2D,std::allocator<Vector2D> > >
PUBLIC	??$move@AAV?$vector@UVector2D@@V?$allocator@UVector2D@@@std@@@std@@@std@@YA$$QAV?$vector@UVector2D@@V?$allocator@UVector2D@@@std@@@0@AAV10@@Z ; std::move<std::vector<Vector2D,std::allocator<Vector2D> > &>
PUBLIC	??$move@AAV?$allocator@UVector2D@@@std@@@std@@YA$$QAV?$allocator@UVector2D@@@0@AAV10@@Z ; std::move<std::allocator<Vector2D> &>
PUBLIC	??$?0V?$allocator@UVector2D@@@std@@X@?$_Vector_alloc@U?$_Vec_base_types@UVector2D@@V?$allocator@UVector2D@@@std@@@std@@@std@@QAE@$$QAV?$allocator@UVector2D@@@1@@Z ; std::_Vector_alloc<std::_Vec_base_types<Vector2D,std::allocator<Vector2D> > >::_Vector_alloc<std::_Vec_base_types<Vector2D,std::allocator<Vector2D> > ><std::allocator<Vector2D>,void>
PUBLIC	??$_Ucopy@PAUVector2D@@@?$vector@UVector2D@@V?$allocator@UVector2D@@@std@@@std@@AAEPAUVector2D@@PAU2@00@Z ; std::vector<Vector2D,std::allocator<Vector2D> >::_Ucopy<Vector2D *>
PUBLIC	??$_Min_value@I@std@@YAABIABI0@Z		; std::_Min_value<unsigned int>
PUBLIC	??$addressof@UWeaponRecord@WeaponMarkers@@@std@@YAPAUWeaponRecord@WeaponMarkers@@AAU12@@Z ; std::addressof<WeaponMarkers::WeaponRecord>
PUBLIC	??$?9UVector2D@@U0@@std@@YA_NABV?$allocator@UVector2D@@@0@0@Z ; std::operator!=<Vector2D,Vector2D>
PUBLIC	??$_Pocma@V?$allocator@UVector2D@@@std@@@std@@YAXAAV?$allocator@UVector2D@@@0@0@Z ; std::_Pocma<std::allocator<Vector2D> >
PUBLIC	??$?0$$V@?$_Compressed_pair@V?$allocator@UVector2D@@@std@@V?$_Vector_val@U?$_Simple_types@UVector2D@@@std@@@2@$00@std@@QAE@U_Zero_then_variadic_args_t@1@@Z ; std::_Compressed_pair<std::allocator<Vector2D>,std::_Vector_val<std::_Simple_types<Vector2D> >,1>::_Compressed_pair<std::allocator<Vector2D>,std::_Vector_val<std::_Simple_types<Vector2D> >,1><>
PUBLIC	??$_Allocate@$07U_Default_allocate_traits@std@@$0A@@std@@YAPAXI@Z ; std::_Allocate<8,std::_Default_allocate_traits,0>
PUBLIC	??$_Deallocate@$07$0A@@std@@YAXPAXI@Z		; std::_Deallocate<8,0>
PUBLIC	??$_Freenode0@V?$allocator@U?$_List_node@UWeaponRecord@WeaponMarkers@@PAX@std@@@std@@@?$_List_node@UWeaponRecord@WeaponMarkers@@PAX@std@@SAXAAV?$allocator@U?$_List_node@UWeaponRecord@WeaponMarkers@@PAX@std@@@1@PAU01@@Z ; std::_List_node<WeaponMarkers::WeaponRecord,void *>::_Freenode0<std::allocator<std::_List_node<WeaponMarkers::WeaponRecord,void *> > >
PUBLIC	?allocate@?$allocator@U_Container_proxy@std@@@std@@QAEPAU_Container_proxy@2@I@Z ; std::allocator<std::_Container_proxy>::allocate
PUBLIC	??$?0U?$_List_node@UWeaponRecord@WeaponMarkers@@PAX@std@@@?$allocator@U_Container_proxy@std@@@std@@QAE@ABV?$allocator@U?$_List_node@UWeaponRecord@WeaponMarkers@@PAX@std@@@1@@Z ; std::allocator<std::_Container_proxy>::allocator<std::_Container_proxy><std::_List_node<WeaponMarkers::WeaponRecord,void *> >
PUBLIC	?deallocate@?$_Default_allocator_traits@V?$allocator@U_Container_proxy@std@@@std@@@std@@SAXAAV?$allocator@U_Container_proxy@std@@@2@QAU_Container_proxy@2@I@Z ; std::_Default_allocator_traits<std::allocator<std::_Container_proxy> >::deallocate
PUBLIC	??$destroy@U_Container_proxy@std@@@?$_Default_allocator_traits@V?$allocator@U_Container_proxy@std@@@std@@@std@@SAXAAV?$allocator@U_Container_proxy@std@@@1@QAU_Container_proxy@1@@Z ; std::_Default_allocator_traits<std::allocator<std::_Container_proxy> >::destroy<std::_Container_proxy>
PUBLIC	??$_Deallocate_plain@V?$allocator@U_Container_proxy@std@@@std@@$0A@@std@@YAXAAV?$allocator@U_Container_proxy@std@@@0@QAU_Container_proxy@0@@Z ; std::_Deallocate_plain<std::allocator<std::_Container_proxy>,0>
PUBLIC	??$?0$$V@?$_Compressed_pair@V?$allocator@U?$_List_node@UWeaponRecord@WeaponMarkers@@PAX@std@@@std@@V?$_List_val@U?$_List_simple_types@UWeaponRecord@WeaponMarkers@@@std@@@2@$00@std@@QAE@U_Zero_then_variadic_args_t@1@@Z ; std::_Compressed_pair<std::allocator<std::_List_node<WeaponMarkers::WeaponRecord,void *> >,std::_List_val<std::_List_simple_types<WeaponMarkers::WeaponRecord> >,1>::_Compressed_pair<std::allocator<std::_List_node<WeaponMarkers::WeaponRecord,void *> >,std::_List_val<std::_List_simple_types<WeaponMarkers::WeaponRecord> >,1><>
PUBLIC	??$?0UVector2D@@@?$allocator@U_Container_proxy@std@@@std@@QAE@ABV?$allocator@UVector2D@@@1@@Z ; std::allocator<std::_Container_proxy>::allocator<std::_Container_proxy><Vector2D>
PUBLIC	??$_Unfancy@U_Container_proxy@std@@@std@@YAPAU_Container_proxy@0@PAU10@@Z ; std::_Unfancy<std::_Container_proxy>
PUBLIC	??$construct@U_Container_proxy@std@@U12@@?$_Default_allocator_traits@V?$allocator@U_Container_proxy@std@@@std@@@std@@SAXAAV?$allocator@U_Container_proxy@std@@@1@QAU_Container_proxy@1@$$QAU31@@Z ; std::_Default_allocator_traits<std::allocator<std::_Container_proxy> >::construct<std::_Container_proxy,std::_Container_proxy>
PUBLIC	??$addressof@V?$_Vector_val@U?$_Simple_types@UVector2D@@@std@@@std@@@std@@YAPAV?$_Vector_val@U?$_Simple_types@UVector2D@@@std@@@0@AAV10@@Z ; std::addressof<std::_Vector_val<std::_Simple_types<Vector2D> > >
PUBLIC	??$_Destroy_range@V?$allocator@UVector2D@@@std@@@std@@YAXPAUVector2D@@0AAV?$allocator@UVector2D@@@0@@Z ; std::_Destroy_range<std::allocator<Vector2D> >
PUBLIC	??$_Get_size_of_n@$0BA@@std@@YAII@Z		; std::_Get_size_of_n<16>
PUBLIC	??$destroy@UWeaponRecord@WeaponMarkers@@@?$_Default_allocator_traits@V?$allocator@U?$_List_node@UWeaponRecord@WeaponMarkers@@PAX@std@@@std@@@std@@SAXAAV?$allocator@U?$_List_node@UWeaponRecord@WeaponMarkers@@PAX@std@@@1@QAUWeaponRecord@WeaponMarkers@@@Z ; std::_Default_allocator_traits<std::allocator<std::_List_node<WeaponMarkers::WeaponRecord,void *> > >::destroy<WeaponMarkers::WeaponRecord>
PUBLIC	??$_Get_size_of_n@$07@std@@YAII@Z		; std::_Get_size_of_n<8>
PUBLIC	??$addressof@PAU?$_List_node@UWeaponRecord@WeaponMarkers@@PAX@std@@@std@@YAPAPAU?$_List_node@UWeaponRecord@WeaponMarkers@@PAX@0@AAPAU10@@Z ; std::addressof<std::_List_node<WeaponMarkers::WeaponRecord,void *> *>
PUBLIC	??$construct@PAU?$_List_node@UWeaponRecord@WeaponMarkers@@PAX@std@@AAPAU12@@?$_Default_allocator_traits@V?$allocator@U?$_List_node@UWeaponRecord@WeaponMarkers@@PAX@std@@@std@@@std@@SAXAAV?$allocator@U?$_List_node@UWeaponRecord@WeaponMarkers@@PAX@std@@@1@QAPAU?$_List_node@UWeaponRecord@WeaponMarkers@@PAX@1@AAPAU31@@Z ; std::_Default_allocator_traits<std::allocator<std::_List_node<WeaponMarkers::WeaponRecord,void *> > >::construct<std::_List_node<WeaponMarkers::WeaponRecord,void *> *,std::_List_node<WeaponMarkers::WeaponRecord,void *> * &>
PUBLIC	??$_Get_size_of_n@$0CA@@std@@YAII@Z		; std::_Get_size_of_n<32>
PUBLIC	??$forward@UWeaponRecord@WeaponMarkers@@@std@@YA$$QAUWeaponRecord@WeaponMarkers@@AAU12@@Z ; std::forward<WeaponMarkers::WeaponRecord>
PUBLIC	??$_Buynode@UWeaponRecord@WeaponMarkers@@@?$_List_buy@UWeaponRecord@WeaponMarkers@@V?$allocator@UWeaponRecord@WeaponMarkers@@@std@@@std@@QAEPAU?$_List_node@UWeaponRecord@WeaponMarkers@@PAX@1@PAU21@0$$QAUWeaponRecord@WeaponMarkers@@@Z ; std::_List_buy<WeaponMarkers::WeaponRecord,std::allocator<WeaponMarkers::WeaponRecord> >::_Buynode<WeaponMarkers::WeaponRecord>
PUBLIC	??$forward@V?$allocator@UVector2D@@@std@@@std@@YA$$QAV?$allocator@UVector2D@@@0@AAV10@@Z ; std::forward<std::allocator<Vector2D> >
PUBLIC	??$?0V?$allocator@UVector2D@@@std@@$$V@?$_Compressed_pair@V?$allocator@UVector2D@@@std@@V?$_Vector_val@U?$_Simple_types@UVector2D@@@std@@@2@$00@std@@QAE@U_One_then_variadic_args_t@1@$$QAV?$allocator@UVector2D@@@1@@Z ; std::_Compressed_pair<std::allocator<Vector2D>,std::_Vector_val<std::_Simple_types<Vector2D> >,1>::_Compressed_pair<std::allocator<Vector2D>,std::_Vector_val<std::_Simple_types<Vector2D> >,1><std::allocator<Vector2D> >
PUBLIC	??$_Uninitialized_copy@PAUVector2D@@PAU1@V?$allocator@UVector2D@@@std@@@std@@YAPAUVector2D@@QAU1@0PAU1@AAV?$allocator@UVector2D@@@0@@Z ; std::_Uninitialized_copy<Vector2D *,Vector2D *,std::allocator<Vector2D> >
PUBLIC	??$_Pocma@V?$allocator@UVector2D@@@std@@@std@@YAXAAV?$allocator@UVector2D@@@0@0U?$integral_constant@_N$00@0@@Z ; std::_Pocma<std::allocator<Vector2D> >
PUBLIC	??$_Allocate_manually_vector_aligned@U_Default_allocate_traits@std@@@std@@YAPAXI@Z ; std::_Allocate_manually_vector_aligned<std::_Default_allocate_traits>
PUBLIC	??$destroy@PAU?$_List_node@UWeaponRecord@WeaponMarkers@@PAX@std@@@?$_Default_allocator_traits@V?$allocator@U?$_List_node@UWeaponRecord@WeaponMarkers@@PAX@std@@@std@@@std@@SAXAAV?$allocator@U?$_List_node@UWeaponRecord@WeaponMarkers@@PAX@std@@@1@QAPAU?$_List_node@UWeaponRecord@WeaponMarkers@@PAX@1@@Z ; std::_Default_allocator_traits<std::allocator<std::_List_node<WeaponMarkers::WeaponRecord,void *> > >::destroy<std::_List_node<WeaponMarkers::WeaponRecord,void *> *>
PUBLIC	??$forward@U_Container_proxy@std@@@std@@YA$$QAU_Container_proxy@0@AAU10@@Z ; std::forward<std::_Container_proxy>
PUBLIC	??$_Destroy_range1@V?$allocator@UVector2D@@@std@@@std@@YAXPAUVector2D@@0AAV?$allocator@UVector2D@@@0@U?$integral_constant@_N$00@0@@Z ; std::_Destroy_range1<std::allocator<Vector2D> >
PUBLIC	??$forward@AAPAU?$_List_node@UWeaponRecord@WeaponMarkers@@PAX@std@@@std@@YAAAPAU?$_List_node@UWeaponRecord@WeaponMarkers@@PAX@0@AAPAU10@@Z ; std::forward<std::_List_node<WeaponMarkers::WeaponRecord,void *> * &>
PUBLIC	??$_Uninitialized_move@PAUVector2D@@PAU1@V?$allocator@UVector2D@@@std@@@std@@YAPAUVector2D@@QAU1@0PAU1@AAV?$allocator@UVector2D@@@0@@Z ; std::_Uninitialized_move<Vector2D *,Vector2D *,std::allocator<Vector2D> >
PUBLIC	??$construct@UWeaponRecord@WeaponMarkers@@U12@@?$_Default_allocator_traits@V?$allocator@U?$_List_node@UWeaponRecord@WeaponMarkers@@PAX@std@@@std@@@std@@SAXAAV?$allocator@U?$_List_node@UWeaponRecord@WeaponMarkers@@PAX@std@@@1@QAUWeaponRecord@WeaponMarkers@@$$QAU34@@Z ; std::_Default_allocator_traits<std::allocator<std::_List_node<WeaponMarkers::WeaponRecord,void *> > >::construct<WeaponMarkers::WeaponRecord,WeaponMarkers::WeaponRecord>
PUBLIC	??$?0U?$integral_constant@_N$00@std@@@_Unused_parameter@std@@QAE@$$QAU?$integral_constant@_N$00@1@@Z ; std::_Unused_parameter::_Unused_parameter<std::integral_constant<bool,1> >
PUBLIC	??$_Get_unwrapped@UVector2D@@@std@@YAPAUVector2D@@QAU1@@Z ; std::_Get_unwrapped<Vector2D>
PUBLIC	??$_Idl_distance@PAUVector2D@@PAU1@@std@@YA@ABQAUVector2D@@0@Z ; std::_Idl_distance<Vector2D *,Vector2D *>
PUBLIC	??$_Idl_distance1@PAUVector2D@@PAU1@@std@@YAHABQAUVector2D@@0Urandom_access_iterator_tag@0@@Z ; std::_Idl_distance1<Vector2D *,Vector2D *>
PUBLIC	??$_Get_unwrapped_n@UVector2D@@H$0A@@std@@YAPAUVector2D@@QAU1@H@Z ; std::_Get_unwrapped_n<Vector2D,int,0>
PUBLIC	??$_Ptr_copy_cat@UVector2D@@U1@@std@@YA?AU_Trivially_copyable_ptr_iterator_tag@0@ABQAUVector2D@@0@Z ; std::_Ptr_copy_cat<Vector2D,Vector2D>
PUBLIC	??$_Uninitialized_copy_al_unchecked@PAUVector2D@@PAU1@V?$allocator@UVector2D@@@std@@@std@@YAPAUVector2D@@PAU1@QAU1@1AAV?$allocator@UVector2D@@@0@U_General_ptr_iterator_tag@0@U_Unused_parameter@0@@Z ; std::_Uninitialized_copy_al_unchecked<Vector2D *,Vector2D *,std::allocator<Vector2D> >
PUBLIC	??$_Seek_wrapped@UVector2D@@@std@@YAXAAPAUVector2D@@QAU1@@Z ; std::_Seek_wrapped<Vector2D>
PUBLIC	??$_Ptr_move_cat@UVector2D@@U1@@std@@YA?AU_Trivially_copyable_ptr_iterator_tag@0@ABQAUVector2D@@0@Z ; std::_Ptr_move_cat<Vector2D,Vector2D>
PUBLIC	??$_Uninitialized_move_al_unchecked@PAUVector2D@@PAU1@V?$allocator@UVector2D@@@std@@@std@@YAPAUVector2D@@PAU1@QAU1@1AAV?$allocator@UVector2D@@@0@U_General_ptr_iterator_tag@0@U_Unused_parameter@0@@Z ; std::_Uninitialized_move_al_unchecked<Vector2D *,Vector2D *,std::allocator<Vector2D> >
PUBLIC	??0?$_Uninitialized_backout_al@PAUVector2D@@V?$allocator@UVector2D@@@std@@@std@@QAE@PAUVector2D@@AAV?$allocator@UVector2D@@@1@@Z ; std::_Uninitialized_backout_al<Vector2D *,std::allocator<Vector2D> >::_Uninitialized_backout_al<Vector2D *,std::allocator<Vector2D> >
PUBLIC	??1?$_Uninitialized_backout_al@PAUVector2D@@V?$allocator@UVector2D@@@std@@@std@@QAE@XZ ; std::_Uninitialized_backout_al<Vector2D *,std::allocator<Vector2D> >::~_Uninitialized_backout_al<Vector2D *,std::allocator<Vector2D> >
PUBLIC	?_Release@?$_Uninitialized_backout_al@PAUVector2D@@V?$allocator@UVector2D@@@std@@@std@@QAEPAUVector2D@@XZ ; std::_Uninitialized_backout_al<Vector2D *,std::allocator<Vector2D> >::_Release
PUBLIC	??$_Emplace_back@AAUVector2D@@@?$_Uninitialized_backout_al@PAUVector2D@@V?$allocator@UVector2D@@@std@@@std@@QAEXAAUVector2D@@@Z ; std::_Uninitialized_backout_al<Vector2D *,std::allocator<Vector2D> >::_Emplace_back<Vector2D &>
PUBLIC	??$_Emplace_back@UVector2D@@@?$_Uninitialized_backout_al@PAUVector2D@@V?$allocator@UVector2D@@@std@@@std@@QAEX$$QAUVector2D@@@Z ; std::_Uninitialized_backout_al<Vector2D *,std::allocator<Vector2D> >::_Emplace_back<Vector2D>
PUBLIC	??$forward@AAUVector2D@@@std@@YAAAUVector2D@@AAU1@@Z ; std::forward<Vector2D &>
PUBLIC	??$construct@UVector2D@@AAU1@@?$_Default_allocator_traits@V?$allocator@UVector2D@@@std@@@std@@SAXAAV?$allocator@UVector2D@@@1@QAUVector2D@@AAU3@@Z ; std::_Default_allocator_traits<std::allocator<Vector2D> >::construct<Vector2D,Vector2D &>
PUBLIC	??_C@_0BB@FCMFBGOM@invalid?5argument@		; `string'
PUBLIC	??_C@_02DKCKIIND@?$CFs@				; `string'
PUBLIC	??_C@_1CG@JNLFBNGN@?$AA?$CC?$AAi?$AAn?$AAv?$AAa?$AAl?$AAi?$AAd?$AA?5?$AAa?$AAr?$AAg?$AAu?$AAm?$AAe@ ; `string'
PUBLIC	??_C@_0BJ@LFDBABJJ@ITERATOR?5LIST?5CORRUPTED?$CB@ ; `string'
PUBLIC	??_C@_0GK@EGAHLIFA@c?3?2program?5files?5?$CIx86?$CJ?2microsof@ ; `string'
PUBLIC	??_C@_1NE@DPDGCNAN@?$AAc?$AA?3?$AA?2?$AAp?$AAr?$AAo?$AAg?$AAr?$AAa?$AAm?$AA?5?$AAf?$AAi?$AAl?$AAe@ ; `string'
PUBLIC	??_C@_1EE@KLDMFDFL@?$AAs?$AAt?$AAd?$AA?3?$AA?3?$AA_?$AAI?$AAt?$AAe?$AAr?$AAa?$AAt?$AAo?$AAr?$AA_@ ; `string'
PUBLIC	??_C@_1DG@PLBPCAEM@?$AA?$CC?$AAI?$AAT?$AAE?$AAR?$AAA?$AAT?$AAO?$AAR?$AA?5?$AAL?$AAI?$AAS?$AAT?$AA?5@ ; `string'
PUBLIC	??_C@_0GK@FKLKIKPD@c?3?2program?5files?5?$CIx86?$CJ?2microsof@ ; `string'
PUBLIC	??_C@_1NE@MCNNPIKO@?$AAc?$AA?3?$AA?2?$AAp?$AAr?$AAo?$AAg?$AAr?$AAa?$AAm?$AA?5?$AAf?$AAi?$AAl?$AAe@ ; `string'
PUBLIC	??_C@_1EK@NIFDJFDG@?$AAs?$AAt?$AAd?$AA?3?$AA?3?$AA_?$AAA?$AAd?$AAj?$AAu?$AAs?$AAt?$AA_?$AAm?$AAa@ ; `string'
PUBLIC	??_C@_0BO@PFKOHNJC@vector?5subscript?5out?5of?5range@ ; `string'
PUBLIC	??_C@_0GI@LCGNDFBO@c?3?2program?5files?5?$CIx86?$CJ?2microsof@ ; `string'
PUBLIC	??_C@_1NA@LINFDFEH@?$AAc?$AA?3?$AA?2?$AAp?$AAr?$AAo?$AAg?$AAr?$AAa?$AAm?$AA?5?$AAf?$AAi?$AAl?$AAe@ ; `string'
PUBLIC	??_C@_1KC@ILGGEGM@?$AAs?$AAt?$AAd?$AA?3?$AA?3?$AAv?$AAe?$AAc?$AAt?$AAo?$AAr?$AA?$DM?$AAs?$AAt?$AAr@ ; `string'
PUBLIC	??_C@_1EA@LEKOKFNB@?$AA?$CC?$AAv?$AAe?$AAc?$AAt?$AAo?$AAr?$AA?5?$AAs?$AAu?$AAb?$AAs?$AAc?$AAr?$AAi@ ; `string'
PUBLIC	??_C@_0BM@BALDKKHE@list?5iterators?5incompatible@ ; `string'
PUBLIC	??_C@_0GG@PPINKBLF@c?3?2program?5files?5?$CIx86?$CJ?2microsof@ ; `string'
PUBLIC	??_C@_1MM@EBFNFMAJ@?$AAc?$AA?3?$AA?2?$AAp?$AAr?$AAo?$AAg?$AAr?$AAa?$AAm?$AA?5?$AAf?$AAi?$AAl?$AAe@ ; `string'
PUBLIC	??_C@_1BAG@MBHDMLOB@?$AAs?$AAt?$AAd?$AA?3?$AA?3?$AA_?$AAL?$AAi?$AAs?$AAt?$AA_?$AAc?$AAo?$AAn?$AAs@ ; `string'
PUBLIC	??_C@_1DM@KDLJAKOP@?$AA?$CC?$AAl?$AAi?$AAs?$AAt?$AA?5?$AAi?$AAt?$AAe?$AAr?$AAa?$AAt?$AAo?$AAr?$AAs@ ; `string'
PUBLIC	??_C@_0DB@ENBCPNKO@cannot?5increment?5value?9initiali@ ; `string'
PUBLIC	??_C@_1BAG@GBIOCCCE@?$AAs?$AAt?$AAd?$AA?3?$AA?3?$AA_?$AAL?$AAi?$AAs?$AAt?$AA_?$AAc?$AAo?$AAn?$AAs@ ; `string'
PUBLIC	??_C@_1GG@JLMAGPNK@?$AA?$CC?$AAc?$AAa?$AAn?$AAn?$AAo?$AAt?$AA?5?$AAi?$AAn?$AAc?$AAr?$AAe?$AAm?$AAe@ ; `string'
PUBLIC	??_C@_0CD@PMFMCEG@cannot?5increment?5end?5list?5itera@ ; `string'
PUBLIC	??_C@_1EK@OKKCFDJN@?$AA?$CC?$AAc?$AAa?$AAn?$AAn?$AAo?$AAt?$AA?5?$AAi?$AAn?$AAc?$AAr?$AAe?$AAm?$AAe@ ; `string'
PUBLIC	??_C@_0DD@MBIHGLJE@cannot?5dereference?5value?9initia@ ; `string'
PUBLIC	??_C@_1BAE@MGIFEJMB@?$AAs?$AAt?$AAd?$AA?3?$AA?3?$AA_?$AAL?$AAi?$AAs?$AAt?$AA_?$AAc?$AAo?$AAn?$AAs@ ; `string'
PUBLIC	??_C@_1GK@NKIMOCIG@?$AA?$CC?$AAc?$AAa?$AAn?$AAn?$AAo?$AAt?$AA?5?$AAd?$AAe?$AAr?$AAe?$AAf?$AAe?$AAr@ ; `string'
PUBLIC	??_C@_0CF@JCBFHMPL@cannot?5dereference?5end?5list?5ite@ ; `string'
PUBLIC	??_C@_1EO@CNEFBDCF@?$AA?$CC?$AAc?$AAa?$AAn?$AAn?$AAo?$AAt?$AA?5?$AAd?$AAe?$AAr?$AAe?$AAf?$AAe?$AAr@ ; `string'
PUBLIC	??_C@_0BD@OLBABOEK@vector?$DMT?$DO?5too?5long@	; `string'
PUBLIC	??_C@_0BB@MOGOBHAF@list?$DMT?$DO?5too?5long@	; `string'
PUBLIC	??_C@_1EO@GFNCMDLA@?$AAs?$AAt?$AAd?$AA?3?$AA?3?$AA_?$AAA?$AAl?$AAl?$AAo?$AAc?$AAa?$AAt?$AAe?$AA_@ ; `string'
PUBLIC	__real@0010000000000000
PUBLIC	__real@00800000
PUBLIC	__real@3ff0000000000000
PUBLIC	__real@4000000000000000
PUBLIC	__real@4004000000000000
PUBLIC	__real@4008000000000000
PUBLIC	__real@4022000000000000
PUBLIC	__real@402e000000000000
PUBLIC	__real@7f7fffff
PUBLIC	__real@7fefffffffffffff
PUBLIC	__real@bff0000000000000
PUBLIC	__real@c000000000000000
PUBLIC	__xmm@80000000000000008000000000000000
EXTRN	??2@YAPAXI@Z:PROC				; operator new
EXTRN	??3@YAXPAXI@Z:PROC				; operator delete
EXTRN	__invalid_parameter:PROC
EXTRN	__CrtDbgReport:PROC
EXTRN	??0_Lockit@std@@QAE@H@Z:PROC			; std::_Lockit::_Lockit
EXTRN	??1_Lockit@std@@QAE@XZ:PROC			; std::_Lockit::~_Lockit
EXTRN	?_Xlength_error@std@@YAXPBD@Z:PROC		; std::_Xlength_error
EXTRN	__imp__Ellipse@20:PROC
EXTRN	__imp__GetStockObject@4:PROC
EXTRN	__imp__LineTo@12:PROC
EXTRN	__imp__SelectObject@8:PROC
EXTRN	__imp__MoveToEx@16:PROC
EXTRN	?Instance@Cgdi@@SAPAV1@XZ:PROC			; Cgdi::Instance
EXTRN	@_RTC_CheckStackVars@8:PROC
EXTRN	@__security_check_cookie@4:PROC
EXTRN	__CxxThrowException@8:PROC
EXTRN	__RTC_CheckEsp:PROC
EXTRN	__RTC_InitBase:PROC
EXTRN	__RTC_Shutdown:PROC
EXTRN	___CxxFrameHandler3:PROC
EXTRN	___security_cookie:DWORD
EXTRN	__fltused:DWORD
_BSS	SEGMENT
?MaxInt@@3HB DD	01H DUP (?)				; MaxInt
	ALIGN	8

?MaxDouble@@3NB DQ 01H DUP (?)				; MaxDouble
?MinDouble@@3NB DQ 01H DUP (?)				; MinDouble
?MaxFloat@@3MB DD 01H DUP (?)				; MaxFloat
?MinFloat@@3MB DD 01H DUP (?)				; MinFloat
_BSS	ENDS
CRT$XCU	SEGMENT
?MaxInt$initializer$@@3P6AXXZA DD FLAT:??__EMaxInt@@YAXXZ ; MaxInt$initializer$
CRT$XCU	ENDS
;	COMDAT __xmm@80000000000000008000000000000000
CONST	SEGMENT
__xmm@80000000000000008000000000000000 DB 00H, 00H, 00H, 00H, 00H, 00H, 00H
	DB	080H, 00H, 00H, 00H, 00H, 00H, 00H, 00H, 080H
CONST	ENDS
;	COMDAT __real@c000000000000000
CONST	SEGMENT
__real@c000000000000000 DQ 0c000000000000000r	; -2
CONST	ENDS
;	COMDAT __real@bff0000000000000
CONST	SEGMENT
__real@bff0000000000000 DQ 0bff0000000000000r	; -1
CONST	ENDS
;	COMDAT __real@7fefffffffffffff
CONST	SEGMENT
__real@7fefffffffffffff DQ 07fefffffffffffffr	; 1.79769e+308
CONST	ENDS
;	COMDAT __real@7f7fffff
CONST	SEGMENT
__real@7f7fffff DD 07f7fffffr			; 3.40282e+38
CONST	ENDS
;	COMDAT __real@402e000000000000
CONST	SEGMENT
__real@402e000000000000 DQ 0402e000000000000r	; 15
CONST	ENDS
;	COMDAT __real@4022000000000000
CONST	SEGMENT
__real@4022000000000000 DQ 04022000000000000r	; 9
CONST	ENDS
;	COMDAT __real@4008000000000000
CONST	SEGMENT
__real@4008000000000000 DQ 04008000000000000r	; 3
CONST	ENDS
;	COMDAT __real@4004000000000000
CONST	SEGMENT
__real@4004000000000000 DQ 04004000000000000r	; 2.5
CONST	ENDS
;	COMDAT __real@4000000000000000
CONST	SEGMENT
__real@4000000000000000 DQ 04000000000000000r	; 2
CONST	ENDS
;	COMDAT __real@3ff0000000000000
CONST	SEGMENT
__real@3ff0000000000000 DQ 03ff0000000000000r	; 1
CONST	ENDS
;	COMDAT __real@00800000
CONST	SEGMENT
__real@00800000 DD 000800000r			; 1.17549e-38
CONST	ENDS
;	COMDAT __real@0010000000000000
CONST	SEGMENT
__real@0010000000000000 DQ 00010000000000000r	; 2.22507e-308
CONST	ENDS
;	COMDAT rtc$TMZ
rtc$TMZ	SEGMENT
__RTC_Shutdown.rtc$TMZ DD FLAT:__RTC_Shutdown
rtc$TMZ	ENDS
;	COMDAT rtc$IMZ
rtc$IMZ	SEGMENT
__RTC_InitBase.rtc$IMZ DD FLAT:__RTC_InitBase
rtc$IMZ	ENDS
;	COMDAT ??_C@_1EO@GFNCMDLA@?$AAs?$AAt?$AAd?$AA?3?$AA?3?$AA_?$AAA?$AAl?$AAl?$AAo?$AAc?$AAa?$AAt?$AAe?$AA_@
CONST	SEGMENT
??_C@_1EO@GFNCMDLA@?$AAs?$AAt?$AAd?$AA?3?$AA?3?$AA_?$AAA?$AAl?$AAl?$AAo?$AAc?$AAa?$AAt?$AAe?$AA_@ DB 's'
	DB	00H, 't', 00H, 'd', 00H, ':', 00H, ':', 00H, '_', 00H, 'A', 00H
	DB	'l', 00H, 'l', 00H, 'o', 00H, 'c', 00H, 'a', 00H, 't', 00H, 'e'
	DB	00H, '_', 00H, 'm', 00H, 'a', 00H, 'n', 00H, 'u', 00H, 'a', 00H
	DB	'l', 00H, 'l', 00H, 'y', 00H, '_', 00H, 'v', 00H, 'e', 00H, 'c'
	DB	00H, 't', 00H, 'o', 00H, 'r', 00H, '_', 00H, 'a', 00H, 'l', 00H
	DB	'i', 00H, 'g', 00H, 'n', 00H, 'e', 00H, 'd', 00H, 00H, 00H ; `string'
CONST	ENDS
;	COMDAT ??_C@_0BB@MOGOBHAF@list?$DMT?$DO?5too?5long@
CONST	SEGMENT
??_C@_0BB@MOGOBHAF@list?$DMT?$DO?5too?5long@ DB 'list<T> too long', 00H ; `string'
CONST	ENDS
;	COMDAT ??_C@_0BD@OLBABOEK@vector?$DMT?$DO?5too?5long@
CONST	SEGMENT
??_C@_0BD@OLBABOEK@vector?$DMT?$DO?5too?5long@ DB 'vector<T> too long', 00H ; `string'
CONST	ENDS
;	COMDAT ??_C@_1EO@CNEFBDCF@?$AA?$CC?$AAc?$AAa?$AAn?$AAn?$AAo?$AAt?$AA?5?$AAd?$AAe?$AAr?$AAe?$AAf?$AAe?$AAr@
CONST	SEGMENT
??_C@_1EO@CNEFBDCF@?$AA?$CC?$AAc?$AAa?$AAn?$AAn?$AAo?$AAt?$AA?5?$AAd?$AAe?$AAr?$AAe?$AAf?$AAe?$AAr@ DB '"'
	DB	00H, 'c', 00H, 'a', 00H, 'n', 00H, 'n', 00H, 'o', 00H, 't', 00H
	DB	' ', 00H, 'd', 00H, 'e', 00H, 'r', 00H, 'e', 00H, 'f', 00H, 'e'
	DB	00H, 'r', 00H, 'e', 00H, 'n', 00H, 'c', 00H, 'e', 00H, ' ', 00H
	DB	'e', 00H, 'n', 00H, 'd', 00H, ' ', 00H, 'l', 00H, 'i', 00H, 's'
	DB	00H, 't', 00H, ' ', 00H, 'i', 00H, 't', 00H, 'e', 00H, 'r', 00H
	DB	'a', 00H, 't', 00H, 'o', 00H, 'r', 00H, '"', 00H, 00H, 00H ; `string'
CONST	ENDS
;	COMDAT ??_C@_0CF@JCBFHMPL@cannot?5dereference?5end?5list?5ite@
CONST	SEGMENT
??_C@_0CF@JCBFHMPL@cannot?5dereference?5end?5list?5ite@ DB 'cannot derefe'
	DB	'rence end list iterator', 00H		; `string'
CONST	ENDS
;	COMDAT ??_C@_1GK@NKIMOCIG@?$AA?$CC?$AAc?$AAa?$AAn?$AAn?$AAo?$AAt?$AA?5?$AAd?$AAe?$AAr?$AAe?$AAf?$AAe?$AAr@
CONST	SEGMENT
??_C@_1GK@NKIMOCIG@?$AA?$CC?$AAc?$AAa?$AAn?$AAn?$AAo?$AAt?$AA?5?$AAd?$AAe?$AAr?$AAe?$AAf?$AAe?$AAr@ DB '"'
	DB	00H, 'c', 00H, 'a', 00H, 'n', 00H, 'n', 00H, 'o', 00H, 't', 00H
	DB	' ', 00H, 'd', 00H, 'e', 00H, 'r', 00H, 'e', 00H, 'f', 00H, 'e'
	DB	00H, 'r', 00H, 'e', 00H, 'n', 00H, 'c', 00H, 'e', 00H, ' ', 00H
	DB	'v', 00H, 'a', 00H, 'l', 00H, 'u', 00H, 'e', 00H, '-', 00H, 'i'
	DB	00H, 'n', 00H, 'i', 00H, 't', 00H, 'i', 00H, 'a', 00H, 'l', 00H
	DB	'i', 00H, 'z', 00H, 'e', 00H, 'd', 00H, ' ', 00H, 'l', 00H, 'i'
	DB	00H, 's', 00H, 't', 00H, ' ', 00H, 'i', 00H, 't', 00H, 'e', 00H
	DB	'r', 00H, 'a', 00H, 't', 00H, 'o', 00H, 'r', 00H, '"', 00H, 00H
	DB	00H						; `string'
CONST	ENDS
;	COMDAT ??_C@_1BAE@MGIFEJMB@?$AAs?$AAt?$AAd?$AA?3?$AA?3?$AA_?$AAL?$AAi?$AAs?$AAt?$AA_?$AAc?$AAo?$AAn?$AAs@
CONST	SEGMENT
??_C@_1BAE@MGIFEJMB@?$AAs?$AAt?$AAd?$AA?3?$AA?3?$AA_?$AAL?$AAi?$AAs?$AAt?$AA_?$AAc?$AAo?$AAn?$AAs@ DB 's'
	DB	00H, 't', 00H, 'd', 00H, ':', 00H, ':', 00H, '_', 00H, 'L', 00H
	DB	'i', 00H, 's', 00H, 't', 00H, '_', 00H, 'c', 00H, 'o', 00H, 'n'
	DB	00H, 's', 00H, 't', 00H, '_', 00H, 'i', 00H, 't', 00H, 'e', 00H
	DB	'r', 00H, 'a', 00H, 't', 00H, 'o', 00H, 'r', 00H, '<', 00H, 'c'
	DB	00H, 'l', 00H, 'a', 00H, 's', 00H, 's', 00H, ' ', 00H, 's', 00H
	DB	't', 00H, 'd', 00H, ':', 00H, ':', 00H, '_', 00H, 'L', 00H, 'i'
	DB	00H, 's', 00H, 't', 00H, '_', 00H, 'v', 00H, 'a', 00H, 'l', 00H
	DB	'<', 00H, 's', 00H, 't', 00H, 'r', 00H, 'u', 00H, 'c', 00H, 't'
	DB	00H, ' ', 00H, 's', 00H, 't', 00H, 'd', 00H, ':', 00H, ':', 00H
	DB	'_', 00H, 'L', 00H, 'i', 00H, 's', 00H, 't', 00H, '_', 00H, 's'
	DB	00H, 'i', 00H, 'm', 00H, 'p', 00H, 'l', 00H, 'e', 00H, '_', 00H
	DB	't', 00H, 'y', 00H, 'p', 00H, 'e', 00H, 's', 00H, '<', 00H, 's'
	DB	00H, 't', 00H, 'r', 00H, 'u', 00H, 'c', 00H, 't', 00H, ' ', 00H
	DB	'W', 00H, 'e', 00H, 'a', 00H, 'p', 00H, 'o', 00H, 'n', 00H, 'M'
	DB	00H, 'a', 00H, 'r', 00H, 'k', 00H, 'e', 00H, 'r', 00H, 's', 00H
	DB	':', 00H, ':', 00H, 'W', 00H, 'e', 00H, 'a', 00H, 'p', 00H, 'o'
	DB	00H, 'n', 00H, 'R', 00H, 'e', 00H, 'c', 00H, 'o', 00H, 'r', 00H
	DB	'd', 00H, '>', 00H, ' ', 00H, '>', 00H, ' ', 00H, '>', 00H, ':'
	DB	00H, ':', 00H, 'o', 00H, 'p', 00H, 'e', 00H, 'r', 00H, 'a', 00H
	DB	't', 00H, 'o', 00H, 'r', 00H, ' ', 00H, '*', 00H, 00H, 00H ; `string'
CONST	ENDS
;	COMDAT ??_C@_0DD@MBIHGLJE@cannot?5dereference?5value?9initia@
CONST	SEGMENT
??_C@_0DD@MBIHGLJE@cannot?5dereference?5value?9initia@ DB 'cannot derefer'
	DB	'ence value-initialized list iterator', 00H	; `string'
CONST	ENDS
;	COMDAT ??_C@_1EK@OKKCFDJN@?$AA?$CC?$AAc?$AAa?$AAn?$AAn?$AAo?$AAt?$AA?5?$AAi?$AAn?$AAc?$AAr?$AAe?$AAm?$AAe@
CONST	SEGMENT
??_C@_1EK@OKKCFDJN@?$AA?$CC?$AAc?$AAa?$AAn?$AAn?$AAo?$AAt?$AA?5?$AAi?$AAn?$AAc?$AAr?$AAe?$AAm?$AAe@ DB '"'
	DB	00H, 'c', 00H, 'a', 00H, 'n', 00H, 'n', 00H, 'o', 00H, 't', 00H
	DB	' ', 00H, 'i', 00H, 'n', 00H, 'c', 00H, 'r', 00H, 'e', 00H, 'm'
	DB	00H, 'e', 00H, 'n', 00H, 't', 00H, ' ', 00H, 'e', 00H, 'n', 00H
	DB	'd', 00H, ' ', 00H, 'l', 00H, 'i', 00H, 's', 00H, 't', 00H, ' '
	DB	00H, 'i', 00H, 't', 00H, 'e', 00H, 'r', 00H, 'a', 00H, 't', 00H
	DB	'o', 00H, 'r', 00H, '"', 00H, 00H, 00H	; `string'
CONST	ENDS
;	COMDAT ??_C@_0CD@PMFMCEG@cannot?5increment?5end?5list?5itera@
CONST	SEGMENT
??_C@_0CD@PMFMCEG@cannot?5increment?5end?5list?5itera@ DB 'cannot increme'
	DB	'nt end list iterator', 00H			; `string'
CONST	ENDS
;	COMDAT ??_C@_1GG@JLMAGPNK@?$AA?$CC?$AAc?$AAa?$AAn?$AAn?$AAo?$AAt?$AA?5?$AAi?$AAn?$AAc?$AAr?$AAe?$AAm?$AAe@
CONST	SEGMENT
??_C@_1GG@JLMAGPNK@?$AA?$CC?$AAc?$AAa?$AAn?$AAn?$AAo?$AAt?$AA?5?$AAi?$AAn?$AAc?$AAr?$AAe?$AAm?$AAe@ DB '"'
	DB	00H, 'c', 00H, 'a', 00H, 'n', 00H, 'n', 00H, 'o', 00H, 't', 00H
	DB	' ', 00H, 'i', 00H, 'n', 00H, 'c', 00H, 'r', 00H, 'e', 00H, 'm'
	DB	00H, 'e', 00H, 'n', 00H, 't', 00H, ' ', 00H, 'v', 00H, 'a', 00H
	DB	'l', 00H, 'u', 00H, 'e', 00H, '-', 00H, 'i', 00H, 'n', 00H, 'i'
	DB	00H, 't', 00H, 'i', 00H, 'a', 00H, 'l', 00H, 'i', 00H, 'z', 00H
	DB	'e', 00H, 'd', 00H, ' ', 00H, 'l', 00H, 'i', 00H, 's', 00H, 't'
	DB	00H, ' ', 00H, 'i', 00H, 't', 00H, 'e', 00H, 'r', 00H, 'a', 00H
	DB	't', 00H, 'o', 00H, 'r', 00H, '"', 00H, 00H, 00H ; `string'
CONST	ENDS
;	COMDAT ??_C@_1BAG@GBIOCCCE@?$AAs?$AAt?$AAd?$AA?3?$AA?3?$AA_?$AAL?$AAi?$AAs?$AAt?$AA_?$AAc?$AAo?$AAn?$AAs@
CONST	SEGMENT
??_C@_1BAG@GBIOCCCE@?$AAs?$AAt?$AAd?$AA?3?$AA?3?$AA_?$AAL?$AAi?$AAs?$AAt?$AA_?$AAc?$AAo?$AAn?$AAs@ DB 's'
	DB	00H, 't', 00H, 'd', 00H, ':', 00H, ':', 00H, '_', 00H, 'L', 00H
	DB	'i', 00H, 's', 00H, 't', 00H, '_', 00H, 'c', 00H, 'o', 00H, 'n'
	DB	00H, 's', 00H, 't', 00H, '_', 00H, 'i', 00H, 't', 00H, 'e', 00H
	DB	'r', 00H, 'a', 00H, 't', 00H, 'o', 00H, 'r', 00H, '<', 00H, 'c'
	DB	00H, 'l', 00H, 'a', 00H, 's', 00H, 's', 00H, ' ', 00H, 's', 00H
	DB	't', 00H, 'd', 00H, ':', 00H, ':', 00H, '_', 00H, 'L', 00H, 'i'
	DB	00H, 's', 00H, 't', 00H, '_', 00H, 'v', 00H, 'a', 00H, 'l', 00H
	DB	'<', 00H, 's', 00H, 't', 00H, 'r', 00H, 'u', 00H, 'c', 00H, 't'
	DB	00H, ' ', 00H, 's', 00H, 't', 00H, 'd', 00H, ':', 00H, ':', 00H
	DB	'_', 00H, 'L', 00H, 'i', 00H, 's', 00H, 't', 00H, '_', 00H, 's'
	DB	00H, 'i', 00H, 'm', 00H, 'p', 00H, 'l', 00H, 'e', 00H, '_', 00H
	DB	't', 00H, 'y', 00H, 'p', 00H, 'e', 00H, 's', 00H, '<', 00H, 's'
	DB	00H, 't', 00H, 'r', 00H, 'u', 00H, 'c', 00H, 't', 00H, ' ', 00H
	DB	'W', 00H, 'e', 00H, 'a', 00H, 'p', 00H, 'o', 00H, 'n', 00H, 'M'
	DB	00H, 'a', 00H, 'r', 00H, 'k', 00H, 'e', 00H, 'r', 00H, 's', 00H
	DB	':', 00H, ':', 00H, 'W', 00H, 'e', 00H, 'a', 00H, 'p', 00H, 'o'
	DB	00H, 'n', 00H, 'R', 00H, 'e', 00H, 'c', 00H, 'o', 00H, 'r', 00H
	DB	'd', 00H, '>', 00H, ' ', 00H, '>', 00H, ' ', 00H, '>', 00H, ':'
	DB	00H, ':', 00H, 'o', 00H, 'p', 00H, 'e', 00H, 'r', 00H, 'a', 00H
	DB	't', 00H, 'o', 00H, 'r', 00H, ' ', 00H, '+', 00H, '+', 00H, 00H
	DB	00H						; `string'
CONST	ENDS
;	COMDAT ??_C@_0DB@ENBCPNKO@cannot?5increment?5value?9initiali@
CONST	SEGMENT
??_C@_0DB@ENBCPNKO@cannot?5increment?5value?9initiali@ DB 'cannot increme'
	DB	'nt value-initialized list iterator', 00H	; `string'
CONST	ENDS
;	COMDAT ??_C@_1DM@KDLJAKOP@?$AA?$CC?$AAl?$AAi?$AAs?$AAt?$AA?5?$AAi?$AAt?$AAe?$AAr?$AAa?$AAt?$AAo?$AAr?$AAs@
CONST	SEGMENT
??_C@_1DM@KDLJAKOP@?$AA?$CC?$AAl?$AAi?$AAs?$AAt?$AA?5?$AAi?$AAt?$AAe?$AAr?$AAa?$AAt?$AAo?$AAr?$AAs@ DB '"'
	DB	00H, 'l', 00H, 'i', 00H, 's', 00H, 't', 00H, ' ', 00H, 'i', 00H
	DB	't', 00H, 'e', 00H, 'r', 00H, 'a', 00H, 't', 00H, 'o', 00H, 'r'
	DB	00H, 's', 00H, ' ', 00H, 'i', 00H, 'n', 00H, 'c', 00H, 'o', 00H
	DB	'm', 00H, 'p', 00H, 'a', 00H, 't', 00H, 'i', 00H, 'b', 00H, 'l'
	DB	00H, 'e', 00H, '"', 00H, 00H, 00H		; `string'
CONST	ENDS
;	COMDAT ??_C@_1BAG@MBHDMLOB@?$AAs?$AAt?$AAd?$AA?3?$AA?3?$AA_?$AAL?$AAi?$AAs?$AAt?$AA_?$AAc?$AAo?$AAn?$AAs@
CONST	SEGMENT
??_C@_1BAG@MBHDMLOB@?$AAs?$AAt?$AAd?$AA?3?$AA?3?$AA_?$AAL?$AAi?$AAs?$AAt?$AA_?$AAc?$AAo?$AAn?$AAs@ DB 's'
	DB	00H, 't', 00H, 'd', 00H, ':', 00H, ':', 00H, '_', 00H, 'L', 00H
	DB	'i', 00H, 's', 00H, 't', 00H, '_', 00H, 'c', 00H, 'o', 00H, 'n'
	DB	00H, 's', 00H, 't', 00H, '_', 00H, 'i', 00H, 't', 00H, 'e', 00H
	DB	'r', 00H, 'a', 00H, 't', 00H, 'o', 00H, 'r', 00H, '<', 00H, 'c'
	DB	00H, 'l', 00H, 'a', 00H, 's', 00H, 's', 00H, ' ', 00H, 's', 00H
	DB	't', 00H, 'd', 00H, ':', 00H, ':', 00H, '_', 00H, 'L', 00H, 'i'
	DB	00H, 's', 00H, 't', 00H, '_', 00H, 'v', 00H, 'a', 00H, 'l', 00H
	DB	'<', 00H, 's', 00H, 't', 00H, 'r', 00H, 'u', 00H, 'c', 00H, 't'
	DB	00H, ' ', 00H, 's', 00H, 't', 00H, 'd', 00H, ':', 00H, ':', 00H
	DB	'_', 00H, 'L', 00H, 'i', 00H, 's', 00H, 't', 00H, '_', 00H, 's'
	DB	00H, 'i', 00H, 'm', 00H, 'p', 00H, 'l', 00H, 'e', 00H, '_', 00H
	DB	't', 00H, 'y', 00H, 'p', 00H, 'e', 00H, 's', 00H, '<', 00H, 's'
	DB	00H, 't', 00H, 'r', 00H, 'u', 00H, 'c', 00H, 't', 00H, ' ', 00H
	DB	'W', 00H, 'e', 00H, 'a', 00H, 'p', 00H, 'o', 00H, 'n', 00H, 'M'
	DB	00H, 'a', 00H, 'r', 00H, 'k', 00H, 'e', 00H, 'r', 00H, 's', 00H
	DB	':', 00H, ':', 00H, 'W', 00H, 'e', 00H, 'a', 00H, 'p', 00H, 'o'
	DB	00H, 'n', 00H, 'R', 00H, 'e', 00H, 'c', 00H, 'o', 00H, 'r', 00H
	DB	'd', 00H, '>', 00H, ' ', 00H, '>', 00H, ' ', 00H, '>', 00H, ':'
	DB	00H, ':', 00H, 'o', 00H, 'p', 00H, 'e', 00H, 'r', 00H, 'a', 00H
	DB	't', 00H, 'o', 00H, 'r', 00H, ' ', 00H, '=', 00H, '=', 00H, 00H
	DB	00H						; `string'
CONST	ENDS
;	COMDAT ??_C@_1MM@EBFNFMAJ@?$AAc?$AA?3?$AA?2?$AAp?$AAr?$AAo?$AAg?$AAr?$AAa?$AAm?$AA?5?$AAf?$AAi?$AAl?$AAe@
CONST	SEGMENT
??_C@_1MM@EBFNFMAJ@?$AAc?$AA?3?$AA?2?$AAp?$AAr?$AAo?$AAg?$AAr?$AAa?$AAm?$AA?5?$AAf?$AAi?$AAl?$AAe@ DB 'c'
	DB	00H, ':', 00H, '\', 00H, 'p', 00H, 'r', 00H, 'o', 00H, 'g', 00H
	DB	'r', 00H, 'a', 00H, 'm', 00H, ' ', 00H, 'f', 00H, 'i', 00H, 'l'
	DB	00H, 'e', 00H, 's', 00H, ' ', 00H, '(', 00H, 'x', 00H, '8', 00H
	DB	'6', 00H, ')', 00H, '\', 00H, 'm', 00H, 'i', 00H, 'c', 00H, 'r'
	DB	00H, 'o', 00H, 's', 00H, 'o', 00H, 'f', 00H, 't', 00H, ' ', 00H
	DB	'v', 00H, 'i', 00H, 's', 00H, 'u', 00H, 'a', 00H, 'l', 00H, ' '
	DB	00H, 's', 00H, 't', 00H, 'u', 00H, 'd', 00H, 'i', 00H, 'o', 00H
	DB	'\', 00H, '2', 00H, '0', 00H, '1', 00H, '7', 00H, '\', 00H, 'e'
	DB	00H, 'n', 00H, 't', 00H, 'e', 00H, 'r', 00H, 'p', 00H, 'r', 00H
	DB	'i', 00H, 's', 00H, 'e', 00H, '\', 00H, 'v', 00H, 'c', 00H, '\'
	DB	00H, 't', 00H, 'o', 00H, 'o', 00H, 'l', 00H, 's', 00H, '\', 00H
	DB	'm', 00H, 's', 00H, 'v', 00H, 'c', 00H, '\', 00H, '1', 00H, '4'
	DB	00H, '.', 00H, '1', 00H, '5', 00H, '.', 00H, '2', 00H, '6', 00H
	DB	'7', 00H, '2', 00H, '6', 00H, '\', 00H, 'i', 00H, 'n', 00H, 'c'
	DB	00H, 'l', 00H, 'u', 00H, 'd', 00H, 'e', 00H, '\', 00H, 'l', 00H
	DB	'i', 00H, 's', 00H, 't', 00H, 00H, 00H	; `string'
CONST	ENDS
;	COMDAT ??_C@_0GG@PPINKBLF@c?3?2program?5files?5?$CIx86?$CJ?2microsof@
CONST	SEGMENT
??_C@_0GG@PPINKBLF@c?3?2program?5files?5?$CIx86?$CJ?2microsof@ DB 'c:\pro'
	DB	'gram files (x86)\microsoft visual studio\2017\enterprise\vc\t'
	DB	'ools\msvc\14.15.26726\include\list', 00H	; `string'
CONST	ENDS
;	COMDAT ??_C@_0BM@BALDKKHE@list?5iterators?5incompatible@
CONST	SEGMENT
??_C@_0BM@BALDKKHE@list?5iterators?5incompatible@ DB 'list iterators inco'
	DB	'mpatible', 00H				; `string'
CONST	ENDS
;	COMDAT ??_C@_1EA@LEKOKFNB@?$AA?$CC?$AAv?$AAe?$AAc?$AAt?$AAo?$AAr?$AA?5?$AAs?$AAu?$AAb?$AAs?$AAc?$AAr?$AAi@
CONST	SEGMENT
??_C@_1EA@LEKOKFNB@?$AA?$CC?$AAv?$AAe?$AAc?$AAt?$AAo?$AAr?$AA?5?$AAs?$AAu?$AAb?$AAs?$AAc?$AAr?$AAi@ DB '"'
	DB	00H, 'v', 00H, 'e', 00H, 'c', 00H, 't', 00H, 'o', 00H, 'r', 00H
	DB	' ', 00H, 's', 00H, 'u', 00H, 'b', 00H, 's', 00H, 'c', 00H, 'r'
	DB	00H, 'i', 00H, 'p', 00H, 't', 00H, ' ', 00H, 'o', 00H, 'u', 00H
	DB	't', 00H, ' ', 00H, 'o', 00H, 'f', 00H, ' ', 00H, 'r', 00H, 'a'
	DB	00H, 'n', 00H, 'g', 00H, 'e', 00H, '"', 00H, 00H, 00H ; `string'
CONST	ENDS
;	COMDAT ??_C@_1KC@ILGGEGM@?$AAs?$AAt?$AAd?$AA?3?$AA?3?$AAv?$AAe?$AAc?$AAt?$AAo?$AAr?$AA?$DM?$AAs?$AAt?$AAr@
CONST	SEGMENT
??_C@_1KC@ILGGEGM@?$AAs?$AAt?$AAd?$AA?3?$AA?3?$AAv?$AAe?$AAc?$AAt?$AAo?$AAr?$AA?$DM?$AAs?$AAt?$AAr@ DB 's'
	DB	00H, 't', 00H, 'd', 00H, ':', 00H, ':', 00H, 'v', 00H, 'e', 00H
	DB	'c', 00H, 't', 00H, 'o', 00H, 'r', 00H, '<', 00H, 's', 00H, 't'
	DB	00H, 'r', 00H, 'u', 00H, 'c', 00H, 't', 00H, ' ', 00H, 'V', 00H
	DB	'e', 00H, 'c', 00H, 't', 00H, 'o', 00H, 'r', 00H, '2', 00H, 'D'
	DB	00H, ',', 00H, 'c', 00H, 'l', 00H, 'a', 00H, 's', 00H, 's', 00H
	DB	' ', 00H, 's', 00H, 't', 00H, 'd', 00H, ':', 00H, ':', 00H, 'a'
	DB	00H, 'l', 00H, 'l', 00H, 'o', 00H, 'c', 00H, 'a', 00H, 't', 00H
	DB	'o', 00H, 'r', 00H, '<', 00H, 's', 00H, 't', 00H, 'r', 00H, 'u'
	DB	00H, 'c', 00H, 't', 00H, ' ', 00H, 'V', 00H, 'e', 00H, 'c', 00H
	DB	't', 00H, 'o', 00H, 'r', 00H, '2', 00H, 'D', 00H, '>', 00H, ' '
	DB	00H, '>', 00H, ':', 00H, ':', 00H, 'o', 00H, 'p', 00H, 'e', 00H
	DB	'r', 00H, 'a', 00H, 't', 00H, 'o', 00H, 'r', 00H, ' ', 00H, '['
	DB	00H, ']', 00H, 00H, 00H			; `string'
CONST	ENDS
;	COMDAT ??_C@_1NA@LINFDFEH@?$AAc?$AA?3?$AA?2?$AAp?$AAr?$AAo?$AAg?$AAr?$AAa?$AAm?$AA?5?$AAf?$AAi?$AAl?$AAe@
CONST	SEGMENT
??_C@_1NA@LINFDFEH@?$AAc?$AA?3?$AA?2?$AAp?$AAr?$AAo?$AAg?$AAr?$AAa?$AAm?$AA?5?$AAf?$AAi?$AAl?$AAe@ DB 'c'
	DB	00H, ':', 00H, '\', 00H, 'p', 00H, 'r', 00H, 'o', 00H, 'g', 00H
	DB	'r', 00H, 'a', 00H, 'm', 00H, ' ', 00H, 'f', 00H, 'i', 00H, 'l'
	DB	00H, 'e', 00H, 's', 00H, ' ', 00H, '(', 00H, 'x', 00H, '8', 00H
	DB	'6', 00H, ')', 00H, '\', 00H, 'm', 00H, 'i', 00H, 'c', 00H, 'r'
	DB	00H, 'o', 00H, 's', 00H, 'o', 00H, 'f', 00H, 't', 00H, ' ', 00H
	DB	'v', 00H, 'i', 00H, 's', 00H, 'u', 00H, 'a', 00H, 'l', 00H, ' '
	DB	00H, 's', 00H, 't', 00H, 'u', 00H, 'd', 00H, 'i', 00H, 'o', 00H
	DB	'\', 00H, '2', 00H, '0', 00H, '1', 00H, '7', 00H, '\', 00H, 'e'
	DB	00H, 'n', 00H, 't', 00H, 'e', 00H, 'r', 00H, 'p', 00H, 'r', 00H
	DB	'i', 00H, 's', 00H, 'e', 00H, '\', 00H, 'v', 00H, 'c', 00H, '\'
	DB	00H, 't', 00H, 'o', 00H, 'o', 00H, 'l', 00H, 's', 00H, '\', 00H
	DB	'm', 00H, 's', 00H, 'v', 00H, 'c', 00H, '\', 00H, '1', 00H, '4'
	DB	00H, '.', 00H, '1', 00H, '5', 00H, '.', 00H, '2', 00H, '6', 00H
	DB	'7', 00H, '2', 00H, '6', 00H, '\', 00H, 'i', 00H, 'n', 00H, 'c'
	DB	00H, 'l', 00H, 'u', 00H, 'd', 00H, 'e', 00H, '\', 00H, 'v', 00H
	DB	'e', 00H, 'c', 00H, 't', 00H, 'o', 00H, 'r', 00H, 00H, 00H ; `string'
CONST	ENDS
;	COMDAT ??_C@_0GI@LCGNDFBO@c?3?2program?5files?5?$CIx86?$CJ?2microsof@
CONST	SEGMENT
??_C@_0GI@LCGNDFBO@c?3?2program?5files?5?$CIx86?$CJ?2microsof@ DB 'c:\pro'
	DB	'gram files (x86)\microsoft visual studio\2017\enterprise\vc\t'
	DB	'ools\msvc\14.15.26726\include\vector', 00H	; `string'
CONST	ENDS
;	COMDAT ??_C@_0BO@PFKOHNJC@vector?5subscript?5out?5of?5range@
CONST	SEGMENT
??_C@_0BO@PFKOHNJC@vector?5subscript?5out?5of?5range@ DB 'vector subscrip'
	DB	't out of range', 00H			; `string'
CONST	ENDS
;	COMDAT ??_C@_1EK@NIFDJFDG@?$AAs?$AAt?$AAd?$AA?3?$AA?3?$AA_?$AAA?$AAd?$AAj?$AAu?$AAs?$AAt?$AA_?$AAm?$AAa@
CONST	SEGMENT
??_C@_1EK@NIFDJFDG@?$AAs?$AAt?$AAd?$AA?3?$AA?3?$AA_?$AAA?$AAd?$AAj?$AAu?$AAs?$AAt?$AA_?$AAm?$AAa@ DB 's'
	DB	00H, 't', 00H, 'd', 00H, ':', 00H, ':', 00H, '_', 00H, 'A', 00H
	DB	'd', 00H, 'j', 00H, 'u', 00H, 's', 00H, 't', 00H, '_', 00H, 'm'
	DB	00H, 'a', 00H, 'n', 00H, 'u', 00H, 'a', 00H, 'l', 00H, 'l', 00H
	DB	'y', 00H, '_', 00H, 'v', 00H, 'e', 00H, 'c', 00H, 't', 00H, 'o'
	DB	00H, 'r', 00H, '_', 00H, 'a', 00H, 'l', 00H, 'i', 00H, 'g', 00H
	DB	'n', 00H, 'e', 00H, 'd', 00H, 00H, 00H	; `string'
CONST	ENDS
;	COMDAT ??_C@_1NE@MCNNPIKO@?$AAc?$AA?3?$AA?2?$AAp?$AAr?$AAo?$AAg?$AAr?$AAa?$AAm?$AA?5?$AAf?$AAi?$AAl?$AAe@
CONST	SEGMENT
??_C@_1NE@MCNNPIKO@?$AAc?$AA?3?$AA?2?$AAp?$AAr?$AAo?$AAg?$AAr?$AAa?$AAm?$AA?5?$AAf?$AAi?$AAl?$AAe@ DB 'c'
	DB	00H, ':', 00H, '\', 00H, 'p', 00H, 'r', 00H, 'o', 00H, 'g', 00H
	DB	'r', 00H, 'a', 00H, 'm', 00H, ' ', 00H, 'f', 00H, 'i', 00H, 'l'
	DB	00H, 'e', 00H, 's', 00H, ' ', 00H, '(', 00H, 'x', 00H, '8', 00H
	DB	'6', 00H, ')', 00H, '\', 00H, 'm', 00H, 'i', 00H, 'c', 00H, 'r'
	DB	00H, 'o', 00H, 's', 00H, 'o', 00H, 'f', 00H, 't', 00H, ' ', 00H
	DB	'v', 00H, 'i', 00H, 's', 00H, 'u', 00H, 'a', 00H, 'l', 00H, ' '
	DB	00H, 's', 00H, 't', 00H, 'u', 00H, 'd', 00H, 'i', 00H, 'o', 00H
	DB	'\', 00H, '2', 00H, '0', 00H, '1', 00H, '7', 00H, '\', 00H, 'e'
	DB	00H, 'n', 00H, 't', 00H, 'e', 00H, 'r', 00H, 'p', 00H, 'r', 00H
	DB	'i', 00H, 's', 00H, 'e', 00H, '\', 00H, 'v', 00H, 'c', 00H, '\'
	DB	00H, 't', 00H, 'o', 00H, 'o', 00H, 'l', 00H, 's', 00H, '\', 00H
	DB	'm', 00H, 's', 00H, 'v', 00H, 'c', 00H, '\', 00H, '1', 00H, '4'
	DB	00H, '.', 00H, '1', 00H, '5', 00H, '.', 00H, '2', 00H, '6', 00H
	DB	'7', 00H, '2', 00H, '6', 00H, '\', 00H, 'i', 00H, 'n', 00H, 'c'
	DB	00H, 'l', 00H, 'u', 00H, 'd', 00H, 'e', 00H, '\', 00H, 'x', 00H
	DB	'm', 00H, 'e', 00H, 'm', 00H, 'o', 00H, 'r', 00H, 'y', 00H, '0'
	DB	00H, 00H, 00H				; `string'
CONST	ENDS
;	COMDAT ??_C@_0GK@FKLKIKPD@c?3?2program?5files?5?$CIx86?$CJ?2microsof@
CONST	SEGMENT
??_C@_0GK@FKLKIKPD@c?3?2program?5files?5?$CIx86?$CJ?2microsof@ DB 'c:\pro'
	DB	'gram files (x86)\microsoft visual studio\2017\enterprise\vc\t'
	DB	'ools\msvc\14.15.26726\include\xmemory0', 00H ; `string'
CONST	ENDS
;	COMDAT ??_C@_1DG@PLBPCAEM@?$AA?$CC?$AAI?$AAT?$AAE?$AAR?$AAA?$AAT?$AAO?$AAR?$AA?5?$AAL?$AAI?$AAS?$AAT?$AA?5@
CONST	SEGMENT
??_C@_1DG@PLBPCAEM@?$AA?$CC?$AAI?$AAT?$AAE?$AAR?$AAA?$AAT?$AAO?$AAR?$AA?5?$AAL?$AAI?$AAS?$AAT?$AA?5@ DB '"'
	DB	00H, 'I', 00H, 'T', 00H, 'E', 00H, 'R', 00H, 'A', 00H, 'T', 00H
	DB	'O', 00H, 'R', 00H, ' ', 00H, 'L', 00H, 'I', 00H, 'S', 00H, 'T'
	DB	00H, ' ', 00H, 'C', 00H, 'O', 00H, 'R', 00H, 'R', 00H, 'U', 00H
	DB	'P', 00H, 'T', 00H, 'E', 00H, 'D', 00H, '!', 00H, '"', 00H, 00H
	DB	00H						; `string'
CONST	ENDS
;	COMDAT ??_C@_1EE@KLDMFDFL@?$AAs?$AAt?$AAd?$AA?3?$AA?3?$AA_?$AAI?$AAt?$AAe?$AAr?$AAa?$AAt?$AAo?$AAr?$AA_@
CONST	SEGMENT
??_C@_1EE@KLDMFDFL@?$AAs?$AAt?$AAd?$AA?3?$AA?3?$AA_?$AAI?$AAt?$AAe?$AAr?$AAa?$AAt?$AAo?$AAr?$AA_@ DB 's'
	DB	00H, 't', 00H, 'd', 00H, ':', 00H, ':', 00H, '_', 00H, 'I', 00H
	DB	't', 00H, 'e', 00H, 'r', 00H, 'a', 00H, 't', 00H, 'o', 00H, 'r'
	DB	00H, '_', 00H, 'b', 00H, 'a', 00H, 's', 00H, 'e', 00H, '1', 00H
	DB	'2', 00H, ':', 00H, ':', 00H, '_', 00H, 'O', 00H, 'r', 00H, 'p'
	DB	00H, 'h', 00H, 'a', 00H, 'n', 00H, '_', 00H, 'm', 00H, 'e', 00H
	DB	00H, 00H					; `string'
CONST	ENDS
;	COMDAT ??_C@_1NE@DPDGCNAN@?$AAc?$AA?3?$AA?2?$AAp?$AAr?$AAo?$AAg?$AAr?$AAa?$AAm?$AA?5?$AAf?$AAi?$AAl?$AAe@
CONST	SEGMENT
??_C@_1NE@DPDGCNAN@?$AAc?$AA?3?$AA?2?$AAp?$AAr?$AAo?$AAg?$AAr?$AAa?$AAm?$AA?5?$AAf?$AAi?$AAl?$AAe@ DB 'c'
	DB	00H, ':', 00H, '\', 00H, 'p', 00H, 'r', 00H, 'o', 00H, 'g', 00H
	DB	'r', 00H, 'a', 00H, 'm', 00H, ' ', 00H, 'f', 00H, 'i', 00H, 'l'
	DB	00H, 'e', 00H, 's', 00H, ' ', 00H, '(', 00H, 'x', 00H, '8', 00H
	DB	'6', 00H, ')', 00H, '\', 00H, 'm', 00H, 'i', 00H, 'c', 00H, 'r'
	DB	00H, 'o', 00H, 's', 00H, 'o', 00H, 'f', 00H, 't', 00H, ' ', 00H
	DB	'v', 00H, 'i', 00H, 's', 00H, 'u', 00H, 'a', 00H, 'l', 00H, ' '
	DB	00H, 's', 00H, 't', 00H, 'u', 00H, 'd', 00H, 'i', 00H, 'o', 00H
	DB	'\', 00H, '2', 00H, '0', 00H, '1', 00H, '7', 00H, '\', 00H, 'e'
	DB	00H, 'n', 00H, 't', 00H, 'e', 00H, 'r', 00H, 'p', 00H, 'r', 00H
	DB	'i', 00H, 's', 00H, 'e', 00H, '\', 00H, 'v', 00H, 'c', 00H, '\'
	DB	00H, 't', 00H, 'o', 00H, 'o', 00H, 'l', 00H, 's', 00H, '\', 00H
	DB	'm', 00H, 's', 00H, 'v', 00H, 'c', 00H, '\', 00H, '1', 00H, '4'
	DB	00H, '.', 00H, '1', 00H, '5', 00H, '.', 00H, '2', 00H, '6', 00H
	DB	'7', 00H, '2', 00H, '6', 00H, '\', 00H, 'i', 00H, 'n', 00H, 'c'
	DB	00H, 'l', 00H, 'u', 00H, 'd', 00H, 'e', 00H, '\', 00H, 'x', 00H
	DB	'u', 00H, 't', 00H, 'i', 00H, 'l', 00H, 'i', 00H, 't', 00H, 'y'
	DB	00H, 00H, 00H				; `string'
CONST	ENDS
;	COMDAT ??_C@_0GK@EGAHLIFA@c?3?2program?5files?5?$CIx86?$CJ?2microsof@
CONST	SEGMENT
??_C@_0GK@EGAHLIFA@c?3?2program?5files?5?$CIx86?$CJ?2microsof@ DB 'c:\pro'
	DB	'gram files (x86)\microsoft visual studio\2017\enterprise\vc\t'
	DB	'ools\msvc\14.15.26726\include\xutility', 00H ; `string'
CONST	ENDS
;	COMDAT ??_C@_0BJ@LFDBABJJ@ITERATOR?5LIST?5CORRUPTED?$CB@
CONST	SEGMENT
??_C@_0BJ@LFDBABJJ@ITERATOR?5LIST?5CORRUPTED?$CB@ DB 'ITERATOR LIST CORRU'
	DB	'PTED!', 00H					; `string'
CONST	ENDS
;	COMDAT ??_C@_1CG@JNLFBNGN@?$AA?$CC?$AAi?$AAn?$AAv?$AAa?$AAl?$AAi?$AAd?$AA?5?$AAa?$AAr?$AAg?$AAu?$AAm?$AAe@
CONST	SEGMENT
??_C@_1CG@JNLFBNGN@?$AA?$CC?$AAi?$AAn?$AAv?$AAa?$AAl?$AAi?$AAd?$AA?5?$AAa?$AAr?$AAg?$AAu?$AAm?$AAe@ DB '"'
	DB	00H, 'i', 00H, 'n', 00H, 'v', 00H, 'a', 00H, 'l', 00H, 'i', 00H
	DB	'd', 00H, ' ', 00H, 'a', 00H, 'r', 00H, 'g', 00H, 'u', 00H, 'm'
	DB	00H, 'e', 00H, 'n', 00H, 't', 00H, '"', 00H, 00H, 00H ; `string'
CONST	ENDS
;	COMDAT ??_C@_02DKCKIIND@?$CFs@
CONST	SEGMENT
??_C@_02DKCKIIND@?$CFs@ DB '%s', 00H			; `string'
CONST	ENDS
;	COMDAT ??_C@_0BB@FCMFBGOM@invalid?5argument@
CONST	SEGMENT
??_C@_0BB@FCMFBGOM@invalid?5argument@ DB 'invalid argument', 00H ; `string'
CONST	ENDS
;	COMDAT xdata$x
xdata$x	SEGMENT
__ehfuncinfo$??1?$_Uninitialized_backout_al@PAUVector2D@@V?$allocator@UVector2D@@@std@@@std@@QAE@XZ DD 019930522H
	DD	00H
	DD	00H
	DD	2 DUP(00H)
	DD	2 DUP(00H)
	DD	00H
	DD	05H
xdata$x	ENDS
;	COMDAT xdata$x
xdata$x	SEGMENT
__unwindtable$??$_Uninitialized_move_al_unchecked@PAUVector2D@@PAU1@V?$allocator@UVector2D@@@std@@@std@@YAPAUVector2D@@PAU1@QAU1@1AAV?$allocator@UVector2D@@@0@U_General_ptr_iterator_tag@0@U_Unused_parameter@0@@Z DD 0ffffffffH
	DD	FLAT:__unwindfunclet$??$_Uninitialized_move_al_unchecked@PAUVector2D@@PAU1@V?$allocator@UVector2D@@@std@@@std@@YAPAUVector2D@@PAU1@QAU1@1AAV?$allocator@UVector2D@@@0@U_General_ptr_iterator_tag@0@U_Unused_parameter@0@@Z$0
__ehfuncinfo$??$_Uninitialized_move_al_unchecked@PAUVector2D@@PAU1@V?$allocator@UVector2D@@@std@@@std@@YAPAUVector2D@@PAU1@QAU1@1AAV?$allocator@UVector2D@@@0@U_General_ptr_iterator_tag@0@U_Unused_parameter@0@@Z DD 019930522H
	DD	01H
	DD	FLAT:__unwindtable$??$_Uninitialized_move_al_unchecked@PAUVector2D@@PAU1@V?$allocator@UVector2D@@@std@@@std@@YAPAUVector2D@@PAU1@QAU1@1AAV?$allocator@UVector2D@@@0@U_General_ptr_iterator_tag@0@U_Unused_parameter@0@@Z
	DD	2 DUP(00H)
	DD	2 DUP(00H)
	DD	00H
	DD	01H
xdata$x	ENDS
;	COMDAT xdata$x
xdata$x	SEGMENT
__unwindtable$??$_Uninitialized_copy_al_unchecked@PAUVector2D@@PAU1@V?$allocator@UVector2D@@@std@@@std@@YAPAUVector2D@@PAU1@QAU1@1AAV?$allocator@UVector2D@@@0@U_General_ptr_iterator_tag@0@U_Unused_parameter@0@@Z DD 0ffffffffH
	DD	FLAT:__unwindfunclet$??$_Uninitialized_copy_al_unchecked@PAUVector2D@@PAU1@V?$allocator@UVector2D@@@std@@@std@@YAPAUVector2D@@PAU1@QAU1@1AAV?$allocator@UVector2D@@@0@U_General_ptr_iterator_tag@0@U_Unused_parameter@0@@Z$0
__ehfuncinfo$??$_Uninitialized_copy_al_unchecked@PAUVector2D@@PAU1@V?$allocator@UVector2D@@@std@@@std@@YAPAUVector2D@@PAU1@QAU1@1AAV?$allocator@UVector2D@@@0@U_General_ptr_iterator_tag@0@U_Unused_parameter@0@@Z DD 019930522H
	DD	01H
	DD	FLAT:__unwindtable$??$_Uninitialized_copy_al_unchecked@PAUVector2D@@PAU1@V?$allocator@UVector2D@@@std@@@std@@YAPAUVector2D@@PAU1@QAU1@1AAV?$allocator@UVector2D@@@0@U_General_ptr_iterator_tag@0@U_Unused_parameter@0@@Z
	DD	2 DUP(00H)
	DD	2 DUP(00H)
	DD	00H
	DD	01H
xdata$x	ENDS
;	COMDAT xdata$x
xdata$x	SEGMENT
__catchsym$??$_Buynode@UWeaponRecord@WeaponMarkers@@@?$_List_buy@UWeaponRecord@WeaponMarkers@@V?$allocator@UWeaponRecord@WeaponMarkers@@@std@@@std@@QAEPAU?$_List_node@UWeaponRecord@WeaponMarkers@@PAX@1@PAU21@0$$QAUWeaponRecord@WeaponMarkers@@@Z$2 DD 040H
	DD	00H
	DD	00H
	DD	FLAT:__catch$??$_Buynode@UWeaponRecord@WeaponMarkers@@@?$_List_buy@UWeaponRecord@WeaponMarkers@@V?$allocator@UWeaponRecord@WeaponMarkers@@@std@@@std@@QAEPAU?$_List_node@UWeaponRecord@WeaponMarkers@@PAX@1@PAU21@0$$QAUWeaponRecord@WeaponMarkers@@@Z$0
__unwindtable$??$_Buynode@UWeaponRecord@WeaponMarkers@@@?$_List_buy@UWeaponRecord@WeaponMarkers@@V?$allocator@UWeaponRecord@WeaponMarkers@@@std@@@std@@QAEPAU?$_List_node@UWeaponRecord@WeaponMarkers@@PAX@1@PAU21@0$$QAUWeaponRecord@WeaponMarkers@@@Z DD 0ffffffffH
	DD	00H
	DD	0ffffffffH
	DD	00H
__tryblocktable$??$_Buynode@UWeaponRecord@WeaponMarkers@@@?$_List_buy@UWeaponRecord@WeaponMarkers@@V?$allocator@UWeaponRecord@WeaponMarkers@@@std@@@std@@QAEPAU?$_List_node@UWeaponRecord@WeaponMarkers@@PAX@1@PAU21@0$$QAUWeaponRecord@WeaponMarkers@@@Z DD 00H
	DD	00H
	DD	01H
	DD	01H
	DD	FLAT:__catchsym$??$_Buynode@UWeaponRecord@WeaponMarkers@@@?$_List_buy@UWeaponRecord@WeaponMarkers@@V?$allocator@UWeaponRecord@WeaponMarkers@@@std@@@std@@QAEPAU?$_List_node@UWeaponRecord@WeaponMarkers@@PAX@1@PAU21@0$$QAUWeaponRecord@WeaponMarkers@@@Z$2
__ehfuncinfo$??$_Buynode@UWeaponRecord@WeaponMarkers@@@?$_List_buy@UWeaponRecord@WeaponMarkers@@V?$allocator@UWeaponRecord@WeaponMarkers@@@std@@@std@@QAEPAU?$_List_node@UWeaponRecord@WeaponMarkers@@PAX@1@PAU21@0$$QAUWeaponRecord@WeaponMarkers@@@Z DD 019930522H
	DD	02H
	DD	FLAT:__unwindtable$??$_Buynode@UWeaponRecord@WeaponMarkers@@@?$_List_buy@UWeaponRecord@WeaponMarkers@@V?$allocator@UWeaponRecord@WeaponMarkers@@@std@@@std@@QAEPAU?$_List_node@UWeaponRecord@WeaponMarkers@@PAX@1@PAU21@0$$QAUWeaponRecord@WeaponMarkers@@@Z
	DD	01H
	DD	FLAT:__tryblocktable$??$_Buynode@UWeaponRecord@WeaponMarkers@@@?$_List_buy@UWeaponRecord@WeaponMarkers@@V?$allocator@UWeaponRecord@WeaponMarkers@@@std@@@std@@QAEPAU?$_List_node@UWeaponRecord@WeaponMarkers@@PAX@1@PAU21@0$$QAUWeaponRecord@WeaponMarkers@@@Z
	DD	2 DUP(00H)
	DD	00H
	DD	01H
xdata$x	ENDS
;	COMDAT xdata$x
xdata$x	SEGMENT
__ehfuncinfo$??$_Freenode0@V?$allocator@U?$_List_node@UWeaponRecord@WeaponMarkers@@PAX@std@@@std@@@?$_List_node@UWeaponRecord@WeaponMarkers@@PAX@std@@SAXAAV?$allocator@U?$_List_node@UWeaponRecord@WeaponMarkers@@PAX@std@@@1@PAU01@@Z DD 019930522H
	DD	00H
	DD	00H
	DD	2 DUP(00H)
	DD	2 DUP(00H)
	DD	00H
	DD	05H
xdata$x	ENDS
;	COMDAT xdata$x
xdata$x	SEGMENT
__catchsym$??$_Emplace_reallocate@ABUVector2D@@@?$vector@UVector2D@@V?$allocator@UVector2D@@@std@@@std@@QAEPAUVector2D@@QAU2@ABU2@@Z$2 DD 040H
	DD	00H
	DD	00H
	DD	FLAT:__catch$??$_Emplace_reallocate@ABUVector2D@@@?$vector@UVector2D@@V?$allocator@UVector2D@@@std@@@std@@QAEPAUVector2D@@QAU2@ABU2@@Z$0
__unwindtable$??$_Emplace_reallocate@ABUVector2D@@@?$vector@UVector2D@@V?$allocator@UVector2D@@@std@@@std@@QAEPAUVector2D@@QAU2@ABU2@@Z DD 0ffffffffH
	DD	00H
	DD	0ffffffffH
	DD	00H
__tryblocktable$??$_Emplace_reallocate@ABUVector2D@@@?$vector@UVector2D@@V?$allocator@UVector2D@@@std@@@std@@QAEPAUVector2D@@QAU2@ABU2@@Z DD 00H
	DD	00H
	DD	01H
	DD	01H
	DD	FLAT:__catchsym$??$_Emplace_reallocate@ABUVector2D@@@?$vector@UVector2D@@V?$allocator@UVector2D@@@std@@@std@@QAEPAUVector2D@@QAU2@ABU2@@Z$2
__ehfuncinfo$??$_Emplace_reallocate@ABUVector2D@@@?$vector@UVector2D@@V?$allocator@UVector2D@@@std@@@std@@QAEPAUVector2D@@QAU2@ABU2@@Z DD 019930522H
	DD	02H
	DD	FLAT:__unwindtable$??$_Emplace_reallocate@ABUVector2D@@@?$vector@UVector2D@@V?$allocator@UVector2D@@@std@@@std@@QAEPAUVector2D@@QAU2@ABU2@@Z
	DD	01H
	DD	FLAT:__tryblocktable$??$_Emplace_reallocate@ABUVector2D@@@?$vector@UVector2D@@V?$allocator@UVector2D@@@std@@@std@@QAEPAUVector2D@@QAU2@ABU2@@Z
	DD	2 DUP(00H)
	DD	00H
	DD	01H
xdata$x	ENDS
xdata$x	SEGMENT
__unwindtable$?Render@WeaponMarkers@@QAEXXZ DD 0ffffffffH
	DD	FLAT:__unwindfunclet$?Render@WeaponMarkers@@QAEXXZ$0
	DD	00H
	DD	FLAT:__unwindfunclet$?Render@WeaponMarkers@@QAEXXZ$1
__unwindtable$?Update@WeaponMarkers@@QAEXXZ DD 0ffffffffH
	DD	FLAT:__unwindfunclet$?Update@WeaponMarkers@@QAEXXZ$0
	DD	00H
	DD	FLAT:__unwindfunclet$?Update@WeaponMarkers@@QAEXXZ$1
__unwindtable$??0WeaponMarkers@@QAE@XZ DD 0ffffffffH
	DD	FLAT:__unwindfunclet$??0WeaponMarkers@@QAE@XZ$0
	DD	00H
	DD	FLAT:__unwindfunclet$??0WeaponMarkers@@QAE@XZ$1
	DD	01H
	DD	FLAT:__unwindfunclet$??0WeaponMarkers@@QAE@XZ$2
__ehfuncinfo$?Render@WeaponMarkers@@QAEXXZ DD 019930522H
	DD	02H
	DD	FLAT:__unwindtable$?Render@WeaponMarkers@@QAEXXZ
	DD	2 DUP(00H)
	DD	2 DUP(00H)
	DD	00H
	DD	01H
__ehfuncinfo$?Update@WeaponMarkers@@QAEXXZ DD 019930522H
	DD	02H
	DD	FLAT:__unwindtable$?Update@WeaponMarkers@@QAEXXZ
	DD	2 DUP(00H)
	DD	2 DUP(00H)
	DD	00H
	DD	01H
__ehfuncinfo$??0WeaponMarkers@@QAE@XZ DD 019930522H
	DD	03H
	DD	FLAT:__unwindtable$??0WeaponMarkers@@QAE@XZ
	DD	2 DUP(00H)
	DD	2 DUP(00H)
	DD	00H
	DD	01H
xdata$x	ENDS
;	COMDAT xdata$x
xdata$x	SEGMENT
__unwindtable$?_Orphan_ptr@?$list@UWeaponRecord@WeaponMarkers@@V?$allocator@UWeaponRecord@WeaponMarkers@@@std@@@std@@QAEXPAU?$_List_node@UWeaponRecord@WeaponMarkers@@PAX@2@@Z DD 0ffffffffH
	DD	FLAT:__unwindfunclet$?_Orphan_ptr@?$list@UWeaponRecord@WeaponMarkers@@V?$allocator@UWeaponRecord@WeaponMarkers@@@std@@@std@@QAEXPAU?$_List_node@UWeaponRecord@WeaponMarkers@@PAX@2@@Z$0
__ehfuncinfo$?_Orphan_ptr@?$list@UWeaponRecord@WeaponMarkers@@V?$allocator@UWeaponRecord@WeaponMarkers@@@std@@@std@@QAEXPAU?$_List_node@UWeaponRecord@WeaponMarkers@@PAX@2@@Z DD 019930522H
	DD	01H
	DD	FLAT:__unwindtable$?_Orphan_ptr@?$list@UWeaponRecord@WeaponMarkers@@V?$allocator@UWeaponRecord@WeaponMarkers@@@std@@@std@@QAEXPAU?$_List_node@UWeaponRecord@WeaponMarkers@@PAX@2@@Z
	DD	2 DUP(00H)
	DD	2 DUP(00H)
	DD	00H
	DD	01H
xdata$x	ENDS
;	COMDAT xdata$x
xdata$x	SEGMENT
__ehfuncinfo$?clear@?$list@UWeaponRecord@WeaponMarkers@@V?$allocator@UWeaponRecord@WeaponMarkers@@@std@@@std@@QAEXXZ DD 019930522H
	DD	00H
	DD	00H
	DD	2 DUP(00H)
	DD	2 DUP(00H)
	DD	00H
	DD	05H
xdata$x	ENDS
;	COMDAT xdata$x
xdata$x	SEGMENT
__ehfuncinfo$?end@?$list@UWeaponRecord@WeaponMarkers@@V?$allocator@UWeaponRecord@WeaponMarkers@@@std@@@std@@QAE?AV?$_List_iterator@V?$_List_val@U?$_List_simple_types@UWeaponRecord@WeaponMarkers@@@std@@@std@@@2@XZ DD 019930522H
	DD	00H
	DD	00H
	DD	2 DUP(00H)
	DD	2 DUP(00H)
	DD	00H
	DD	05H
xdata$x	ENDS
;	COMDAT xdata$x
xdata$x	SEGMENT
__ehfuncinfo$?begin@?$list@UWeaponRecord@WeaponMarkers@@V?$allocator@UWeaponRecord@WeaponMarkers@@@std@@@std@@QAE?AV?$_List_iterator@V?$_List_val@U?$_List_simple_types@UWeaponRecord@WeaponMarkers@@@std@@@std@@@2@XZ DD 019930522H
	DD	00H
	DD	00H
	DD	2 DUP(00H)
	DD	2 DUP(00H)
	DD	00H
	DD	05H
xdata$x	ENDS
;	COMDAT xdata$x
xdata$x	SEGMENT
__ehfuncinfo$??1?$list@UWeaponRecord@WeaponMarkers@@V?$allocator@UWeaponRecord@WeaponMarkers@@@std@@@std@@QAE@XZ DD 019930522H
	DD	00H
	DD	00H
	DD	2 DUP(00H)
	DD	2 DUP(00H)
	DD	00H
	DD	05H
xdata$x	ENDS
;	COMDAT xdata$x
xdata$x	SEGMENT
__catchsym$?_Buynode0@?$_List_alloc@U?$_List_base_types@UWeaponRecord@WeaponMarkers@@V?$allocator@UWeaponRecord@WeaponMarkers@@@std@@@std@@@std@@QAEPAU?$_List_node@UWeaponRecord@WeaponMarkers@@PAX@2@PAU32@0@Z$2 DD 040H
	DD	00H
	DD	00H
	DD	FLAT:__catch$?_Buynode0@?$_List_alloc@U?$_List_base_types@UWeaponRecord@WeaponMarkers@@V?$allocator@UWeaponRecord@WeaponMarkers@@@std@@@std@@@std@@QAEPAU?$_List_node@UWeaponRecord@WeaponMarkers@@PAX@2@PAU32@0@Z$0
__unwindtable$?_Buynode0@?$_List_alloc@U?$_List_base_types@UWeaponRecord@WeaponMarkers@@V?$allocator@UWeaponRecord@WeaponMarkers@@@std@@@std@@@std@@QAEPAU?$_List_node@UWeaponRecord@WeaponMarkers@@PAX@2@PAU32@0@Z DD 0ffffffffH
	DD	00H
	DD	0ffffffffH
	DD	00H
__tryblocktable$?_Buynode0@?$_List_alloc@U?$_List_base_types@UWeaponRecord@WeaponMarkers@@V?$allocator@UWeaponRecord@WeaponMarkers@@@std@@@std@@@std@@QAEPAU?$_List_node@UWeaponRecord@WeaponMarkers@@PAX@2@PAU32@0@Z DD 00H
	DD	00H
	DD	01H
	DD	01H
	DD	FLAT:__catchsym$?_Buynode0@?$_List_alloc@U?$_List_base_types@UWeaponRecord@WeaponMarkers@@V?$allocator@UWeaponRecord@WeaponMarkers@@@std@@@std@@@std@@QAEPAU?$_List_node@UWeaponRecord@WeaponMarkers@@PAX@2@PAU32@0@Z$2
__ehfuncinfo$?_Buynode0@?$_List_alloc@U?$_List_base_types@UWeaponRecord@WeaponMarkers@@V?$allocator@UWeaponRecord@WeaponMarkers@@@std@@@std@@@std@@QAEPAU?$_List_node@UWeaponRecord@WeaponMarkers@@PAX@2@PAU32@0@Z DD 019930522H
	DD	02H
	DD	FLAT:__unwindtable$?_Buynode0@?$_List_alloc@U?$_List_base_types@UWeaponRecord@WeaponMarkers@@V?$allocator@UWeaponRecord@WeaponMarkers@@@std@@@std@@@std@@QAEPAU?$_List_node@UWeaponRecord@WeaponMarkers@@PAX@2@PAU32@0@Z
	DD	01H
	DD	FLAT:__tryblocktable$?_Buynode0@?$_List_alloc@U?$_List_base_types@UWeaponRecord@WeaponMarkers@@V?$allocator@UWeaponRecord@WeaponMarkers@@@std@@@std@@@std@@QAEPAU?$_List_node@UWeaponRecord@WeaponMarkers@@PAX@2@PAU32@0@Z
	DD	2 DUP(00H)
	DD	00H
	DD	01H
xdata$x	ENDS
;	COMDAT xdata$x
xdata$x	SEGMENT
__ehfuncinfo$??1?$_List_alloc@U?$_List_base_types@UWeaponRecord@WeaponMarkers@@V?$allocator@UWeaponRecord@WeaponMarkers@@@std@@@std@@@std@@QAE@XZ DD 019930522H
	DD	00H
	DD	00H
	DD	2 DUP(00H)
	DD	2 DUP(00H)
	DD	00H
	DD	05H
xdata$x	ENDS
;	COMDAT xdata$x
xdata$x	SEGMENT
__catchsym$??0?$_List_alloc@U?$_List_base_types@UWeaponRecord@WeaponMarkers@@V?$allocator@UWeaponRecord@WeaponMarkers@@@std@@@std@@@std@@QAE@XZ$2 DD 040H
	DD	00H
	DD	00H
	DD	FLAT:__catch$??0?$_List_alloc@U?$_List_base_types@UWeaponRecord@WeaponMarkers@@V?$allocator@UWeaponRecord@WeaponMarkers@@@std@@@std@@@std@@QAE@XZ$0
__unwindtable$??0?$_List_alloc@U?$_List_base_types@UWeaponRecord@WeaponMarkers@@V?$allocator@UWeaponRecord@WeaponMarkers@@@std@@@std@@@std@@QAE@XZ DD 0ffffffffH
	DD	00H
	DD	0ffffffffH
	DD	00H
__tryblocktable$??0?$_List_alloc@U?$_List_base_types@UWeaponRecord@WeaponMarkers@@V?$allocator@UWeaponRecord@WeaponMarkers@@@std@@@std@@@std@@QAE@XZ DD 00H
	DD	00H
	DD	01H
	DD	01H
	DD	FLAT:__catchsym$??0?$_List_alloc@U?$_List_base_types@UWeaponRecord@WeaponMarkers@@V?$allocator@UWeaponRecord@WeaponMarkers@@@std@@@std@@@std@@QAE@XZ$2
__ehfuncinfo$??0?$_List_alloc@U?$_List_base_types@UWeaponRecord@WeaponMarkers@@V?$allocator@UWeaponRecord@WeaponMarkers@@@std@@@std@@@std@@QAE@XZ DD 019930522H
	DD	02H
	DD	FLAT:__unwindtable$??0?$_List_alloc@U?$_List_base_types@UWeaponRecord@WeaponMarkers@@V?$allocator@UWeaponRecord@WeaponMarkers@@@std@@@std@@@std@@QAE@XZ
	DD	01H
	DD	FLAT:__tryblocktable$??0?$_List_alloc@U?$_List_base_types@UWeaponRecord@WeaponMarkers@@V?$allocator@UWeaponRecord@WeaponMarkers@@@std@@@std@@@std@@QAE@XZ
	DD	2 DUP(00H)
	DD	00H
	DD	01H
xdata$x	ENDS
;	COMDAT xdata$x
xdata$x	SEGMENT
__unwindtable$?WorldTransform@@YA?AV?$vector@UVector2D@@V?$allocator@UVector2D@@@std@@@std@@AAV12@ABUVector2D@@111@Z DD 0ffffffffH
	DD	FLAT:__unwindfunclet$?WorldTransform@@YA?AV?$vector@UVector2D@@V?$allocator@UVector2D@@@std@@@std@@AAV12@ABUVector2D@@111@Z$0
__ehfuncinfo$?WorldTransform@@YA?AV?$vector@UVector2D@@V?$allocator@UVector2D@@@std@@@std@@AAV12@ABUVector2D@@111@Z DD 019930522H
	DD	01H
	DD	FLAT:__unwindtable$?WorldTransform@@YA?AV?$vector@UVector2D@@V?$allocator@UVector2D@@@std@@@std@@AAV12@ABUVector2D@@111@Z
	DD	2 DUP(00H)
	DD	2 DUP(00H)
	DD	00H
	DD	01H
xdata$x	ENDS
;	COMDAT xdata$x
xdata$x	SEGMENT
__unwindtable$?_Orphan_range@?$vector@UVector2D@@V?$allocator@UVector2D@@@std@@@std@@ABEXPAUVector2D@@0@Z DD 0ffffffffH
	DD	FLAT:__unwindfunclet$?_Orphan_range@?$vector@UVector2D@@V?$allocator@UVector2D@@@std@@@std@@ABEXPAUVector2D@@0@Z$0
__ehfuncinfo$?_Orphan_range@?$vector@UVector2D@@V?$allocator@UVector2D@@@std@@@std@@ABEXPAUVector2D@@0@Z DD 019930522H
	DD	01H
	DD	FLAT:__unwindtable$?_Orphan_range@?$vector@UVector2D@@V?$allocator@UVector2D@@@std@@@std@@ABEXPAUVector2D@@0@Z
	DD	2 DUP(00H)
	DD	2 DUP(00H)
	DD	00H
	DD	01H
xdata$x	ENDS
;	COMDAT xdata$x
xdata$x	SEGMENT
__ehfuncinfo$??1?$vector@UVector2D@@V?$allocator@UVector2D@@@std@@@std@@QAE@XZ DD 019930522H
	DD	00H
	DD	00H
	DD	2 DUP(00H)
	DD	2 DUP(00H)
	DD	00H
	DD	05H
xdata$x	ENDS
;	COMDAT xdata$x
xdata$x	SEGMENT
__ehfuncinfo$??4?$vector@UVector2D@@V?$allocator@UVector2D@@@std@@@std@@QAEAAV01@$$QAV01@@Z DD 019930522H
	DD	00H
	DD	00H
	DD	2 DUP(00H)
	DD	2 DUP(00H)
	DD	00H
	DD	05H
xdata$x	ENDS
;	COMDAT xdata$x
xdata$x	SEGMENT
__ehfuncinfo$??0?$vector@UVector2D@@V?$allocator@UVector2D@@@std@@@std@@QAE@$$QAV01@@Z DD 019930522H
	DD	00H
	DD	00H
	DD	2 DUP(00H)
	DD	2 DUP(00H)
	DD	00H
	DD	05H
xdata$x	ENDS
;	COMDAT xdata$x
xdata$x	SEGMENT
__ehfuncinfo$?_Move_from@?$vector@UVector2D@@V?$allocator@UVector2D@@@std@@@std@@AAEX$$QAV12@U?$integral_constant@_N$00@2@@Z DD 019930522H
	DD	00H
	DD	00H
	DD	2 DUP(00H)
	DD	2 DUP(00H)
	DD	00H
	DD	05H
xdata$x	ENDS
;	COMDAT xdata$x
xdata$x	SEGMENT
__catchsym$??0?$vector@UVector2D@@V?$allocator@UVector2D@@@std@@@std@@QAE@ABV01@@Z$3 DD 040H
	DD	00H
	DD	00H
	DD	FLAT:__catch$??0?$vector@UVector2D@@V?$allocator@UVector2D@@@std@@@std@@QAE@ABV01@@Z$0
__tryblocktable$??0?$vector@UVector2D@@V?$allocator@UVector2D@@@std@@@std@@QAE@ABV01@@Z DD 01H
	DD	01H
	DD	02H
	DD	01H
	DD	FLAT:__catchsym$??0?$vector@UVector2D@@V?$allocator@UVector2D@@@std@@@std@@QAE@ABV01@@Z$3
__unwindtable$??0?$vector@UVector2D@@V?$allocator@UVector2D@@@std@@@std@@QAE@ABV01@@Z DD 0ffffffffH
	DD	FLAT:__unwindfunclet$??0?$vector@UVector2D@@V?$allocator@UVector2D@@@std@@@std@@QAE@ABV01@@Z$2
	DD	00H
	DD	00H
	DD	00H
	DD	00H
__ehfuncinfo$??0?$vector@UVector2D@@V?$allocator@UVector2D@@@std@@@std@@QAE@ABV01@@Z DD 019930522H
	DD	03H
	DD	FLAT:__unwindtable$??0?$vector@UVector2D@@V?$allocator@UVector2D@@@std@@@std@@QAE@ABV01@@Z
	DD	01H
	DD	FLAT:__tryblocktable$??0?$vector@UVector2D@@V?$allocator@UVector2D@@@std@@@std@@QAE@ABV01@@Z
	DD	2 DUP(00H)
	DD	00H
	DD	01H
xdata$x	ENDS
;	COMDAT xdata$x
xdata$x	SEGMENT
__ehfuncinfo$??0?$vector@UVector2D@@V?$allocator@UVector2D@@@std@@@std@@QAE@XZ DD 019930522H
	DD	00H
	DD	00H
	DD	2 DUP(00H)
	DD	2 DUP(00H)
	DD	00H
	DD	05H
xdata$x	ENDS
;	COMDAT xdata$x
xdata$x	SEGMENT
__ehfuncinfo$??1?$_Vector_alloc@U?$_Vec_base_types@UVector2D@@V?$allocator@UVector2D@@@std@@@std@@@std@@QAE@XZ DD 019930522H
	DD	00H
	DD	00H
	DD	2 DUP(00H)
	DD	2 DUP(00H)
	DD	00H
	DD	05H
xdata$x	ENDS
;	COMDAT xdata$x
xdata$x	SEGMENT
__ehfuncinfo$?_Adopt@_Iterator_base12@std@@QAEXPBU_Container_base12@2@@Z DD 019930522H
	DD	00H
	DD	00H
	DD	2 DUP(00H)
	DD	2 DUP(00H)
	DD	00H
	DD	05H
xdata$x	ENDS
;	COMDAT xdata$x
xdata$x	SEGMENT
__ehfuncinfo$??1_Iterator_base12@std@@QAE@XZ DD 019930522H
	DD	00H
	DD	00H
	DD	2 DUP(00H)
	DD	2 DUP(00H)
	DD	00H
	DD	05H
xdata$x	ENDS
;	COMDAT xdata$x
xdata$x	SEGMENT
__ehfuncinfo$?_Swap_all@_Container_base12@std@@QAEXAAU12@@Z DD 019930522H
	DD	00H
	DD	00H
	DD	2 DUP(00H)
	DD	2 DUP(00H)
	DD	00H
	DD	05H
xdata$x	ENDS
;	COMDAT xdata$x
xdata$x	SEGMENT
__ehfuncinfo$?_Orphan_all@_Container_base12@std@@QAEXXZ DD 019930522H
	DD	00H
	DD	00H
	DD	2 DUP(00H)
	DD	2 DUP(00H)
	DD	00H
	DD	05H
xdata$x	ENDS
CRT$XCU	SEGMENT
?MaxDouble$initializer$@@3P6AXXZA DD FLAT:??__EMaxDouble@@YAXXZ ; MaxDouble$initializer$
CRT$XCU	ENDS
CRT$XCU	SEGMENT
?MinDouble$initializer$@@3P6AXXZA DD FLAT:??__EMinDouble@@YAXXZ ; MinDouble$initializer$
CRT$XCU	ENDS
CRT$XCU	SEGMENT
?MaxFloat$initializer$@@3P6AXXZA DD FLAT:??__EMaxFloat@@YAXXZ ; MaxFloat$initializer$
CRT$XCU	ENDS
CRT$XCU	SEGMENT
?MinFloat$initializer$@@3P6AXXZA DD FLAT:??__EMinFloat@@YAXXZ ; MinFloat$initializer$
CRT$XCU	ENDS
; Function compile flags: /Odtp /RTCsu
; File c:\program files (x86)\microsoft visual studio\2017\enterprise\vc\tools\msvc\14.15.26726\include\xmemory0
;	COMDAT ??$construct@UVector2D@@AAU1@@?$_Default_allocator_traits@V?$allocator@UVector2D@@@std@@@std@@SAXAAV?$allocator@UVector2D@@@1@QAUVector2D@@AAU3@@Z
_TEXT	SEGMENT
$T1 = -4						; size = 4
___formal$ = 8						; size = 4
__Ptr$ = 12						; size = 4
_<_Args_0>$ = 16					; size = 4
??$construct@UVector2D@@AAU1@@?$_Default_allocator_traits@V?$allocator@UVector2D@@@std@@@std@@SAXAAV?$allocator@UVector2D@@@1@QAUVector2D@@AAU3@@Z PROC ; std::_Default_allocator_traits<std::allocator<Vector2D> >::construct<Vector2D,Vector2D &>, COMDAT

; 879  : 		{	// construct _Objty(_Types...) at _Ptr

	push	ebp
	mov	ebp, esp
	push	ecx
	mov	DWORD PTR [ebp-4], -858993460		; ccccccccH

; 880  : 		::new (const_cast<void *>(static_cast<const volatile void *>(_Ptr)))

	mov	eax, DWORD PTR __Ptr$[ebp]
	push	eax
	push	16					; 00000010H
	call	??2@YAPAXIPAX@Z				; operator new
	add	esp, 8
	mov	DWORD PTR $T1[ebp], eax
	mov	ecx, DWORD PTR _<_Args_0>$[ebp]
	push	ecx
	call	??$forward@AAUVector2D@@@std@@YAAAUVector2D@@AAU1@@Z ; std::forward<Vector2D &>
	add	esp, 4
	mov	edx, DWORD PTR $T1[ebp]
	mov	ecx, DWORD PTR [eax]
	mov	DWORD PTR [edx], ecx
	mov	ecx, DWORD PTR [eax+4]
	mov	DWORD PTR [edx+4], ecx
	mov	ecx, DWORD PTR [eax+8]
	mov	DWORD PTR [edx+8], ecx
	mov	eax, DWORD PTR [eax+12]
	mov	DWORD PTR [edx+12], eax

; 881  : 			_Objty(_STD forward<_Types>(_Args)...);
; 882  : 		}

	add	esp, 4
	cmp	ebp, esp
	call	__RTC_CheckEsp
	mov	esp, ebp
	pop	ebp
	ret	0
??$construct@UVector2D@@AAU1@@?$_Default_allocator_traits@V?$allocator@UVector2D@@@std@@@std@@SAXAAV?$allocator@UVector2D@@@1@QAUVector2D@@AAU3@@Z ENDP ; std::_Default_allocator_traits<std::allocator<Vector2D> >::construct<Vector2D,Vector2D &>
_TEXT	ENDS
; Function compile flags: /Odtp /RTCsu
; File c:\program files (x86)\microsoft visual studio\2017\enterprise\vc\tools\msvc\14.15.26726\include\type_traits
;	COMDAT ??$forward@AAUVector2D@@@std@@YAAAUVector2D@@AAU1@@Z
_TEXT	SEGMENT
__Arg$ = 8						; size = 4
??$forward@AAUVector2D@@@std@@YAAAUVector2D@@AAU1@@Z PROC ; std::forward<Vector2D &>, COMDAT

; 1573 : 	{	// forward an lvalue as either an lvalue or an rvalue

	push	ebp
	mov	ebp, esp

; 1574 : 	return (static_cast<_Ty&&>(_Arg));

	mov	eax, DWORD PTR __Arg$[ebp]

; 1575 : 	}

	pop	ebp
	ret	0
??$forward@AAUVector2D@@@std@@YAAAUVector2D@@AAU1@@Z ENDP ; std::forward<Vector2D &>
_TEXT	ENDS
; Function compile flags: /Odtp /RTCsu
; File c:\program files (x86)\microsoft visual studio\2017\enterprise\vc\tools\msvc\14.15.26726\include\xmemory
;	COMDAT ??$_Emplace_back@UVector2D@@@?$_Uninitialized_backout_al@PAUVector2D@@V?$allocator@UVector2D@@@std@@@std@@QAEX$$QAUVector2D@@@Z
_TEXT	SEGMENT
_this$ = -4						; size = 4
_<_Vals_0>$ = 8						; size = 4
??$_Emplace_back@UVector2D@@@?$_Uninitialized_backout_al@PAUVector2D@@V?$allocator@UVector2D@@@std@@@std@@QAEX$$QAUVector2D@@@Z PROC ; std::_Uninitialized_backout_al<Vector2D *,std::allocator<Vector2D> >::_Emplace_back<Vector2D>, COMDAT
; _this$ = ecx

; 163  : 		{	// construct a new element at *_Last and increment

	push	ebp
	mov	ebp, esp
	push	ecx
	mov	DWORD PTR [ebp-4], -858993460		; ccccccccH
	mov	DWORD PTR _this$[ebp], ecx

; 164  : 		allocator_traits<_Alloc>::construct(_Al, _Unfancy(_Last), _STD forward<_Types>(_Vals)...);

	mov	eax, DWORD PTR _<_Vals_0>$[ebp]
	push	eax
	call	??$forward@UVector2D@@@std@@YA$$QAUVector2D@@AAU1@@Z ; std::forward<Vector2D>
	add	esp, 4
	push	eax
	mov	ecx, DWORD PTR _this$[ebp]
	mov	edx, DWORD PTR [ecx+4]
	push	edx
	call	??$_Unfancy@UVector2D@@@std@@YAPAUVector2D@@PAU1@@Z ; std::_Unfancy<Vector2D>
	add	esp, 4
	push	eax
	mov	eax, DWORD PTR _this$[ebp]
	mov	ecx, DWORD PTR [eax+8]
	push	ecx
	call	??$construct@UVector2D@@U1@@?$_Default_allocator_traits@V?$allocator@UVector2D@@@std@@@std@@SAXAAV?$allocator@UVector2D@@@1@QAUVector2D@@$$QAU3@@Z ; std::_Default_allocator_traits<std::allocator<Vector2D> >::construct<Vector2D,Vector2D>
	add	esp, 12					; 0000000cH

; 165  : 		++_Last;

	mov	edx, DWORD PTR _this$[ebp]
	mov	eax, DWORD PTR [edx+4]
	add	eax, 16					; 00000010H
	mov	ecx, DWORD PTR _this$[ebp]
	mov	DWORD PTR [ecx+4], eax

; 166  : 		}

	add	esp, 4
	cmp	ebp, esp
	call	__RTC_CheckEsp
	mov	esp, ebp
	pop	ebp
	ret	4
??$_Emplace_back@UVector2D@@@?$_Uninitialized_backout_al@PAUVector2D@@V?$allocator@UVector2D@@@std@@@std@@QAEX$$QAUVector2D@@@Z ENDP ; std::_Uninitialized_backout_al<Vector2D *,std::allocator<Vector2D> >::_Emplace_back<Vector2D>
_TEXT	ENDS
; Function compile flags: /Odtp /RTCsu
; File c:\program files (x86)\microsoft visual studio\2017\enterprise\vc\tools\msvc\14.15.26726\include\xmemory
;	COMDAT ??$_Emplace_back@AAUVector2D@@@?$_Uninitialized_backout_al@PAUVector2D@@V?$allocator@UVector2D@@@std@@@std@@QAEXAAUVector2D@@@Z
_TEXT	SEGMENT
_this$ = -4						; size = 4
_<_Vals_0>$ = 8						; size = 4
??$_Emplace_back@AAUVector2D@@@?$_Uninitialized_backout_al@PAUVector2D@@V?$allocator@UVector2D@@@std@@@std@@QAEXAAUVector2D@@@Z PROC ; std::_Uninitialized_backout_al<Vector2D *,std::allocator<Vector2D> >::_Emplace_back<Vector2D &>, COMDAT
; _this$ = ecx

; 163  : 		{	// construct a new element at *_Last and increment

	push	ebp
	mov	ebp, esp
	push	ecx
	mov	DWORD PTR [ebp-4], -858993460		; ccccccccH
	mov	DWORD PTR _this$[ebp], ecx

; 164  : 		allocator_traits<_Alloc>::construct(_Al, _Unfancy(_Last), _STD forward<_Types>(_Vals)...);

	mov	eax, DWORD PTR _<_Vals_0>$[ebp]
	push	eax
	call	??$forward@AAUVector2D@@@std@@YAAAUVector2D@@AAU1@@Z ; std::forward<Vector2D &>
	add	esp, 4
	push	eax
	mov	ecx, DWORD PTR _this$[ebp]
	mov	edx, DWORD PTR [ecx+4]
	push	edx
	call	??$_Unfancy@UVector2D@@@std@@YAPAUVector2D@@PAU1@@Z ; std::_Unfancy<Vector2D>
	add	esp, 4
	push	eax
	mov	eax, DWORD PTR _this$[ebp]
	mov	ecx, DWORD PTR [eax+8]
	push	ecx
	call	??$construct@UVector2D@@AAU1@@?$_Default_allocator_traits@V?$allocator@UVector2D@@@std@@@std@@SAXAAV?$allocator@UVector2D@@@1@QAUVector2D@@AAU3@@Z ; std::_Default_allocator_traits<std::allocator<Vector2D> >::construct<Vector2D,Vector2D &>
	add	esp, 12					; 0000000cH

; 165  : 		++_Last;

	mov	edx, DWORD PTR _this$[ebp]
	mov	eax, DWORD PTR [edx+4]
	add	eax, 16					; 00000010H
	mov	ecx, DWORD PTR _this$[ebp]
	mov	DWORD PTR [ecx+4], eax

; 166  : 		}

	add	esp, 4
	cmp	ebp, esp
	call	__RTC_CheckEsp
	mov	esp, ebp
	pop	ebp
	ret	4
??$_Emplace_back@AAUVector2D@@@?$_Uninitialized_backout_al@PAUVector2D@@V?$allocator@UVector2D@@@std@@@std@@QAEXAAUVector2D@@@Z ENDP ; std::_Uninitialized_backout_al<Vector2D *,std::allocator<Vector2D> >::_Emplace_back<Vector2D &>
_TEXT	ENDS
; Function compile flags: /Odtp /RTCsu
; File c:\program files (x86)\microsoft visual studio\2017\enterprise\vc\tools\msvc\14.15.26726\include\xmemory
;	COMDAT ?_Release@?$_Uninitialized_backout_al@PAUVector2D@@V?$allocator@UVector2D@@@std@@@std@@QAEPAUVector2D@@XZ
_TEXT	SEGMENT
_this$ = -4						; size = 4
?_Release@?$_Uninitialized_backout_al@PAUVector2D@@V?$allocator@UVector2D@@@std@@@std@@QAEPAUVector2D@@XZ PROC ; std::_Uninitialized_backout_al<Vector2D *,std::allocator<Vector2D> >::_Release, COMDAT
; _this$ = ecx

; 169  : 		{	// suppress any exception handling backout and return _Last

	push	ebp
	mov	ebp, esp
	push	ecx
	mov	DWORD PTR [ebp-4], -858993460		; ccccccccH
	mov	DWORD PTR _this$[ebp], ecx

; 170  : 		_First = _Last;

	mov	eax, DWORD PTR _this$[ebp]
	mov	ecx, DWORD PTR _this$[ebp]
	mov	edx, DWORD PTR [ecx+4]
	mov	DWORD PTR [eax], edx

; 171  : 		return (_Last);

	mov	eax, DWORD PTR _this$[ebp]
	mov	eax, DWORD PTR [eax+4]

; 172  : 		}

	mov	esp, ebp
	pop	ebp
	ret	0
?_Release@?$_Uninitialized_backout_al@PAUVector2D@@V?$allocator@UVector2D@@@std@@@std@@QAEPAUVector2D@@XZ ENDP ; std::_Uninitialized_backout_al<Vector2D *,std::allocator<Vector2D> >::_Release
_TEXT	ENDS
; Function compile flags: /Odtp /RTCsu
; File c:\program files (x86)\microsoft visual studio\2017\enterprise\vc\tools\msvc\14.15.26726\include\xmemory
;	COMDAT ??1?$_Uninitialized_backout_al@PAUVector2D@@V?$allocator@UVector2D@@@std@@@std@@QAE@XZ
_TEXT	SEGMENT
_this$ = -16						; size = 4
__$EHRec$ = -12						; size = 12
??1?$_Uninitialized_backout_al@PAUVector2D@@V?$allocator@UVector2D@@@std@@@std@@QAE@XZ PROC ; std::_Uninitialized_backout_al<Vector2D *,std::allocator<Vector2D> >::~_Uninitialized_backout_al<Vector2D *,std::allocator<Vector2D> >, COMDAT
; _this$ = ecx

; 157  : 		{	// destroy all elements guarded by this instance

	push	ebp
	mov	ebp, esp
	push	-1
	push	__ehhandler$??1?$_Uninitialized_backout_al@PAUVector2D@@V?$allocator@UVector2D@@@std@@@std@@QAE@XZ
	mov	eax, DWORD PTR fs:0
	push	eax
	push	ecx
	mov	DWORD PTR [ebp-16], -858993460		; ccccccccH
	mov	eax, DWORD PTR ___security_cookie
	xor	eax, ebp
	push	eax
	lea	eax, DWORD PTR __$EHRec$[ebp]
	mov	DWORD PTR fs:0, eax
	mov	DWORD PTR _this$[ebp], ecx

; 158  : 		_Destroy_range(_First, _Last, _Al);

	mov	eax, DWORD PTR _this$[ebp]
	mov	ecx, DWORD PTR [eax+8]
	push	ecx
	mov	edx, DWORD PTR _this$[ebp]
	mov	eax, DWORD PTR [edx+4]
	push	eax
	mov	ecx, DWORD PTR _this$[ebp]
	mov	edx, DWORD PTR [ecx]
	push	edx
	call	??$_Destroy_range@V?$allocator@UVector2D@@@std@@@std@@YAXPAUVector2D@@0AAV?$allocator@UVector2D@@@0@@Z ; std::_Destroy_range<std::allocator<Vector2D> >
	add	esp, 12					; 0000000cH

; 159  : 		}

	mov	ecx, DWORD PTR __$EHRec$[ebp]
	mov	DWORD PTR fs:0, ecx
	pop	ecx
	add	esp, 16					; 00000010H
	cmp	ebp, esp
	call	__RTC_CheckEsp
	mov	esp, ebp
	pop	ebp
	ret	0
_TEXT	ENDS
;	COMDAT text$x
text$x	SEGMENT
__ehhandler$??1?$_Uninitialized_backout_al@PAUVector2D@@V?$allocator@UVector2D@@@std@@@std@@QAE@XZ:
	mov	edx, DWORD PTR [esp+8]
	lea	eax, DWORD PTR [edx+12]
	mov	ecx, DWORD PTR [edx-8]
	xor	ecx, eax
	call	@__security_check_cookie@4
	mov	eax, OFFSET __ehfuncinfo$??1?$_Uninitialized_backout_al@PAUVector2D@@V?$allocator@UVector2D@@@std@@@std@@QAE@XZ
	jmp	___CxxFrameHandler3
text$x	ENDS
??1?$_Uninitialized_backout_al@PAUVector2D@@V?$allocator@UVector2D@@@std@@@std@@QAE@XZ ENDP ; std::_Uninitialized_backout_al<Vector2D *,std::allocator<Vector2D> >::~_Uninitialized_backout_al<Vector2D *,std::allocator<Vector2D> >
; Function compile flags: /Odtp /RTCsu
; File c:\program files (x86)\microsoft visual studio\2017\enterprise\vc\tools\msvc\14.15.26726\include\xmemory
;	COMDAT ??0?$_Uninitialized_backout_al@PAUVector2D@@V?$allocator@UVector2D@@@std@@@std@@QAE@PAUVector2D@@AAV?$allocator@UVector2D@@@1@@Z
_TEXT	SEGMENT
_this$ = -4						; size = 4
__Dest$ = 8						; size = 4
__Al_$ = 12						; size = 4
??0?$_Uninitialized_backout_al@PAUVector2D@@V?$allocator@UVector2D@@@std@@@std@@QAE@PAUVector2D@@AAV?$allocator@UVector2D@@@1@@Z PROC ; std::_Uninitialized_backout_al<Vector2D *,std::allocator<Vector2D> >::_Uninitialized_backout_al<Vector2D *,std::allocator<Vector2D> >, COMDAT
; _this$ = ecx

; 150  : 		{

	push	ebp
	mov	ebp, esp
	push	ecx
	mov	DWORD PTR [ebp-4], -858993460		; ccccccccH
	mov	DWORD PTR _this$[ebp], ecx

; 147  : 		: _First(_Dest),

	mov	eax, DWORD PTR _this$[ebp]
	mov	ecx, DWORD PTR __Dest$[ebp]
	mov	DWORD PTR [eax], ecx

; 148  : 		_Last(_Dest),

	mov	edx, DWORD PTR _this$[ebp]
	mov	eax, DWORD PTR __Dest$[ebp]
	mov	DWORD PTR [edx+4], eax

; 149  : 		_Al(_Al_)

	mov	ecx, DWORD PTR _this$[ebp]
	mov	edx, DWORD PTR __Al_$[ebp]
	mov	DWORD PTR [ecx+8], edx

; 151  : 		}

	mov	eax, DWORD PTR _this$[ebp]
	mov	esp, ebp
	pop	ebp
	ret	8
??0?$_Uninitialized_backout_al@PAUVector2D@@V?$allocator@UVector2D@@@std@@@std@@QAE@PAUVector2D@@AAV?$allocator@UVector2D@@@1@@Z ENDP ; std::_Uninitialized_backout_al<Vector2D *,std::allocator<Vector2D> >::_Uninitialized_backout_al<Vector2D *,std::allocator<Vector2D> >
_TEXT	ENDS
; Function compile flags: /Odtp /RTCsu
; File c:\program files (x86)\microsoft visual studio\2017\enterprise\vc\tools\msvc\14.15.26726\include\xmemory
;	COMDAT ??$_Uninitialized_move_al_unchecked@PAUVector2D@@PAU1@V?$allocator@UVector2D@@@std@@@std@@YAPAUVector2D@@PAU1@QAU1@1AAV?$allocator@UVector2D@@@0@U_General_ptr_iterator_tag@0@U_Unused_parameter@0@@Z
_TEXT	SEGMENT
$T2 = -36						; size = 4
__Backout$ = -28					; size = 12
__$EHRec$ = -12						; size = 12
__First$ = 8						; size = 4
__Last$ = 12						; size = 4
__Dest$ = 16						; size = 4
__Al$ = 20						; size = 4
___formal$ = 24						; size = 1
___formal$ = 28						; size = 1
??$_Uninitialized_move_al_unchecked@PAUVector2D@@PAU1@V?$allocator@UVector2D@@@std@@@std@@YAPAUVector2D@@PAU1@QAU1@1AAV?$allocator@UVector2D@@@0@U_General_ptr_iterator_tag@0@U_Unused_parameter@0@@Z PROC ; std::_Uninitialized_move_al_unchecked<Vector2D *,Vector2D *,std::allocator<Vector2D> >, COMDAT

; 228  : 	{	// move [_First, _Last) to raw _Dest, using _Al, no special optimization

	push	ebp
	mov	ebp, esp
	push	-1
	push	__ehhandler$??$_Uninitialized_move_al_unchecked@PAUVector2D@@PAU1@V?$allocator@UVector2D@@@std@@@std@@YAPAUVector2D@@PAU1@QAU1@1AAV?$allocator@UVector2D@@@0@U_General_ptr_iterator_tag@0@U_Unused_parameter@0@@Z
	mov	eax, DWORD PTR fs:0
	push	eax
	sub	esp, 24					; 00000018H
	mov	eax, -858993460				; ccccccccH
	mov	DWORD PTR [ebp-36], eax
	mov	DWORD PTR [ebp-32], eax
	mov	DWORD PTR [ebp-28], eax
	mov	DWORD PTR [ebp-24], eax
	mov	DWORD PTR [ebp-20], eax
	mov	DWORD PTR [ebp-16], eax
	mov	eax, DWORD PTR ___security_cookie
	xor	eax, ebp
	push	eax
	lea	eax, DWORD PTR __$EHRec$[ebp]
	mov	DWORD PTR fs:0, eax

; 229  : 	_Uninitialized_backout_al<_FwdIt, _Alloc> _Backout{_Dest, _Al};

	mov	eax, DWORD PTR __Al$[ebp]
	push	eax
	mov	ecx, DWORD PTR __Dest$[ebp]
	push	ecx
	lea	ecx, DWORD PTR __Backout$[ebp]
	call	??0?$_Uninitialized_backout_al@PAUVector2D@@V?$allocator@UVector2D@@@std@@@std@@QAE@PAUVector2D@@AAV?$allocator@UVector2D@@@1@@Z ; std::_Uninitialized_backout_al<Vector2D *,std::allocator<Vector2D> >::_Uninitialized_backout_al<Vector2D *,std::allocator<Vector2D> >
	mov	DWORD PTR __$EHRec$[ebp+8], 0

; 230  : 	for (; _First != _Last; ++_First)

	jmp	SHORT $LN4@Uninitiali
$LN2@Uninitiali:
	mov	edx, DWORD PTR __First$[ebp]
	add	edx, 16					; 00000010H
	mov	DWORD PTR __First$[ebp], edx
$LN4@Uninitiali:
	mov	eax, DWORD PTR __First$[ebp]
	cmp	eax, DWORD PTR __Last$[ebp]
	je	SHORT $LN3@Uninitiali

; 231  : 		{
; 232  : 		_Backout._Emplace_back(_STD move(*_First));

	mov	ecx, DWORD PTR __First$[ebp]
	push	ecx
	call	??$move@AAUVector2D@@@std@@YA$$QAUVector2D@@AAU1@@Z ; std::move<Vector2D &>
	add	esp, 4
	push	eax
	lea	ecx, DWORD PTR __Backout$[ebp]
	call	??$_Emplace_back@UVector2D@@@?$_Uninitialized_backout_al@PAUVector2D@@V?$allocator@UVector2D@@@std@@@std@@QAEX$$QAUVector2D@@@Z ; std::_Uninitialized_backout_al<Vector2D *,std::allocator<Vector2D> >::_Emplace_back<Vector2D>

; 233  : 		}

	jmp	SHORT $LN2@Uninitiali
$LN3@Uninitiali:

; 234  : 
; 235  : 	return (_Backout._Release());

	lea	ecx, DWORD PTR __Backout$[ebp]
	call	?_Release@?$_Uninitialized_backout_al@PAUVector2D@@V?$allocator@UVector2D@@@std@@@std@@QAEPAUVector2D@@XZ ; std::_Uninitialized_backout_al<Vector2D *,std::allocator<Vector2D> >::_Release
	mov	DWORD PTR $T2[ebp], eax
	mov	DWORD PTR __$EHRec$[ebp+8], -1
	lea	ecx, DWORD PTR __Backout$[ebp]
	call	??1?$_Uninitialized_backout_al@PAUVector2D@@V?$allocator@UVector2D@@@std@@@std@@QAE@XZ ; std::_Uninitialized_backout_al<Vector2D *,std::allocator<Vector2D> >::~_Uninitialized_backout_al<Vector2D *,std::allocator<Vector2D> >
	mov	eax, DWORD PTR $T2[ebp]

; 236  : 	}

	push	edx
	mov	ecx, ebp
	push	eax
	lea	edx, DWORD PTR $LN10@Uninitiali
	call	@_RTC_CheckStackVars@8
	pop	eax
	pop	edx
	mov	ecx, DWORD PTR __$EHRec$[ebp]
	mov	DWORD PTR fs:0, ecx
	pop	ecx
	add	esp, 36					; 00000024H
	cmp	ebp, esp
	call	__RTC_CheckEsp
	mov	esp, ebp
	pop	ebp
	ret	0
$LN10@Uninitiali:
	DD	1
	DD	$LN9@Uninitiali
$LN9@Uninitiali:
	DD	-28					; ffffffe4H
	DD	12					; 0000000cH
	DD	$LN7@Uninitiali
$LN7@Uninitiali:
	DB	95					; 0000005fH
	DB	66					; 00000042H
	DB	97					; 00000061H
	DB	99					; 00000063H
	DB	107					; 0000006bH
	DB	111					; 0000006fH
	DB	117					; 00000075H
	DB	116					; 00000074H
	DB	0
_TEXT	ENDS
;	COMDAT text$x
text$x	SEGMENT
__unwindfunclet$??$_Uninitialized_move_al_unchecked@PAUVector2D@@PAU1@V?$allocator@UVector2D@@@std@@@std@@YAPAUVector2D@@PAU1@QAU1@1AAV?$allocator@UVector2D@@@0@U_General_ptr_iterator_tag@0@U_Unused_parameter@0@@Z$0:
	lea	ecx, DWORD PTR __Backout$[ebp]
	jmp	??1?$_Uninitialized_backout_al@PAUVector2D@@V?$allocator@UVector2D@@@std@@@std@@QAE@XZ ; std::_Uninitialized_backout_al<Vector2D *,std::allocator<Vector2D> >::~_Uninitialized_backout_al<Vector2D *,std::allocator<Vector2D> >
__ehhandler$??$_Uninitialized_move_al_unchecked@PAUVector2D@@PAU1@V?$allocator@UVector2D@@@std@@@std@@YAPAUVector2D@@PAU1@QAU1@1AAV?$allocator@UVector2D@@@0@U_General_ptr_iterator_tag@0@U_Unused_parameter@0@@Z:
	mov	edx, DWORD PTR [esp+8]
	lea	eax, DWORD PTR [edx+12]
	mov	ecx, DWORD PTR [edx-28]
	xor	ecx, eax
	call	@__security_check_cookie@4
	mov	eax, OFFSET __ehfuncinfo$??$_Uninitialized_move_al_unchecked@PAUVector2D@@PAU1@V?$allocator@UVector2D@@@std@@@std@@YAPAUVector2D@@PAU1@QAU1@1AAV?$allocator@UVector2D@@@0@U_General_ptr_iterator_tag@0@U_Unused_parameter@0@@Z
	jmp	___CxxFrameHandler3
text$x	ENDS
??$_Uninitialized_move_al_unchecked@PAUVector2D@@PAU1@V?$allocator@UVector2D@@@std@@@std@@YAPAUVector2D@@PAU1@QAU1@1AAV?$allocator@UVector2D@@@0@U_General_ptr_iterator_tag@0@U_Unused_parameter@0@@Z ENDP ; std::_Uninitialized_move_al_unchecked<Vector2D *,Vector2D *,std::allocator<Vector2D> >
; Function compile flags: /Odtp /RTCsu
; File c:\program files (x86)\microsoft visual studio\2017\enterprise\vc\tools\msvc\14.15.26726\include\xutility
;	COMDAT ??$_Ptr_move_cat@UVector2D@@U1@@std@@YA?AU_Trivially_copyable_ptr_iterator_tag@0@ABQAUVector2D@@0@Z
_TEXT	SEGMENT
___$ReturnUdt$ = 8					; size = 4
___formal$ = 12						; size = 4
___formal$ = 16						; size = 4
??$_Ptr_move_cat@UVector2D@@U1@@std@@YA?AU_Trivially_copyable_ptr_iterator_tag@0@ABQAUVector2D@@0@Z PROC ; std::_Ptr_move_cat<Vector2D,Vector2D>, COMDAT

; 1086 : 	{	// return pointer move optimization category for pointers

	push	ebp
	mov	ebp, esp

; 1087 : 	return {};

	mov	eax, DWORD PTR ___$ReturnUdt$[ebp]

; 1088 : 	}

	pop	ebp
	ret	0
??$_Ptr_move_cat@UVector2D@@U1@@std@@YA?AU_Trivially_copyable_ptr_iterator_tag@0@ABQAUVector2D@@0@Z ENDP ; std::_Ptr_move_cat<Vector2D,Vector2D>
_TEXT	ENDS
; Function compile flags: /Odtp /RTCsu
; File c:\program files (x86)\microsoft visual studio\2017\enterprise\vc\tools\msvc\14.15.26726\include\xutility
;	COMDAT ??$_Seek_wrapped@UVector2D@@@std@@YAXAAPAUVector2D@@QAU1@@Z
_TEXT	SEGMENT
__It$ = 8						; size = 4
__UIt$ = 12						; size = 4
??$_Seek_wrapped@UVector2D@@@std@@YAXAAPAUVector2D@@QAU1@@Z PROC ; std::_Seek_wrapped<Vector2D>, COMDAT

; 871  : 	{

	push	ebp
	mov	ebp, esp

; 872  : 	_It = _UIt;

	mov	eax, DWORD PTR __It$[ebp]
	mov	ecx, DWORD PTR __UIt$[ebp]
	mov	DWORD PTR [eax], ecx

; 873  : 	}

	pop	ebp
	ret	0
??$_Seek_wrapped@UVector2D@@@std@@YAXAAPAUVector2D@@QAU1@@Z ENDP ; std::_Seek_wrapped<Vector2D>
_TEXT	ENDS
; Function compile flags: /Odtp /RTCsu
; File c:\program files (x86)\microsoft visual studio\2017\enterprise\vc\tools\msvc\14.15.26726\include\xmemory
;	COMDAT ??$_Uninitialized_copy_al_unchecked@PAUVector2D@@PAU1@V?$allocator@UVector2D@@@std@@@std@@YAPAUVector2D@@PAU1@QAU1@1AAV?$allocator@UVector2D@@@0@U_General_ptr_iterator_tag@0@U_Unused_parameter@0@@Z
_TEXT	SEGMENT
$T2 = -36						; size = 4
__Backout$ = -28					; size = 12
__$EHRec$ = -12						; size = 12
__First$ = 8						; size = 4
__Last$ = 12						; size = 4
__Dest$ = 16						; size = 4
__Al$ = 20						; size = 4
___formal$ = 24						; size = 1
___formal$ = 28						; size = 1
??$_Uninitialized_copy_al_unchecked@PAUVector2D@@PAU1@V?$allocator@UVector2D@@@std@@@std@@YAPAUVector2D@@PAU1@QAU1@1AAV?$allocator@UVector2D@@@0@U_General_ptr_iterator_tag@0@U_Unused_parameter@0@@Z PROC ; std::_Uninitialized_copy_al_unchecked<Vector2D *,Vector2D *,std::allocator<Vector2D> >, COMDAT

; 186  : 	{	// copy [_First, _Last) to raw _Dest, using _Al, no special optimization

	push	ebp
	mov	ebp, esp
	push	-1
	push	__ehhandler$??$_Uninitialized_copy_al_unchecked@PAUVector2D@@PAU1@V?$allocator@UVector2D@@@std@@@std@@YAPAUVector2D@@PAU1@QAU1@1AAV?$allocator@UVector2D@@@0@U_General_ptr_iterator_tag@0@U_Unused_parameter@0@@Z
	mov	eax, DWORD PTR fs:0
	push	eax
	sub	esp, 24					; 00000018H
	mov	eax, -858993460				; ccccccccH
	mov	DWORD PTR [ebp-36], eax
	mov	DWORD PTR [ebp-32], eax
	mov	DWORD PTR [ebp-28], eax
	mov	DWORD PTR [ebp-24], eax
	mov	DWORD PTR [ebp-20], eax
	mov	DWORD PTR [ebp-16], eax
	mov	eax, DWORD PTR ___security_cookie
	xor	eax, ebp
	push	eax
	lea	eax, DWORD PTR __$EHRec$[ebp]
	mov	DWORD PTR fs:0, eax

; 187  : 	_Uninitialized_backout_al<_FwdIt, _Alloc> _Backout{_Dest, _Al};

	mov	eax, DWORD PTR __Al$[ebp]
	push	eax
	mov	ecx, DWORD PTR __Dest$[ebp]
	push	ecx
	lea	ecx, DWORD PTR __Backout$[ebp]
	call	??0?$_Uninitialized_backout_al@PAUVector2D@@V?$allocator@UVector2D@@@std@@@std@@QAE@PAUVector2D@@AAV?$allocator@UVector2D@@@1@@Z ; std::_Uninitialized_backout_al<Vector2D *,std::allocator<Vector2D> >::_Uninitialized_backout_al<Vector2D *,std::allocator<Vector2D> >
	mov	DWORD PTR __$EHRec$[ebp+8], 0

; 188  : 	for (; _First != _Last; ++_First)

	jmp	SHORT $LN4@Uninitiali
$LN2@Uninitiali:
	mov	edx, DWORD PTR __First$[ebp]
	add	edx, 16					; 00000010H
	mov	DWORD PTR __First$[ebp], edx
$LN4@Uninitiali:
	mov	eax, DWORD PTR __First$[ebp]
	cmp	eax, DWORD PTR __Last$[ebp]
	je	SHORT $LN3@Uninitiali

; 189  : 		{
; 190  : 		_Backout._Emplace_back(*_First);

	mov	ecx, DWORD PTR __First$[ebp]
	push	ecx
	lea	ecx, DWORD PTR __Backout$[ebp]
	call	??$_Emplace_back@AAUVector2D@@@?$_Uninitialized_backout_al@PAUVector2D@@V?$allocator@UVector2D@@@std@@@std@@QAEXAAUVector2D@@@Z ; std::_Uninitialized_backout_al<Vector2D *,std::allocator<Vector2D> >::_Emplace_back<Vector2D &>

; 191  : 		}

	jmp	SHORT $LN2@Uninitiali
$LN3@Uninitiali:

; 192  : 
; 193  : 	return (_Backout._Release());

	lea	ecx, DWORD PTR __Backout$[ebp]
	call	?_Release@?$_Uninitialized_backout_al@PAUVector2D@@V?$allocator@UVector2D@@@std@@@std@@QAEPAUVector2D@@XZ ; std::_Uninitialized_backout_al<Vector2D *,std::allocator<Vector2D> >::_Release
	mov	DWORD PTR $T2[ebp], eax
	mov	DWORD PTR __$EHRec$[ebp+8], -1
	lea	ecx, DWORD PTR __Backout$[ebp]
	call	??1?$_Uninitialized_backout_al@PAUVector2D@@V?$allocator@UVector2D@@@std@@@std@@QAE@XZ ; std::_Uninitialized_backout_al<Vector2D *,std::allocator<Vector2D> >::~_Uninitialized_backout_al<Vector2D *,std::allocator<Vector2D> >
	mov	eax, DWORD PTR $T2[ebp]

; 194  : 	}

	push	edx
	mov	ecx, ebp
	push	eax
	lea	edx, DWORD PTR $LN10@Uninitiali
	call	@_RTC_CheckStackVars@8
	pop	eax
	pop	edx
	mov	ecx, DWORD PTR __$EHRec$[ebp]
	mov	DWORD PTR fs:0, ecx
	pop	ecx
	add	esp, 36					; 00000024H
	cmp	ebp, esp
	call	__RTC_CheckEsp
	mov	esp, ebp
	pop	ebp
	ret	0
	npad	1
$LN10@Uninitiali:
	DD	1
	DD	$LN9@Uninitiali
$LN9@Uninitiali:
	DD	-28					; ffffffe4H
	DD	12					; 0000000cH
	DD	$LN7@Uninitiali
$LN7@Uninitiali:
	DB	95					; 0000005fH
	DB	66					; 00000042H
	DB	97					; 00000061H
	DB	99					; 00000063H
	DB	107					; 0000006bH
	DB	111					; 0000006fH
	DB	117					; 00000075H
	DB	116					; 00000074H
	DB	0
_TEXT	ENDS
;	COMDAT text$x
text$x	SEGMENT
__unwindfunclet$??$_Uninitialized_copy_al_unchecked@PAUVector2D@@PAU1@V?$allocator@UVector2D@@@std@@@std@@YAPAUVector2D@@PAU1@QAU1@1AAV?$allocator@UVector2D@@@0@U_General_ptr_iterator_tag@0@U_Unused_parameter@0@@Z$0:
	lea	ecx, DWORD PTR __Backout$[ebp]
	jmp	??1?$_Uninitialized_backout_al@PAUVector2D@@V?$allocator@UVector2D@@@std@@@std@@QAE@XZ ; std::_Uninitialized_backout_al<Vector2D *,std::allocator<Vector2D> >::~_Uninitialized_backout_al<Vector2D *,std::allocator<Vector2D> >
__ehhandler$??$_Uninitialized_copy_al_unchecked@PAUVector2D@@PAU1@V?$allocator@UVector2D@@@std@@@std@@YAPAUVector2D@@PAU1@QAU1@1AAV?$allocator@UVector2D@@@0@U_General_ptr_iterator_tag@0@U_Unused_parameter@0@@Z:
	mov	edx, DWORD PTR [esp+8]
	lea	eax, DWORD PTR [edx+12]
	mov	ecx, DWORD PTR [edx-28]
	xor	ecx, eax
	call	@__security_check_cookie@4
	mov	eax, OFFSET __ehfuncinfo$??$_Uninitialized_copy_al_unchecked@PAUVector2D@@PAU1@V?$allocator@UVector2D@@@std@@@std@@YAPAUVector2D@@PAU1@QAU1@1AAV?$allocator@UVector2D@@@0@U_General_ptr_iterator_tag@0@U_Unused_parameter@0@@Z
	jmp	___CxxFrameHandler3
text$x	ENDS
??$_Uninitialized_copy_al_unchecked@PAUVector2D@@PAU1@V?$allocator@UVector2D@@@std@@@std@@YAPAUVector2D@@PAU1@QAU1@1AAV?$allocator@UVector2D@@@0@U_General_ptr_iterator_tag@0@U_Unused_parameter@0@@Z ENDP ; std::_Uninitialized_copy_al_unchecked<Vector2D *,Vector2D *,std::allocator<Vector2D> >
; Function compile flags: /Odtp /RTCsu
; File c:\program files (x86)\microsoft visual studio\2017\enterprise\vc\tools\msvc\14.15.26726\include\xutility
;	COMDAT ??$_Ptr_copy_cat@UVector2D@@U1@@std@@YA?AU_Trivially_copyable_ptr_iterator_tag@0@ABQAUVector2D@@0@Z
_TEXT	SEGMENT
___$ReturnUdt$ = 8					; size = 4
___formal$ = 12						; size = 4
___formal$ = 16						; size = 4
??$_Ptr_copy_cat@UVector2D@@U1@@std@@YA?AU_Trivially_copyable_ptr_iterator_tag@0@ABQAUVector2D@@0@Z PROC ; std::_Ptr_copy_cat<Vector2D,Vector2D>, COMDAT

; 1069 : 	{	// return pointer copy optimization category for pointers

	push	ebp
	mov	ebp, esp

; 1070 : 	return {};

	mov	eax, DWORD PTR ___$ReturnUdt$[ebp]

; 1071 : 	}

	pop	ebp
	ret	0
??$_Ptr_copy_cat@UVector2D@@U1@@std@@YA?AU_Trivially_copyable_ptr_iterator_tag@0@ABQAUVector2D@@0@Z ENDP ; std::_Ptr_copy_cat<Vector2D,Vector2D>
_TEXT	ENDS
; Function compile flags: /Odtp /RTCsu
; File c:\program files (x86)\microsoft visual studio\2017\enterprise\vc\tools\msvc\14.15.26726\include\xutility
;	COMDAT ??$_Get_unwrapped_n@UVector2D@@H$0A@@std@@YAPAUVector2D@@QAU1@H@Z
_TEXT	SEGMENT
__Src$ = 8						; size = 4
___formal$ = 12						; size = 4
??$_Get_unwrapped_n@UVector2D@@H$0A@@std@@YAPAUVector2D@@QAU1@H@Z PROC ; std::_Get_unwrapped_n<Vector2D,int,0>, COMDAT

; 808  : 	{

	push	ebp
	mov	ebp, esp

; 809  : 	return (_Src);

	mov	eax, DWORD PTR __Src$[ebp]

; 810  : 	}

	pop	ebp
	ret	0
??$_Get_unwrapped_n@UVector2D@@H$0A@@std@@YAPAUVector2D@@QAU1@H@Z ENDP ; std::_Get_unwrapped_n<Vector2D,int,0>
_TEXT	ENDS
; Function compile flags: /Odtp /RTCsu
; File c:\program files (x86)\microsoft visual studio\2017\enterprise\vc\tools\msvc\14.15.26726\include\xutility
;	COMDAT ??$_Idl_distance1@PAUVector2D@@PAU1@@std@@YAHABQAUVector2D@@0Urandom_access_iterator_tag@0@@Z
_TEXT	SEGMENT
__First$ = 8						; size = 4
__Last$ = 12						; size = 4
___formal$ = 16						; size = 1
??$_Idl_distance1@PAUVector2D@@PAU1@@std@@YAHABQAUVector2D@@0Urandom_access_iterator_tag@0@@Z PROC ; std::_Idl_distance1<Vector2D *,Vector2D *>, COMDAT

; 967  : 	{	// _Idl_distance for random-access iterators

	push	ebp
	mov	ebp, esp

; 968  : 	return (static_cast<_Iter_diff_t<_Checked>>(_Last - _First));

	mov	eax, DWORD PTR __Last$[ebp]
	mov	ecx, DWORD PTR __First$[ebp]
	mov	eax, DWORD PTR [eax]
	sub	eax, DWORD PTR [ecx]
	sar	eax, 4

; 969  : 	}

	pop	ebp
	ret	0
??$_Idl_distance1@PAUVector2D@@PAU1@@std@@YAHABQAUVector2D@@0Urandom_access_iterator_tag@0@@Z ENDP ; std::_Idl_distance1<Vector2D *,Vector2D *>
_TEXT	ENDS
; Function compile flags: /Odtp /RTCsu
; File c:\program files (x86)\microsoft visual studio\2017\enterprise\vc\tools\msvc\14.15.26726\include\xutility
;	COMDAT ??$_Idl_distance@PAUVector2D@@PAU1@@std@@YA@ABQAUVector2D@@0@Z
_TEXT	SEGMENT
$T1 = -1						; size = 1
__First$ = 8						; size = 4
__Last$ = 12						; size = 4
??$_Idl_distance@PAUVector2D@@PAU1@@std@@YA@ABQAUVector2D@@0@Z PROC ; std::_Idl_distance<Vector2D *,Vector2D *>, COMDAT

; 974  : 	{	// tries to get the distance between _First and _Last if they are random-access iterators

	push	ebp
	mov	ebp, esp
	push	ecx
	mov	DWORD PTR [ebp-4], -858993460		; ccccccccH

; 975  : 	return (_Idl_distance1<_Checked>(_First, _Last, _Iter_cat_t<_Iter>()));

	movzx	eax, BYTE PTR $T1[ebp]
	push	eax
	mov	ecx, DWORD PTR __Last$[ebp]
	push	ecx
	mov	edx, DWORD PTR __First$[ebp]
	push	edx
	call	??$_Idl_distance1@PAUVector2D@@PAU1@@std@@YAHABQAUVector2D@@0Urandom_access_iterator_tag@0@@Z ; std::_Idl_distance1<Vector2D *,Vector2D *>
	add	esp, 12					; 0000000cH

; 976  : 	}

	add	esp, 4
	cmp	ebp, esp
	call	__RTC_CheckEsp
	mov	esp, ebp
	pop	ebp
	ret	0
??$_Idl_distance@PAUVector2D@@PAU1@@std@@YA@ABQAUVector2D@@0@Z ENDP ; std::_Idl_distance<Vector2D *,Vector2D *>
_TEXT	ENDS
; Function compile flags: /Odtp /RTCsu
; File c:\program files (x86)\microsoft visual studio\2017\enterprise\vc\tools\msvc\14.15.26726\include\xutility
;	COMDAT ??$_Get_unwrapped@UVector2D@@@std@@YAPAUVector2D@@QAU1@@Z
_TEXT	SEGMENT
__Ptr$ = 8						; size = 4
??$_Get_unwrapped@UVector2D@@@std@@YAPAUVector2D@@QAU1@@Z PROC ; std::_Get_unwrapped<Vector2D>, COMDAT

; 662  : 	{	// special case already-unwrapped pointers

	push	ebp
	mov	ebp, esp

; 663  : 	return (_Ptr);

	mov	eax, DWORD PTR __Ptr$[ebp]

; 664  : 	}

	pop	ebp
	ret	0
??$_Get_unwrapped@UVector2D@@@std@@YAPAUVector2D@@QAU1@@Z ENDP ; std::_Get_unwrapped<Vector2D>
_TEXT	ENDS
; Function compile flags: /Odtp /RTCsu
; File c:\program files (x86)\microsoft visual studio\2017\enterprise\vc\tools\msvc\14.15.26726\include\xutility
;	COMDAT ??$?0U?$integral_constant@_N$00@std@@@_Unused_parameter@std@@QAE@$$QAU?$integral_constant@_N$00@1@@Z
_TEXT	SEGMENT
_this$ = -4						; size = 4
___formal$ = 8						; size = 4
??$?0U?$integral_constant@_N$00@std@@@_Unused_parameter@std@@QAE@$$QAU?$integral_constant@_N$00@1@@Z PROC ; std::_Unused_parameter::_Unused_parameter<std::integral_constant<bool,1> >, COMDAT
; _this$ = ecx

; 436  : 		constexpr _Unused_parameter(_Ty&&) noexcept {}

	push	ebp
	mov	ebp, esp
	push	ecx
	mov	DWORD PTR [ebp-4], -858993460		; ccccccccH
	mov	DWORD PTR _this$[ebp], ecx
	mov	eax, DWORD PTR _this$[ebp]
	mov	esp, ebp
	pop	ebp
	ret	4
??$?0U?$integral_constant@_N$00@std@@@_Unused_parameter@std@@QAE@$$QAU?$integral_constant@_N$00@1@@Z ENDP ; std::_Unused_parameter::_Unused_parameter<std::integral_constant<bool,1> >
_TEXT	ENDS
; Function compile flags: /Odtp /RTCsu
; File c:\program files (x86)\microsoft visual studio\2017\enterprise\vc\tools\msvc\14.15.26726\include\xmemory0
;	COMDAT ??$construct@UWeaponRecord@WeaponMarkers@@U12@@?$_Default_allocator_traits@V?$allocator@U?$_List_node@UWeaponRecord@WeaponMarkers@@PAX@std@@@std@@@std@@SAXAAV?$allocator@U?$_List_node@UWeaponRecord@WeaponMarkers@@PAX@std@@@1@QAUWeaponRecord@WeaponMarkers@@$$QAU34@@Z
_TEXT	SEGMENT
$T1 = -4						; size = 4
___formal$ = 8						; size = 4
__Ptr$ = 12						; size = 4
_<_Args_0>$ = 16					; size = 4
??$construct@UWeaponRecord@WeaponMarkers@@U12@@?$_Default_allocator_traits@V?$allocator@U?$_List_node@UWeaponRecord@WeaponMarkers@@PAX@std@@@std@@@std@@SAXAAV?$allocator@U?$_List_node@UWeaponRecord@WeaponMarkers@@PAX@std@@@1@QAUWeaponRecord@WeaponMarkers@@$$QAU34@@Z PROC ; std::_Default_allocator_traits<std::allocator<std::_List_node<WeaponMarkers::WeaponRecord,void *> > >::construct<WeaponMarkers::WeaponRecord,WeaponMarkers::WeaponRecord>, COMDAT

; 879  : 		{	// construct _Objty(_Types...) at _Ptr

	push	ebp
	mov	ebp, esp
	push	ecx
	mov	DWORD PTR [ebp-4], -858993460		; ccccccccH

; 880  : 		::new (const_cast<void *>(static_cast<const volatile void *>(_Ptr)))

	mov	eax, DWORD PTR __Ptr$[ebp]
	push	eax
	push	24					; 00000018H
	call	??2@YAPAXIPAX@Z				; operator new
	add	esp, 8
	mov	DWORD PTR $T1[ebp], eax
	mov	ecx, DWORD PTR _<_Args_0>$[ebp]
	push	ecx
	call	??$forward@UWeaponRecord@WeaponMarkers@@@std@@YA$$QAUWeaponRecord@WeaponMarkers@@AAU12@@Z ; std::forward<WeaponMarkers::WeaponRecord>
	add	esp, 4
	mov	edx, DWORD PTR $T1[ebp]
	mov	ecx, DWORD PTR [eax]
	mov	DWORD PTR [edx], ecx
	mov	ecx, DWORD PTR [eax+4]
	mov	DWORD PTR [edx+4], ecx
	mov	ecx, DWORD PTR [eax+8]
	mov	DWORD PTR [edx+8], ecx
	mov	ecx, DWORD PTR [eax+12]
	mov	DWORD PTR [edx+12], ecx
	mov	ecx, DWORD PTR [eax+16]
	mov	DWORD PTR [edx+16], ecx
	mov	eax, DWORD PTR [eax+20]
	mov	DWORD PTR [edx+20], eax

; 881  : 			_Objty(_STD forward<_Types>(_Args)...);
; 882  : 		}

	add	esp, 4
	cmp	ebp, esp
	call	__RTC_CheckEsp
	mov	esp, ebp
	pop	ebp
	ret	0
??$construct@UWeaponRecord@WeaponMarkers@@U12@@?$_Default_allocator_traits@V?$allocator@U?$_List_node@UWeaponRecord@WeaponMarkers@@PAX@std@@@std@@@std@@SAXAAV?$allocator@U?$_List_node@UWeaponRecord@WeaponMarkers@@PAX@std@@@1@QAUWeaponRecord@WeaponMarkers@@$$QAU34@@Z ENDP ; std::_Default_allocator_traits<std::allocator<std::_List_node<WeaponMarkers::WeaponRecord,void *> > >::construct<WeaponMarkers::WeaponRecord,WeaponMarkers::WeaponRecord>
_TEXT	ENDS
; Function compile flags: /Odtp /RTCsu
; File c:\program files (x86)\microsoft visual studio\2017\enterprise\vc\tools\msvc\14.15.26726\include\xmemory
;	COMDAT ??$_Uninitialized_move@PAUVector2D@@PAU1@V?$allocator@UVector2D@@@std@@@std@@YAPAUVector2D@@QAU1@0PAU1@AAV?$allocator@UVector2D@@@0@@Z
_TEXT	SEGMENT
$T1 = -43						; size = 1
$T2 = -42						; size = 1
$T3 = -41						; size = 1
__UDest$ = -32						; size = 4
__ULast$ = -20						; size = 4
__UFirst$ = -8						; size = 4
__First$ = 8						; size = 4
__Last$ = 12						; size = 4
__Dest$ = 16						; size = 4
__Al$ = 20						; size = 4
??$_Uninitialized_move@PAUVector2D@@PAU1@V?$allocator@UVector2D@@@std@@@std@@YAPAUVector2D@@QAU1@0PAU1@AAV?$allocator@UVector2D@@@0@@Z PROC ; std::_Uninitialized_move<Vector2D *,Vector2D *,std::allocator<Vector2D> >, COMDAT

; 251  : 	{	// move [_First, _Last) to raw _Dest, using _Al

	push	ebp
	mov	ebp, esp
	sub	esp, 44					; 0000002cH
	push	edi
	lea	edi, DWORD PTR [ebp-44]
	mov	ecx, 11					; 0000000bH
	mov	eax, -858993460				; ccccccccH
	rep stosd

; 252  : 		// note: only called internally from elsewhere in the STL
; 253  : 	const auto _UFirst = _Get_unwrapped(_First);

	mov	eax, DWORD PTR __First$[ebp]
	push	eax
	call	??$_Get_unwrapped@UVector2D@@@std@@YAPAUVector2D@@QAU1@@Z ; std::_Get_unwrapped<Vector2D>
	add	esp, 4
	mov	DWORD PTR __UFirst$[ebp], eax

; 254  : 	const auto _ULast = _Get_unwrapped(_Last);

	mov	ecx, DWORD PTR __Last$[ebp]
	push	ecx
	call	??$_Get_unwrapped@UVector2D@@@std@@YAPAUVector2D@@QAU1@@Z ; std::_Get_unwrapped<Vector2D>
	add	esp, 4
	mov	DWORD PTR __ULast$[ebp], eax

; 255  : 	const auto _UDest = _Get_unwrapped_n(_Dest, _Idl_distance<_InIt>(_UFirst, _ULast));

	lea	edx, DWORD PTR __ULast$[ebp]
	push	edx
	lea	eax, DWORD PTR __UFirst$[ebp]
	push	eax
	call	??$_Idl_distance@PAUVector2D@@PAU1@@std@@YA@ABQAUVector2D@@0@Z ; std::_Idl_distance<Vector2D *,Vector2D *>
	add	esp, 8
	push	eax
	mov	ecx, DWORD PTR __Dest$[ebp]
	push	ecx
	call	??$_Get_unwrapped_n@UVector2D@@H$0A@@std@@YAPAUVector2D@@QAU1@H@Z ; std::_Get_unwrapped_n<Vector2D,int,0>
	add	esp, 8
	mov	DWORD PTR __UDest$[ebp], eax

; 256  : 	_Seek_wrapped(_Dest,

	lea	edx, DWORD PTR __UDest$[ebp]
	push	edx
	lea	eax, DWORD PTR __UFirst$[ebp]
	push	eax
	lea	ecx, DWORD PTR $T2[ebp]
	push	ecx
	call	??$_Ptr_move_cat@UVector2D@@U1@@std@@YA?AU_Trivially_copyable_ptr_iterator_tag@0@ABQAUVector2D@@0@Z ; std::_Ptr_move_cat<Vector2D,Vector2D>
	add	esp, 8
	mov	ecx, esp
	lea	edx, DWORD PTR $T3[ebp]
	push	edx
	call	??$?0U?$integral_constant@_N$00@std@@@_Unused_parameter@std@@QAE@$$QAU?$integral_constant@_N$00@1@@Z ; std::_Unused_parameter::_Unused_parameter<std::integral_constant<bool,1> >
	movzx	eax, BYTE PTR $T1[ebp]
	push	eax
	mov	ecx, DWORD PTR __Al$[ebp]
	push	ecx
	mov	edx, DWORD PTR __UDest$[ebp]
	push	edx
	mov	eax, DWORD PTR __ULast$[ebp]
	push	eax
	mov	ecx, DWORD PTR __UFirst$[ebp]
	push	ecx
	call	??$_Uninitialized_move_al_unchecked@PAUVector2D@@PAU1@V?$allocator@UVector2D@@@std@@@std@@YAPAUVector2D@@PAU1@QAU1@1AAV?$allocator@UVector2D@@@0@U_General_ptr_iterator_tag@0@U_Unused_parameter@0@@Z ; std::_Uninitialized_move_al_unchecked<Vector2D *,Vector2D *,std::allocator<Vector2D> >
	add	esp, 24					; 00000018H
	push	eax
	lea	edx, DWORD PTR __Dest$[ebp]
	push	edx
	call	??$_Seek_wrapped@UVector2D@@@std@@YAXAAPAUVector2D@@QAU1@@Z ; std::_Seek_wrapped<Vector2D>
	add	esp, 8

; 257  : 		_Uninitialized_move_al_unchecked(_UFirst, _ULast, _UDest, _Al,
; 258  : 			_Ptr_move_cat(_UFirst, _UDest),
; 259  : 			_Uses_default_construct_t<_Alloc, decltype(_Unfancy(_UDest)), decltype(_STD move(*_UFirst))>()));
; 260  : 	return (_Dest);

	mov	eax, DWORD PTR __Dest$[ebp]

; 261  : 	}

	push	edx
	mov	ecx, ebp
	push	eax
	lea	edx, DWORD PTR $LN7@Uninitiali
	call	@_RTC_CheckStackVars@8
	pop	eax
	pop	edx
	pop	edi
	add	esp, 44					; 0000002cH
	cmp	ebp, esp
	call	__RTC_CheckEsp
	mov	esp, ebp
	pop	ebp
	ret	0
$LN7@Uninitiali:
	DD	3
	DD	$LN6@Uninitiali
$LN6@Uninitiali:
	DD	-8					; fffffff8H
	DD	4
	DD	$LN3@Uninitiali
	DD	-20					; ffffffecH
	DD	4
	DD	$LN4@Uninitiali
	DD	-32					; ffffffe0H
	DD	4
	DD	$LN5@Uninitiali
$LN5@Uninitiali:
	DB	95					; 0000005fH
	DB	85					; 00000055H
	DB	68					; 00000044H
	DB	101					; 00000065H
	DB	115					; 00000073H
	DB	116					; 00000074H
	DB	0
$LN4@Uninitiali:
	DB	95					; 0000005fH
	DB	85					; 00000055H
	DB	76					; 0000004cH
	DB	97					; 00000061H
	DB	115					; 00000073H
	DB	116					; 00000074H
	DB	0
$LN3@Uninitiali:
	DB	95					; 0000005fH
	DB	85					; 00000055H
	DB	70					; 00000046H
	DB	105					; 00000069H
	DB	114					; 00000072H
	DB	115					; 00000073H
	DB	116					; 00000074H
	DB	0
??$_Uninitialized_move@PAUVector2D@@PAU1@V?$allocator@UVector2D@@@std@@@std@@YAPAUVector2D@@QAU1@0PAU1@AAV?$allocator@UVector2D@@@0@@Z ENDP ; std::_Uninitialized_move<Vector2D *,Vector2D *,std::allocator<Vector2D> >
_TEXT	ENDS
; Function compile flags: /Odtp /RTCsu
; File c:\program files (x86)\microsoft visual studio\2017\enterprise\vc\tools\msvc\14.15.26726\include\type_traits
;	COMDAT ??$forward@AAPAU?$_List_node@UWeaponRecord@WeaponMarkers@@PAX@std@@@std@@YAAAPAU?$_List_node@UWeaponRecord@WeaponMarkers@@PAX@0@AAPAU10@@Z
_TEXT	SEGMENT
__Arg$ = 8						; size = 4
??$forward@AAPAU?$_List_node@UWeaponRecord@WeaponMarkers@@PAX@std@@@std@@YAAAPAU?$_List_node@UWeaponRecord@WeaponMarkers@@PAX@0@AAPAU10@@Z PROC ; std::forward<std::_List_node<WeaponMarkers::WeaponRecord,void *> * &>, COMDAT

; 1573 : 	{	// forward an lvalue as either an lvalue or an rvalue

	push	ebp
	mov	ebp, esp

; 1574 : 	return (static_cast<_Ty&&>(_Arg));

	mov	eax, DWORD PTR __Arg$[ebp]

; 1575 : 	}

	pop	ebp
	ret	0
??$forward@AAPAU?$_List_node@UWeaponRecord@WeaponMarkers@@PAX@std@@@std@@YAAAPAU?$_List_node@UWeaponRecord@WeaponMarkers@@PAX@0@AAPAU10@@Z ENDP ; std::forward<std::_List_node<WeaponMarkers::WeaponRecord,void *> * &>
_TEXT	ENDS
; Function compile flags: /Odtp /RTCsu
; File c:\program files (x86)\microsoft visual studio\2017\enterprise\vc\tools\msvc\14.15.26726\include\xmemory0
;	COMDAT ??$_Destroy_range1@V?$allocator@UVector2D@@@std@@@std@@YAXPAUVector2D@@0AAV?$allocator@UVector2D@@@0@U?$integral_constant@_N$00@0@@Z
_TEXT	SEGMENT
___formal$ = 8						; size = 4
___formal$ = 12						; size = 4
___formal$ = 16						; size = 4
___formal$ = 20						; size = 1
??$_Destroy_range1@V?$allocator@UVector2D@@@std@@@std@@YAXPAUVector2D@@0AAV?$allocator@UVector2D@@@0@U?$integral_constant@_N$00@0@@Z PROC ; std::_Destroy_range1<std::allocator<Vector2D> >, COMDAT

; 1145 : 	{	// destroy [_First, _Last), trivially destructible and default destroy

	push	ebp
	mov	ebp, esp

; 1146 : 		// nothing to do
; 1147 : 	}

	pop	ebp
	ret	0
??$_Destroy_range1@V?$allocator@UVector2D@@@std@@@std@@YAXPAUVector2D@@0AAV?$allocator@UVector2D@@@0@U?$integral_constant@_N$00@0@@Z ENDP ; std::_Destroy_range1<std::allocator<Vector2D> >
_TEXT	ENDS
; Function compile flags: /Odtp /RTCsu
; File c:\program files (x86)\microsoft visual studio\2017\enterprise\vc\tools\msvc\14.15.26726\include\type_traits
;	COMDAT ??$forward@U_Container_proxy@std@@@std@@YA$$QAU_Container_proxy@0@AAU10@@Z
_TEXT	SEGMENT
__Arg$ = 8						; size = 4
??$forward@U_Container_proxy@std@@@std@@YA$$QAU_Container_proxy@0@AAU10@@Z PROC ; std::forward<std::_Container_proxy>, COMDAT

; 1573 : 	{	// forward an lvalue as either an lvalue or an rvalue

	push	ebp
	mov	ebp, esp

; 1574 : 	return (static_cast<_Ty&&>(_Arg));

	mov	eax, DWORD PTR __Arg$[ebp]

; 1575 : 	}

	pop	ebp
	ret	0
??$forward@U_Container_proxy@std@@@std@@YA$$QAU_Container_proxy@0@AAU10@@Z ENDP ; std::forward<std::_Container_proxy>
_TEXT	ENDS
; Function compile flags: /Odtp /RTCsu
; File c:\program files (x86)\microsoft visual studio\2017\enterprise\vc\tools\msvc\14.15.26726\include\xmemory0
;	COMDAT ??$destroy@PAU?$_List_node@UWeaponRecord@WeaponMarkers@@PAX@std@@@?$_Default_allocator_traits@V?$allocator@U?$_List_node@UWeaponRecord@WeaponMarkers@@PAX@std@@@std@@@std@@SAXAAV?$allocator@U?$_List_node@UWeaponRecord@WeaponMarkers@@PAX@std@@@1@QAPAU?$_List_node@UWeaponRecord@WeaponMarkers@@PAX@1@@Z
_TEXT	SEGMENT
___formal$ = 8						; size = 4
__Ptr$ = 12						; size = 4
??$destroy@PAU?$_List_node@UWeaponRecord@WeaponMarkers@@PAX@std@@@?$_Default_allocator_traits@V?$allocator@U?$_List_node@UWeaponRecord@WeaponMarkers@@PAX@std@@@std@@@std@@SAXAAV?$allocator@U?$_List_node@UWeaponRecord@WeaponMarkers@@PAX@std@@@1@QAPAU?$_List_node@UWeaponRecord@WeaponMarkers@@PAX@1@@Z PROC ; std::_Default_allocator_traits<std::allocator<std::_List_node<WeaponMarkers::WeaponRecord,void *> > >::destroy<std::_List_node<WeaponMarkers::WeaponRecord,void *> *>, COMDAT

; 886  : 		{	// destroy object at _Ptr

	push	ebp
	mov	ebp, esp

; 887  : 		_Ptr->~_Uty();
; 888  : 		}

	pop	ebp
	ret	0
??$destroy@PAU?$_List_node@UWeaponRecord@WeaponMarkers@@PAX@std@@@?$_Default_allocator_traits@V?$allocator@U?$_List_node@UWeaponRecord@WeaponMarkers@@PAX@std@@@std@@@std@@SAXAAV?$allocator@U?$_List_node@UWeaponRecord@WeaponMarkers@@PAX@std@@@1@QAPAU?$_List_node@UWeaponRecord@WeaponMarkers@@PAX@1@@Z ENDP ; std::_Default_allocator_traits<std::allocator<std::_List_node<WeaponMarkers::WeaponRecord,void *> > >::destroy<std::_List_node<WeaponMarkers::WeaponRecord,void *> *>
_TEXT	ENDS
; Function compile flags: /Odtp /RTCsu
; File c:\program files (x86)\microsoft visual studio\2017\enterprise\vc\tools\msvc\14.15.26726\include\xmemory0
;	COMDAT ??$_Allocate_manually_vector_aligned@U_Default_allocate_traits@std@@@std@@YAPAXI@Z
_TEXT	SEGMENT
__Ptr$ = -12						; size = 4
__Ptr_container$ = -8					; size = 4
__Block_size$ = -4					; size = 4
__Bytes$ = 8						; size = 4
??$_Allocate_manually_vector_aligned@U_Default_allocate_traits@std@@@std@@YAPAXI@Z PROC ; std::_Allocate_manually_vector_aligned<std::_Default_allocate_traits>, COMDAT

; 92   : 	{	// allocate _Bytes manually aligned to at least _Big_allocation_alignment

	push	ebp
	mov	ebp, esp
	sub	esp, 12					; 0000000cH
	mov	DWORD PTR [ebp-12], -858993460		; ccccccccH
	mov	DWORD PTR [ebp-8], -858993460		; ccccccccH
	mov	DWORD PTR [ebp-4], -858993460		; ccccccccH

; 93   : 	size_t _Block_size = _Non_user_size + _Bytes;

	mov	eax, DWORD PTR __Bytes$[ebp]
	add	eax, 39					; 00000027H
	mov	DWORD PTR __Block_size$[ebp], eax

; 94   : 	if (_Block_size <= _Bytes)

	mov	ecx, DWORD PTR __Block_size$[ebp]
	cmp	ecx, DWORD PTR __Bytes$[ebp]
	ja	SHORT $LN8@Allocate_m

; 95   : 		{	// add overflow, try allocating all of memory and assume the
; 96   : 			// allocation function will throw bad_alloc
; 97   : 		_Block_size = static_cast<size_t>(-1);

	mov	DWORD PTR __Block_size$[ebp], -1
$LN8@Allocate_m:

; 98   : 		}
; 99   : 
; 100  : 	const uintptr_t _Ptr_container = reinterpret_cast<uintptr_t>(_Traits::_Allocate(_Block_size));

	mov	edx, DWORD PTR __Block_size$[ebp]
	push	edx
	call	?_Allocate@_Default_allocate_traits@std@@SAPAXI@Z ; std::_Default_allocate_traits::_Allocate
	add	esp, 4
	mov	DWORD PTR __Ptr_container$[ebp], eax
$LN4@Allocate_m:

; 101  : 	_STL_VERIFY(_Ptr_container != 0, "invalid argument");	// validate even in release since we're doing p[-1]

	cmp	DWORD PTR __Ptr_container$[ebp], 0
	je	SHORT $LN7@Allocate_m
	jmp	SHORT $LN2@Allocate_m
$LN7@Allocate_m:
	push	OFFSET ??_C@_0BB@FCMFBGOM@invalid?5argument@
	push	OFFSET ??_C@_02DKCKIIND@?$CFs@
	push	0
	push	101					; 00000065H
	push	OFFSET ??_C@_0GK@FKLKIKPD@c?3?2program?5files?5?$CIx86?$CJ?2microsof@
	push	2
	call	__CrtDbgReport
	add	esp, 24					; 00000018H
	cmp	eax, 1
	jne	SHORT $LN12@Allocate_m
	int	3
$LN12@Allocate_m:
	push	0
	push	101					; 00000065H
	push	OFFSET ??_C@_1NE@MCNNPIKO@?$AAc?$AA?3?$AA?2?$AAp?$AAr?$AAo?$AAg?$AAr?$AAa?$AAm?$AA?5?$AAf?$AAi?$AAl?$AAe@
	push	OFFSET ??_C@_1EO@GFNCMDLA@?$AAs?$AAt?$AAd?$AA?3?$AA?3?$AA_?$AAA?$AAl?$AAl?$AAo?$AAc?$AAa?$AAt?$AAe?$AA_@
	push	OFFSET ??_C@_1CG@JNLFBNGN@?$AA?$CC?$AAi?$AAn?$AAv?$AAa?$AAl?$AAi?$AAd?$AA?5?$AAa?$AAr?$AAg?$AAu?$AAm?$AAe@
	call	__invalid_parameter
	add	esp, 20					; 00000014H
	xor	ecx, ecx
	jne	SHORT $LN7@Allocate_m
$LN2@Allocate_m:
	xor	edx, edx
	jne	SHORT $LN4@Allocate_m

; 102  : 	void * const _Ptr = reinterpret_cast<void *>((_Ptr_container + _Non_user_size)
; 103  : 		& ~(_Big_allocation_alignment - 1));

	mov	eax, DWORD PTR __Ptr_container$[ebp]
	add	eax, 39					; 00000027H
	and	eax, -32				; ffffffe0H
	mov	DWORD PTR __Ptr$[ebp], eax

; 104  : 	static_cast<uintptr_t *>(_Ptr)[-1] = _Ptr_container;

	mov	ecx, 4
	imul	edx, ecx, -1
	mov	eax, DWORD PTR __Ptr$[ebp]
	mov	ecx, DWORD PTR __Ptr_container$[ebp]
	mov	DWORD PTR [eax+edx], ecx

; 105  : 
; 106  :   #ifdef _DEBUG
; 107  : 	static_cast<uintptr_t *>(_Ptr)[-2] = _Big_allocation_sentinel;

	mov	edx, 4
	imul	eax, edx, -2
	mov	ecx, DWORD PTR __Ptr$[ebp]
	mov	DWORD PTR [ecx+eax], -84215046		; fafafafaH

; 108  :   #endif /* _DEBUG */
; 109  : 	return (_Ptr);

	mov	eax, DWORD PTR __Ptr$[ebp]

; 110  : 	}

	add	esp, 12					; 0000000cH
	cmp	ebp, esp
	call	__RTC_CheckEsp
	mov	esp, ebp
	pop	ebp
	ret	0
??$_Allocate_manually_vector_aligned@U_Default_allocate_traits@std@@@std@@YAPAXI@Z ENDP ; std::_Allocate_manually_vector_aligned<std::_Default_allocate_traits>
_TEXT	ENDS
; Function compile flags: /Odtp /RTCsu
; File c:\program files (x86)\microsoft visual studio\2017\enterprise\vc\tools\msvc\14.15.26726\include\xmemory0
;	COMDAT ??$_Pocma@V?$allocator@UVector2D@@@std@@@std@@YAXAAV?$allocator@UVector2D@@@0@0U?$integral_constant@_N$00@0@@Z
_TEXT	SEGMENT
__Left$ = 8						; size = 4
__Right$ = 12						; size = 4
___formal$ = 16						; size = 1
??$_Pocma@V?$allocator@UVector2D@@@std@@@std@@YAXAAV?$allocator@UVector2D@@@0@0U?$integral_constant@_N$00@0@@Z PROC ; std::_Pocma<std::allocator<Vector2D> >, COMDAT

; 1088 : 	{	// propagate on container move assignment

	push	ebp
	mov	ebp, esp

; 1089 : 	_Left = _STD move(_Right);

	mov	eax, DWORD PTR __Right$[ebp]
	push	eax
	call	??$move@AAV?$allocator@UVector2D@@@std@@@std@@YA$$QAV?$allocator@UVector2D@@@0@AAV10@@Z ; std::move<std::allocator<Vector2D> &>
	add	esp, 4

; 1090 : 	}

	cmp	ebp, esp
	call	__RTC_CheckEsp
	pop	ebp
	ret	0
??$_Pocma@V?$allocator@UVector2D@@@std@@@std@@YAXAAV?$allocator@UVector2D@@@0@0U?$integral_constant@_N$00@0@@Z ENDP ; std::_Pocma<std::allocator<Vector2D> >
_TEXT	ENDS
; Function compile flags: /Odtp /RTCsu
; File c:\program files (x86)\microsoft visual studio\2017\enterprise\vc\tools\msvc\14.15.26726\include\xmemory
;	COMDAT ??$_Uninitialized_copy@PAUVector2D@@PAU1@V?$allocator@UVector2D@@@std@@@std@@YAPAUVector2D@@QAU1@0PAU1@AAV?$allocator@UVector2D@@@0@@Z
_TEXT	SEGMENT
$T1 = -43						; size = 1
$T2 = -42						; size = 1
$T3 = -41						; size = 1
__UDest$ = -32						; size = 4
__ULast$ = -20						; size = 4
__UFirst$ = -8						; size = 4
__First$ = 8						; size = 4
__Last$ = 12						; size = 4
__Dest$ = 16						; size = 4
__Al$ = 20						; size = 4
??$_Uninitialized_copy@PAUVector2D@@PAU1@V?$allocator@UVector2D@@@std@@@std@@YAPAUVector2D@@QAU1@0PAU1@AAV?$allocator@UVector2D@@@0@@Z PROC ; std::_Uninitialized_copy<Vector2D *,Vector2D *,std::allocator<Vector2D> >, COMDAT

; 209  : 	{	// copy [_First, _Last) to raw _Dest, using _Al

	push	ebp
	mov	ebp, esp
	sub	esp, 44					; 0000002cH
	push	edi
	lea	edi, DWORD PTR [ebp-44]
	mov	ecx, 11					; 0000000bH
	mov	eax, -858993460				; ccccccccH
	rep stosd

; 210  : 		// note: only called internally from elsewhere in the STL
; 211  : 	const auto _UFirst = _Get_unwrapped(_First);

	mov	eax, DWORD PTR __First$[ebp]
	push	eax
	call	??$_Get_unwrapped@UVector2D@@@std@@YAPAUVector2D@@QAU1@@Z ; std::_Get_unwrapped<Vector2D>
	add	esp, 4
	mov	DWORD PTR __UFirst$[ebp], eax

; 212  : 	const auto _ULast = _Get_unwrapped(_Last);

	mov	ecx, DWORD PTR __Last$[ebp]
	push	ecx
	call	??$_Get_unwrapped@UVector2D@@@std@@YAPAUVector2D@@QAU1@@Z ; std::_Get_unwrapped<Vector2D>
	add	esp, 4
	mov	DWORD PTR __ULast$[ebp], eax

; 213  : 	const auto _UDest = _Get_unwrapped_n(_Dest, _Idl_distance<_InIt>(_UFirst, _ULast));

	lea	edx, DWORD PTR __ULast$[ebp]
	push	edx
	lea	eax, DWORD PTR __UFirst$[ebp]
	push	eax
	call	??$_Idl_distance@PAUVector2D@@PAU1@@std@@YA@ABQAUVector2D@@0@Z ; std::_Idl_distance<Vector2D *,Vector2D *>
	add	esp, 8
	push	eax
	mov	ecx, DWORD PTR __Dest$[ebp]
	push	ecx
	call	??$_Get_unwrapped_n@UVector2D@@H$0A@@std@@YAPAUVector2D@@QAU1@H@Z ; std::_Get_unwrapped_n<Vector2D,int,0>
	add	esp, 8
	mov	DWORD PTR __UDest$[ebp], eax

; 214  : 	_Seek_wrapped(_Dest,

	lea	edx, DWORD PTR __UDest$[ebp]
	push	edx
	lea	eax, DWORD PTR __UFirst$[ebp]
	push	eax
	lea	ecx, DWORD PTR $T2[ebp]
	push	ecx
	call	??$_Ptr_copy_cat@UVector2D@@U1@@std@@YA?AU_Trivially_copyable_ptr_iterator_tag@0@ABQAUVector2D@@0@Z ; std::_Ptr_copy_cat<Vector2D,Vector2D>
	add	esp, 8
	mov	ecx, esp
	lea	edx, DWORD PTR $T3[ebp]
	push	edx
	call	??$?0U?$integral_constant@_N$00@std@@@_Unused_parameter@std@@QAE@$$QAU?$integral_constant@_N$00@1@@Z ; std::_Unused_parameter::_Unused_parameter<std::integral_constant<bool,1> >
	movzx	eax, BYTE PTR $T1[ebp]
	push	eax
	mov	ecx, DWORD PTR __Al$[ebp]
	push	ecx
	mov	edx, DWORD PTR __UDest$[ebp]
	push	edx
	mov	eax, DWORD PTR __ULast$[ebp]
	push	eax
	mov	ecx, DWORD PTR __UFirst$[ebp]
	push	ecx
	call	??$_Uninitialized_copy_al_unchecked@PAUVector2D@@PAU1@V?$allocator@UVector2D@@@std@@@std@@YAPAUVector2D@@PAU1@QAU1@1AAV?$allocator@UVector2D@@@0@U_General_ptr_iterator_tag@0@U_Unused_parameter@0@@Z ; std::_Uninitialized_copy_al_unchecked<Vector2D *,Vector2D *,std::allocator<Vector2D> >
	add	esp, 24					; 00000018H
	push	eax
	lea	edx, DWORD PTR __Dest$[ebp]
	push	edx
	call	??$_Seek_wrapped@UVector2D@@@std@@YAXAAPAUVector2D@@QAU1@@Z ; std::_Seek_wrapped<Vector2D>
	add	esp, 8

; 215  : 		_Uninitialized_copy_al_unchecked(_UFirst, _ULast, _UDest, _Al,
; 216  : 			_Ptr_copy_cat(_UFirst, _UDest),
; 217  : 			_Uses_default_construct_t<_Alloc, decltype(_Unfancy(_UDest)), decltype(*_UFirst)>()));
; 218  : 
; 219  : 	return (_Dest);

	mov	eax, DWORD PTR __Dest$[ebp]

; 220  : 	}

	push	edx
	mov	ecx, ebp
	push	eax
	lea	edx, DWORD PTR $LN7@Uninitiali
	call	@_RTC_CheckStackVars@8
	pop	eax
	pop	edx
	pop	edi
	add	esp, 44					; 0000002cH
	cmp	ebp, esp
	call	__RTC_CheckEsp
	mov	esp, ebp
	pop	ebp
	ret	0
$LN7@Uninitiali:
	DD	3
	DD	$LN6@Uninitiali
$LN6@Uninitiali:
	DD	-8					; fffffff8H
	DD	4
	DD	$LN3@Uninitiali
	DD	-20					; ffffffecH
	DD	4
	DD	$LN4@Uninitiali
	DD	-32					; ffffffe0H
	DD	4
	DD	$LN5@Uninitiali
$LN5@Uninitiali:
	DB	95					; 0000005fH
	DB	85					; 00000055H
	DB	68					; 00000044H
	DB	101					; 00000065H
	DB	115					; 00000073H
	DB	116					; 00000074H
	DB	0
$LN4@Uninitiali:
	DB	95					; 0000005fH
	DB	85					; 00000055H
	DB	76					; 0000004cH
	DB	97					; 00000061H
	DB	115					; 00000073H
	DB	116					; 00000074H
	DB	0
$LN3@Uninitiali:
	DB	95					; 0000005fH
	DB	85					; 00000055H
	DB	70					; 00000046H
	DB	105					; 00000069H
	DB	114					; 00000072H
	DB	115					; 00000073H
	DB	116					; 00000074H
	DB	0
??$_Uninitialized_copy@PAUVector2D@@PAU1@V?$allocator@UVector2D@@@std@@@std@@YAPAUVector2D@@QAU1@0PAU1@AAV?$allocator@UVector2D@@@0@@Z ENDP ; std::_Uninitialized_copy<Vector2D *,Vector2D *,std::allocator<Vector2D> >
_TEXT	ENDS
; Function compile flags: /Odtp /RTCsu
; File c:\program files (x86)\microsoft visual studio\2017\enterprise\vc\tools\msvc\14.15.26726\include\xutility
;	COMDAT ??$?0V?$allocator@UVector2D@@@std@@$$V@?$_Compressed_pair@V?$allocator@UVector2D@@@std@@V?$_Vector_val@U?$_Simple_types@UVector2D@@@std@@@2@$00@std@@QAE@U_One_then_variadic_args_t@1@$$QAV?$allocator@UVector2D@@@1@@Z
_TEXT	SEGMENT
_this$ = -4						; size = 4
___formal$ = 8						; size = 1
__Val1$ = 12						; size = 4
??$?0V?$allocator@UVector2D@@@std@@$$V@?$_Compressed_pair@V?$allocator@UVector2D@@@std@@V?$_Vector_val@U?$_Simple_types@UVector2D@@@std@@@2@$00@std@@QAE@U_One_then_variadic_args_t@1@$$QAV?$allocator@UVector2D@@@1@@Z PROC ; std::_Compressed_pair<std::allocator<Vector2D>,std::_Vector_val<std::_Simple_types<Vector2D> >,1>::_Compressed_pair<std::allocator<Vector2D>,std::_Vector_val<std::_Simple_types<Vector2D> >,1><std::allocator<Vector2D> >, COMDAT
; _this$ = ecx

; 287  : 		{	// construct from forwarded values

	push	ebp
	mov	ebp, esp
	push	ecx
	mov	DWORD PTR [ebp-4], -858993460		; ccccccccH
	mov	DWORD PTR _this$[ebp], ecx

; 285  : 		: _Ty1(_STD forward<_Other1>(_Val1)),

	mov	eax, DWORD PTR __Val1$[ebp]
	push	eax
	call	??$forward@V?$allocator@UVector2D@@@std@@@std@@YA$$QAV?$allocator@UVector2D@@@0@AAV10@@Z ; std::forward<std::allocator<Vector2D> >
	add	esp, 4

; 286  : 			_Myval2(_STD forward<_Other2>(_Val2)...)

	mov	ecx, DWORD PTR _this$[ebp]
	call	??0?$_Vector_val@U?$_Simple_types@UVector2D@@@std@@@std@@QAE@XZ ; std::_Vector_val<std::_Simple_types<Vector2D> >::_Vector_val<std::_Simple_types<Vector2D> >

; 288  : 		}

	mov	eax, DWORD PTR _this$[ebp]
	add	esp, 4
	cmp	ebp, esp
	call	__RTC_CheckEsp
	mov	esp, ebp
	pop	ebp
	ret	8
??$?0V?$allocator@UVector2D@@@std@@$$V@?$_Compressed_pair@V?$allocator@UVector2D@@@std@@V?$_Vector_val@U?$_Simple_types@UVector2D@@@std@@@2@$00@std@@QAE@U_One_then_variadic_args_t@1@$$QAV?$allocator@UVector2D@@@1@@Z ENDP ; std::_Compressed_pair<std::allocator<Vector2D>,std::_Vector_val<std::_Simple_types<Vector2D> >,1>::_Compressed_pair<std::allocator<Vector2D>,std::_Vector_val<std::_Simple_types<Vector2D> >,1><std::allocator<Vector2D> >
_TEXT	ENDS
; Function compile flags: /Odtp /RTCsu
; File c:\program files (x86)\microsoft visual studio\2017\enterprise\vc\tools\msvc\14.15.26726\include\type_traits
;	COMDAT ??$forward@V?$allocator@UVector2D@@@std@@@std@@YA$$QAV?$allocator@UVector2D@@@0@AAV10@@Z
_TEXT	SEGMENT
__Arg$ = 8						; size = 4
??$forward@V?$allocator@UVector2D@@@std@@@std@@YA$$QAV?$allocator@UVector2D@@@0@AAV10@@Z PROC ; std::forward<std::allocator<Vector2D> >, COMDAT

; 1573 : 	{	// forward an lvalue as either an lvalue or an rvalue

	push	ebp
	mov	ebp, esp

; 1574 : 	return (static_cast<_Ty&&>(_Arg));

	mov	eax, DWORD PTR __Arg$[ebp]

; 1575 : 	}

	pop	ebp
	ret	0
??$forward@V?$allocator@UVector2D@@@std@@@std@@YA$$QAV?$allocator@UVector2D@@@0@AAV10@@Z ENDP ; std::forward<std::allocator<Vector2D> >
_TEXT	ENDS
; Function compile flags: /Odtp /RTCsu
; File c:\program files (x86)\microsoft visual studio\2017\enterprise\vc\tools\msvc\14.15.26726\include\list
;	COMDAT ??$_Buynode@UWeaponRecord@WeaponMarkers@@@?$_List_buy@UWeaponRecord@WeaponMarkers@@V?$allocator@UWeaponRecord@WeaponMarkers@@@std@@@std@@QAEPAU?$_List_node@UWeaponRecord@WeaponMarkers@@PAX@1@PAU21@0$$QAUWeaponRecord@WeaponMarkers@@@Z
_TEXT	SEGMENT
__Al$ = -28						; size = 4
__Pnode$ = -24						; size = 4
_this$ = -20						; size = 4
__$EHRec$ = -16						; size = 16
__Next$ = 8						; size = 4
__Prev$ = 12						; size = 4
_<_Val_0>$ = 16						; size = 4
??$_Buynode@UWeaponRecord@WeaponMarkers@@@?$_List_buy@UWeaponRecord@WeaponMarkers@@V?$allocator@UWeaponRecord@WeaponMarkers@@@std@@@std@@QAEPAU?$_List_node@UWeaponRecord@WeaponMarkers@@PAX@1@PAU21@0$$QAUWeaponRecord@WeaponMarkers@@@Z PROC ; std::_List_buy<WeaponMarkers::WeaponRecord,std::allocator<WeaponMarkers::WeaponRecord> >::_Buynode<WeaponMarkers::WeaponRecord>, COMDAT
; _this$ = ecx

; 711  : 		{	// allocate a node and set links and value

	push	ebp
	mov	ebp, esp
	push	-1
	push	__ehhandler$??$_Buynode@UWeaponRecord@WeaponMarkers@@@?$_List_buy@UWeaponRecord@WeaponMarkers@@V?$allocator@UWeaponRecord@WeaponMarkers@@@std@@@std@@QAEPAU?$_List_node@UWeaponRecord@WeaponMarkers@@PAX@1@PAU21@0$$QAUWeaponRecord@WeaponMarkers@@@Z
	mov	eax, DWORD PTR fs:0
	push	eax
	push	ecx
	sub	esp, 12					; 0000000cH
	push	ebx
	push	esi
	push	edi
	mov	DWORD PTR [ebp-28], -858993460		; ccccccccH
	mov	DWORD PTR [ebp-24], -858993460		; ccccccccH
	mov	DWORD PTR [ebp-20], -858993460		; ccccccccH
	mov	eax, DWORD PTR ___security_cookie
	xor	eax, ebp
	push	eax
	lea	eax, DWORD PTR __$EHRec$[ebp+4]
	mov	DWORD PTR fs:0, eax
	mov	DWORD PTR __$EHRec$[ebp], esp
	mov	DWORD PTR _this$[ebp], ecx

; 712  : 		_Nodeptr _Pnode = this->_Buynode0(_Next, _Prev);

	mov	eax, DWORD PTR __Prev$[ebp]
	push	eax
	mov	ecx, DWORD PTR __Next$[ebp]
	push	ecx
	mov	ecx, DWORD PTR _this$[ebp]
	call	?_Buynode0@?$_List_alloc@U?$_List_base_types@UWeaponRecord@WeaponMarkers@@V?$allocator@UWeaponRecord@WeaponMarkers@@@std@@@std@@@std@@QAEPAU?$_List_node@UWeaponRecord@WeaponMarkers@@PAX@2@PAU32@0@Z ; std::_List_alloc<std::_List_base_types<WeaponMarkers::WeaponRecord,std::allocator<WeaponMarkers::WeaponRecord> > >::_Buynode0
	mov	DWORD PTR __Pnode$[ebp], eax

; 713  : 		_Alnode& _Al = this->_Getal();

	mov	ecx, DWORD PTR _this$[ebp]
	call	?_Getal@?$_List_alloc@U?$_List_base_types@UWeaponRecord@WeaponMarkers@@V?$allocator@UWeaponRecord@WeaponMarkers@@@std@@@std@@@std@@QAEAAV?$allocator@U?$_List_node@UWeaponRecord@WeaponMarkers@@PAX@std@@@2@XZ ; std::_List_alloc<std::_List_base_types<WeaponMarkers::WeaponRecord,std::allocator<WeaponMarkers::WeaponRecord> > >::_Getal
	mov	DWORD PTR __Al$[ebp], eax

; 714  : 
; 715  : 		_TRY_BEGIN

	mov	DWORD PTR __$EHRec$[ebp+12], 0

; 716  : 		_Alnode_traits::construct(_Al,

	mov	edx, DWORD PTR _<_Val_0>$[ebp]
	push	edx
	call	??$forward@UWeaponRecord@WeaponMarkers@@@std@@YA$$QAUWeaponRecord@WeaponMarkers@@AAU12@@Z ; std::forward<WeaponMarkers::WeaponRecord>
	add	esp, 4
	push	eax
	mov	eax, DWORD PTR __Pnode$[ebp]
	add	eax, 8
	push	eax
	call	??$addressof@UWeaponRecord@WeaponMarkers@@@std@@YAPAUWeaponRecord@WeaponMarkers@@AAU12@@Z ; std::addressof<WeaponMarkers::WeaponRecord>
	add	esp, 4
	push	eax
	mov	ecx, DWORD PTR __Al$[ebp]
	push	ecx
	call	??$construct@UWeaponRecord@WeaponMarkers@@U12@@?$_Default_allocator_traits@V?$allocator@U?$_List_node@UWeaponRecord@WeaponMarkers@@PAX@std@@@std@@@std@@SAXAAV?$allocator@U?$_List_node@UWeaponRecord@WeaponMarkers@@PAX@std@@@1@QAUWeaponRecord@WeaponMarkers@@$$QAU34@@Z ; std::_Default_allocator_traits<std::allocator<std::_List_node<WeaponMarkers::WeaponRecord,void *> > >::construct<WeaponMarkers::WeaponRecord,WeaponMarkers::WeaponRecord>
	add	esp, 12					; 0000000cH
	jmp	SHORT $LN4@Buynode
__catch$??$_Buynode@UWeaponRecord@WeaponMarkers@@@?$_List_buy@UWeaponRecord@WeaponMarkers@@V?$allocator@UWeaponRecord@WeaponMarkers@@@std@@@std@@QAEPAU?$_List_node@UWeaponRecord@WeaponMarkers@@PAX@1@PAU21@0$$QAUWeaponRecord@WeaponMarkers@@@Z$0:

; 717  : 			_STD addressof(_Pnode->_Myval),
; 718  : 			_STD forward<_Valty>(_Val)...);
; 719  : 		_CATCH_ALL
; 720  : 		_Al.deallocate(_Pnode, 1);

	push	1
	mov	edx, DWORD PTR __Pnode$[ebp]
	push	edx
	mov	ecx, DWORD PTR __Al$[ebp]
	call	?deallocate@?$allocator@U?$_List_node@UWeaponRecord@WeaponMarkers@@PAX@std@@@std@@QAEXQAU?$_List_node@UWeaponRecord@WeaponMarkers@@PAX@2@I@Z ; std::allocator<std::_List_node<WeaponMarkers::WeaponRecord,void *> >::deallocate

; 721  : 		_RERAISE;

	push	0
	push	0
	call	__CxxThrowException@8

; 722  : 		_CATCH_END

	mov	eax, $LN7@Buynode
	ret	0
$LN4@Buynode:
	mov	DWORD PTR __$EHRec$[ebp+12], -1
	jmp	SHORT __tryend$??$_Buynode@UWeaponRecord@WeaponMarkers@@@?$_List_buy@UWeaponRecord@WeaponMarkers@@V?$allocator@UWeaponRecord@WeaponMarkers@@@std@@@std@@QAEPAU?$_List_node@UWeaponRecord@WeaponMarkers@@PAX@1@PAU21@0$$QAUWeaponRecord@WeaponMarkers@@@Z$1
$LN7@Buynode:
	mov	DWORD PTR __$EHRec$[ebp+12], -1
__tryend$??$_Buynode@UWeaponRecord@WeaponMarkers@@@?$_List_buy@UWeaponRecord@WeaponMarkers@@V?$allocator@UWeaponRecord@WeaponMarkers@@@std@@@std@@QAEPAU?$_List_node@UWeaponRecord@WeaponMarkers@@PAX@1@PAU21@0$$QAUWeaponRecord@WeaponMarkers@@@Z$1:

; 723  : 
; 724  : 		return (_Pnode);

	mov	eax, DWORD PTR __Pnode$[ebp]
$LN3@Buynode:

; 725  : 		}

	mov	ecx, DWORD PTR __$EHRec$[ebp+4]
	mov	DWORD PTR fs:0, ecx
	pop	ecx
	pop	edi
	pop	esi
	pop	ebx
	add	esp, 28					; 0000001cH
	cmp	ebp, esp
	call	__RTC_CheckEsp
	mov	esp, ebp
	pop	ebp
	ret	12					; 0000000cH
_TEXT	ENDS
;	COMDAT text$x
text$x	SEGMENT
__ehhandler$??$_Buynode@UWeaponRecord@WeaponMarkers@@@?$_List_buy@UWeaponRecord@WeaponMarkers@@V?$allocator@UWeaponRecord@WeaponMarkers@@@std@@@std@@QAEPAU?$_List_node@UWeaponRecord@WeaponMarkers@@PAX@1@PAU21@0$$QAUWeaponRecord@WeaponMarkers@@@Z:
	mov	edx, DWORD PTR [esp+8]
	lea	eax, DWORD PTR [edx+12]
	mov	ecx, DWORD PTR [edx-32]
	xor	ecx, eax
	call	@__security_check_cookie@4
	mov	eax, OFFSET __ehfuncinfo$??$_Buynode@UWeaponRecord@WeaponMarkers@@@?$_List_buy@UWeaponRecord@WeaponMarkers@@V?$allocator@UWeaponRecord@WeaponMarkers@@@std@@@std@@QAEPAU?$_List_node@UWeaponRecord@WeaponMarkers@@PAX@1@PAU21@0$$QAUWeaponRecord@WeaponMarkers@@@Z
	jmp	___CxxFrameHandler3
text$x	ENDS
??$_Buynode@UWeaponRecord@WeaponMarkers@@@?$_List_buy@UWeaponRecord@WeaponMarkers@@V?$allocator@UWeaponRecord@WeaponMarkers@@@std@@@std@@QAEPAU?$_List_node@UWeaponRecord@WeaponMarkers@@PAX@1@PAU21@0$$QAUWeaponRecord@WeaponMarkers@@@Z ENDP ; std::_List_buy<WeaponMarkers::WeaponRecord,std::allocator<WeaponMarkers::WeaponRecord> >::_Buynode<WeaponMarkers::WeaponRecord>
; Function compile flags: /Odtp /RTCsu
; File c:\program files (x86)\microsoft visual studio\2017\enterprise\vc\tools\msvc\14.15.26726\include\type_traits
;	COMDAT ??$forward@UWeaponRecord@WeaponMarkers@@@std@@YA$$QAUWeaponRecord@WeaponMarkers@@AAU12@@Z
_TEXT	SEGMENT
__Arg$ = 8						; size = 4
??$forward@UWeaponRecord@WeaponMarkers@@@std@@YA$$QAUWeaponRecord@WeaponMarkers@@AAU12@@Z PROC ; std::forward<WeaponMarkers::WeaponRecord>, COMDAT

; 1573 : 	{	// forward an lvalue as either an lvalue or an rvalue

	push	ebp
	mov	ebp, esp

; 1574 : 	return (static_cast<_Ty&&>(_Arg));

	mov	eax, DWORD PTR __Arg$[ebp]

; 1575 : 	}

	pop	ebp
	ret	0
??$forward@UWeaponRecord@WeaponMarkers@@@std@@YA$$QAUWeaponRecord@WeaponMarkers@@AAU12@@Z ENDP ; std::forward<WeaponMarkers::WeaponRecord>
_TEXT	ENDS
; Function compile flags: /Odtp /RTCsu
; File c:\program files (x86)\microsoft visual studio\2017\enterprise\vc\tools\msvc\14.15.26726\include\xmemory0
;	COMDAT ??$_Get_size_of_n@$0CA@@std@@YAII@Z
_TEXT	SEGMENT
__Result$ = -8						; size = 4
__Max_possible$ = -4					; size = 4
__Count$ = 8						; size = 4
??$_Get_size_of_n@$0CA@@std@@YAII@Z PROC		; std::_Get_size_of_n<32>, COMDAT

; 23   : 	{	// gets the size of _Count copies of a type sized _Ty_size

	push	ebp
	mov	ebp, esp
	sub	esp, 8
	mov	DWORD PTR [ebp-8], -858993460		; ccccccccH
	mov	DWORD PTR [ebp-4], -858993460		; ccccccccH

; 24   : 	constexpr size_t _Max_possible = static_cast<size_t>(-1) / _Ty_size;

	mov	DWORD PTR __Max_possible$[ebp], 134217727 ; 07ffffffH

; 25   : 	size_t _Result = _Count * _Ty_size;

	mov	eax, DWORD PTR __Count$[ebp]
	shl	eax, 5
	mov	DWORD PTR __Result$[ebp], eax

; 26   : 	if (_Max_possible < _Count)

	cmp	DWORD PTR __Count$[ebp], 134217727	; 07ffffffH
	jbe	SHORT $LN2@Get_size_o

; 27   : 		{	// multiply overflow, try allocating all of memory and assume the
; 28   : 			// allocation function will throw bad_alloc
; 29   : 		_Result = static_cast<size_t>(-1);

	mov	DWORD PTR __Result$[ebp], -1
$LN2@Get_size_o:

; 30   : 		}
; 31   : 
; 32   : 	return (_Result);

	mov	eax, DWORD PTR __Result$[ebp]

; 33   : 	}

	mov	esp, ebp
	pop	ebp
	ret	0
??$_Get_size_of_n@$0CA@@std@@YAII@Z ENDP		; std::_Get_size_of_n<32>
_TEXT	ENDS
; Function compile flags: /Odtp /RTCsu
; File c:\program files (x86)\microsoft visual studio\2017\enterprise\vc\tools\msvc\14.15.26726\include\xmemory0
;	COMDAT ??$construct@PAU?$_List_node@UWeaponRecord@WeaponMarkers@@PAX@std@@AAPAU12@@?$_Default_allocator_traits@V?$allocator@U?$_List_node@UWeaponRecord@WeaponMarkers@@PAX@std@@@std@@@std@@SAXAAV?$allocator@U?$_List_node@UWeaponRecord@WeaponMarkers@@PAX@std@@@1@QAPAU?$_List_node@UWeaponRecord@WeaponMarkers@@PAX@1@AAPAU31@@Z
_TEXT	SEGMENT
$T1 = -4						; size = 4
___formal$ = 8						; size = 4
__Ptr$ = 12						; size = 4
_<_Args_0>$ = 16					; size = 4
??$construct@PAU?$_List_node@UWeaponRecord@WeaponMarkers@@PAX@std@@AAPAU12@@?$_Default_allocator_traits@V?$allocator@U?$_List_node@UWeaponRecord@WeaponMarkers@@PAX@std@@@std@@@std@@SAXAAV?$allocator@U?$_List_node@UWeaponRecord@WeaponMarkers@@PAX@std@@@1@QAPAU?$_List_node@UWeaponRecord@WeaponMarkers@@PAX@1@AAPAU31@@Z PROC ; std::_Default_allocator_traits<std::allocator<std::_List_node<WeaponMarkers::WeaponRecord,void *> > >::construct<std::_List_node<WeaponMarkers::WeaponRecord,void *> *,std::_List_node<WeaponMarkers::WeaponRecord,void *> * &>, COMDAT

; 879  : 		{	// construct _Objty(_Types...) at _Ptr

	push	ebp
	mov	ebp, esp
	push	ecx
	mov	DWORD PTR [ebp-4], -858993460		; ccccccccH

; 880  : 		::new (const_cast<void *>(static_cast<const volatile void *>(_Ptr)))

	mov	eax, DWORD PTR __Ptr$[ebp]
	push	eax
	push	4
	call	??2@YAPAXIPAX@Z				; operator new
	add	esp, 8
	mov	DWORD PTR $T1[ebp], eax
	mov	ecx, DWORD PTR _<_Args_0>$[ebp]
	push	ecx
	call	??$forward@AAPAU?$_List_node@UWeaponRecord@WeaponMarkers@@PAX@std@@@std@@YAAAPAU?$_List_node@UWeaponRecord@WeaponMarkers@@PAX@0@AAPAU10@@Z ; std::forward<std::_List_node<WeaponMarkers::WeaponRecord,void *> * &>
	add	esp, 4
	mov	edx, DWORD PTR $T1[ebp]
	mov	eax, DWORD PTR [eax]
	mov	DWORD PTR [edx], eax

; 881  : 			_Objty(_STD forward<_Types>(_Args)...);
; 882  : 		}

	add	esp, 4
	cmp	ebp, esp
	call	__RTC_CheckEsp
	mov	esp, ebp
	pop	ebp
	ret	0
??$construct@PAU?$_List_node@UWeaponRecord@WeaponMarkers@@PAX@std@@AAPAU12@@?$_Default_allocator_traits@V?$allocator@U?$_List_node@UWeaponRecord@WeaponMarkers@@PAX@std@@@std@@@std@@SAXAAV?$allocator@U?$_List_node@UWeaponRecord@WeaponMarkers@@PAX@std@@@1@QAPAU?$_List_node@UWeaponRecord@WeaponMarkers@@PAX@1@AAPAU31@@Z ENDP ; std::_Default_allocator_traits<std::allocator<std::_List_node<WeaponMarkers::WeaponRecord,void *> > >::construct<std::_List_node<WeaponMarkers::WeaponRecord,void *> *,std::_List_node<WeaponMarkers::WeaponRecord,void *> * &>
_TEXT	ENDS
; Function compile flags: /Odtp /RTCsu
; File c:\program files (x86)\microsoft visual studio\2017\enterprise\vc\tools\msvc\14.15.26726\include\xstddef
;	COMDAT ??$addressof@PAU?$_List_node@UWeaponRecord@WeaponMarkers@@PAX@std@@@std@@YAPAPAU?$_List_node@UWeaponRecord@WeaponMarkers@@PAX@0@AAPAU10@@Z
_TEXT	SEGMENT
__Val$ = 8						; size = 4
??$addressof@PAU?$_List_node@UWeaponRecord@WeaponMarkers@@PAX@std@@@std@@YAPAPAU?$_List_node@UWeaponRecord@WeaponMarkers@@PAX@0@AAPAU10@@Z PROC ; std::addressof<std::_List_node<WeaponMarkers::WeaponRecord,void *> *>, COMDAT

; 329  : 	{	// return address of _Val

	push	ebp
	mov	ebp, esp

; 330  : 	return (__builtin_addressof(_Val));

	mov	eax, DWORD PTR __Val$[ebp]

; 331  : 	}

	pop	ebp
	ret	0
??$addressof@PAU?$_List_node@UWeaponRecord@WeaponMarkers@@PAX@std@@@std@@YAPAPAU?$_List_node@UWeaponRecord@WeaponMarkers@@PAX@0@AAPAU10@@Z ENDP ; std::addressof<std::_List_node<WeaponMarkers::WeaponRecord,void *> *>
_TEXT	ENDS
; Function compile flags: /Odtp /RTCsu
; File c:\program files (x86)\microsoft visual studio\2017\enterprise\vc\tools\msvc\14.15.26726\include\xmemory0
;	COMDAT ??$_Get_size_of_n@$07@std@@YAII@Z
_TEXT	SEGMENT
__Result$ = -8						; size = 4
__Max_possible$ = -4					; size = 4
__Count$ = 8						; size = 4
??$_Get_size_of_n@$07@std@@YAII@Z PROC			; std::_Get_size_of_n<8>, COMDAT

; 23   : 	{	// gets the size of _Count copies of a type sized _Ty_size

	push	ebp
	mov	ebp, esp
	sub	esp, 8
	mov	DWORD PTR [ebp-8], -858993460		; ccccccccH
	mov	DWORD PTR [ebp-4], -858993460		; ccccccccH

; 24   : 	constexpr size_t _Max_possible = static_cast<size_t>(-1) / _Ty_size;

	mov	DWORD PTR __Max_possible$[ebp], 536870911 ; 1fffffffH

; 25   : 	size_t _Result = _Count * _Ty_size;

	mov	eax, DWORD PTR __Count$[ebp]
	shl	eax, 3
	mov	DWORD PTR __Result$[ebp], eax

; 26   : 	if (_Max_possible < _Count)

	cmp	DWORD PTR __Count$[ebp], 536870911	; 1fffffffH
	jbe	SHORT $LN2@Get_size_o

; 27   : 		{	// multiply overflow, try allocating all of memory and assume the
; 28   : 			// allocation function will throw bad_alloc
; 29   : 		_Result = static_cast<size_t>(-1);

	mov	DWORD PTR __Result$[ebp], -1
$LN2@Get_size_o:

; 30   : 		}
; 31   : 
; 32   : 	return (_Result);

	mov	eax, DWORD PTR __Result$[ebp]

; 33   : 	}

	mov	esp, ebp
	pop	ebp
	ret	0
??$_Get_size_of_n@$07@std@@YAII@Z ENDP			; std::_Get_size_of_n<8>
_TEXT	ENDS
; Function compile flags: /Odtp /RTCsu
; File c:\program files (x86)\microsoft visual studio\2017\enterprise\vc\tools\msvc\14.15.26726\include\xmemory0
;	COMDAT ??$destroy@UWeaponRecord@WeaponMarkers@@@?$_Default_allocator_traits@V?$allocator@U?$_List_node@UWeaponRecord@WeaponMarkers@@PAX@std@@@std@@@std@@SAXAAV?$allocator@U?$_List_node@UWeaponRecord@WeaponMarkers@@PAX@std@@@1@QAUWeaponRecord@WeaponMarkers@@@Z
_TEXT	SEGMENT
___formal$ = 8						; size = 4
__Ptr$ = 12						; size = 4
??$destroy@UWeaponRecord@WeaponMarkers@@@?$_Default_allocator_traits@V?$allocator@U?$_List_node@UWeaponRecord@WeaponMarkers@@PAX@std@@@std@@@std@@SAXAAV?$allocator@U?$_List_node@UWeaponRecord@WeaponMarkers@@PAX@std@@@1@QAUWeaponRecord@WeaponMarkers@@@Z PROC ; std::_Default_allocator_traits<std::allocator<std::_List_node<WeaponMarkers::WeaponRecord,void *> > >::destroy<WeaponMarkers::WeaponRecord>, COMDAT

; 886  : 		{	// destroy object at _Ptr

	push	ebp
	mov	ebp, esp

; 887  : 		_Ptr->~_Uty();
; 888  : 		}

	pop	ebp
	ret	0
??$destroy@UWeaponRecord@WeaponMarkers@@@?$_Default_allocator_traits@V?$allocator@U?$_List_node@UWeaponRecord@WeaponMarkers@@PAX@std@@@std@@@std@@SAXAAV?$allocator@U?$_List_node@UWeaponRecord@WeaponMarkers@@PAX@std@@@1@QAUWeaponRecord@WeaponMarkers@@@Z ENDP ; std::_Default_allocator_traits<std::allocator<std::_List_node<WeaponMarkers::WeaponRecord,void *> > >::destroy<WeaponMarkers::WeaponRecord>
_TEXT	ENDS
; Function compile flags: /Odtp /RTCsu
; File c:\program files (x86)\microsoft visual studio\2017\enterprise\vc\tools\msvc\14.15.26726\include\xmemory0
;	COMDAT ??$_Get_size_of_n@$0BA@@std@@YAII@Z
_TEXT	SEGMENT
__Result$ = -8						; size = 4
__Max_possible$ = -4					; size = 4
__Count$ = 8						; size = 4
??$_Get_size_of_n@$0BA@@std@@YAII@Z PROC		; std::_Get_size_of_n<16>, COMDAT

; 23   : 	{	// gets the size of _Count copies of a type sized _Ty_size

	push	ebp
	mov	ebp, esp
	sub	esp, 8
	mov	DWORD PTR [ebp-8], -858993460		; ccccccccH
	mov	DWORD PTR [ebp-4], -858993460		; ccccccccH

; 24   : 	constexpr size_t _Max_possible = static_cast<size_t>(-1) / _Ty_size;

	mov	DWORD PTR __Max_possible$[ebp], 268435455 ; 0fffffffH

; 25   : 	size_t _Result = _Count * _Ty_size;

	mov	eax, DWORD PTR __Count$[ebp]
	shl	eax, 4
	mov	DWORD PTR __Result$[ebp], eax

; 26   : 	if (_Max_possible < _Count)

	cmp	DWORD PTR __Count$[ebp], 268435455	; 0fffffffH
	jbe	SHORT $LN2@Get_size_o

; 27   : 		{	// multiply overflow, try allocating all of memory and assume the
; 28   : 			// allocation function will throw bad_alloc
; 29   : 		_Result = static_cast<size_t>(-1);

	mov	DWORD PTR __Result$[ebp], -1
$LN2@Get_size_o:

; 30   : 		}
; 31   : 
; 32   : 	return (_Result);

	mov	eax, DWORD PTR __Result$[ebp]

; 33   : 	}

	mov	esp, ebp
	pop	ebp
	ret	0
??$_Get_size_of_n@$0BA@@std@@YAII@Z ENDP		; std::_Get_size_of_n<16>
_TEXT	ENDS
; Function compile flags: /Odtp /RTCsu
; File c:\program files (x86)\microsoft visual studio\2017\enterprise\vc\tools\msvc\14.15.26726\include\xmemory0
;	COMDAT ??$_Destroy_range@V?$allocator@UVector2D@@@std@@@std@@YAXPAUVector2D@@0AAV?$allocator@UVector2D@@@0@@Z
_TEXT	SEGMENT
$T1 = -1						; size = 1
__First$ = 8						; size = 4
__Last$ = 12						; size = 4
__Al$ = 16						; size = 4
??$_Destroy_range@V?$allocator@UVector2D@@@std@@@std@@YAXPAUVector2D@@0AAV?$allocator@UVector2D@@@0@@Z PROC ; std::_Destroy_range<std::allocator<Vector2D> >, COMDAT

; 1154 : 	{	// destroy [_First, _Last), choose optimization

	push	ebp
	mov	ebp, esp
	push	ecx
	mov	DWORD PTR [ebp-4], -858993460		; ccccccccH

; 1155 : 		// note that this is an optimization for debug mode codegen;
; 1156 : 		// in release mode the BE removes all of this
; 1157 : 	using _Val = typename _Alloc::value_type;
; 1158 : 	_Destroy_range1(_First, _Last, _Al, bool_constant<conjunction_v<

	xor	eax, eax
	mov	BYTE PTR $T1[ebp], al
	movzx	ecx, BYTE PTR $T1[ebp]
	push	ecx
	mov	edx, DWORD PTR __Al$[ebp]
	push	edx
	mov	eax, DWORD PTR __Last$[ebp]
	push	eax
	mov	ecx, DWORD PTR __First$[ebp]
	push	ecx
	call	??$_Destroy_range1@V?$allocator@UVector2D@@@std@@@std@@YAXPAUVector2D@@0AAV?$allocator@UVector2D@@@0@U?$integral_constant@_N$00@0@@Z ; std::_Destroy_range1<std::allocator<Vector2D> >
	add	esp, 16					; 00000010H

; 1159 : 		is_trivially_destructible<_Val>,
; 1160 : 		_Uses_default_destroy<_Alloc, _Val *>>>{});
; 1161 : 	}

	add	esp, 4
	cmp	ebp, esp
	call	__RTC_CheckEsp
	mov	esp, ebp
	pop	ebp
	ret	0
??$_Destroy_range@V?$allocator@UVector2D@@@std@@@std@@YAXPAUVector2D@@0AAV?$allocator@UVector2D@@@0@@Z ENDP ; std::_Destroy_range<std::allocator<Vector2D> >
_TEXT	ENDS
; Function compile flags: /Odtp /RTCsu
; File c:\program files (x86)\microsoft visual studio\2017\enterprise\vc\tools\msvc\14.15.26726\include\xstddef
;	COMDAT ??$addressof@V?$_Vector_val@U?$_Simple_types@UVector2D@@@std@@@std@@@std@@YAPAV?$_Vector_val@U?$_Simple_types@UVector2D@@@std@@@0@AAV10@@Z
_TEXT	SEGMENT
__Val$ = 8						; size = 4
??$addressof@V?$_Vector_val@U?$_Simple_types@UVector2D@@@std@@@std@@@std@@YAPAV?$_Vector_val@U?$_Simple_types@UVector2D@@@std@@@0@AAV10@@Z PROC ; std::addressof<std::_Vector_val<std::_Simple_types<Vector2D> > >, COMDAT

; 329  : 	{	// return address of _Val

	push	ebp
	mov	ebp, esp

; 330  : 	return (__builtin_addressof(_Val));

	mov	eax, DWORD PTR __Val$[ebp]

; 331  : 	}

	pop	ebp
	ret	0
??$addressof@V?$_Vector_val@U?$_Simple_types@UVector2D@@@std@@@std@@@std@@YAPAV?$_Vector_val@U?$_Simple_types@UVector2D@@@std@@@0@AAV10@@Z ENDP ; std::addressof<std::_Vector_val<std::_Simple_types<Vector2D> > >
_TEXT	ENDS
; Function compile flags: /Odtp /RTCsu
; File c:\program files (x86)\microsoft visual studio\2017\enterprise\vc\tools\msvc\14.15.26726\include\xmemory0
;	COMDAT ??$construct@U_Container_proxy@std@@U12@@?$_Default_allocator_traits@V?$allocator@U_Container_proxy@std@@@std@@@std@@SAXAAV?$allocator@U_Container_proxy@std@@@1@QAU_Container_proxy@1@$$QAU31@@Z
_TEXT	SEGMENT
$T1 = -4						; size = 4
___formal$ = 8						; size = 4
__Ptr$ = 12						; size = 4
_<_Args_0>$ = 16					; size = 4
??$construct@U_Container_proxy@std@@U12@@?$_Default_allocator_traits@V?$allocator@U_Container_proxy@std@@@std@@@std@@SAXAAV?$allocator@U_Container_proxy@std@@@1@QAU_Container_proxy@1@$$QAU31@@Z PROC ; std::_Default_allocator_traits<std::allocator<std::_Container_proxy> >::construct<std::_Container_proxy,std::_Container_proxy>, COMDAT

; 879  : 		{	// construct _Objty(_Types...) at _Ptr

	push	ebp
	mov	ebp, esp
	push	ecx
	mov	DWORD PTR [ebp-4], -858993460		; ccccccccH

; 880  : 		::new (const_cast<void *>(static_cast<const volatile void *>(_Ptr)))

	mov	eax, DWORD PTR __Ptr$[ebp]
	push	eax
	push	8
	call	??2@YAPAXIPAX@Z				; operator new
	add	esp, 8
	mov	DWORD PTR $T1[ebp], eax
	mov	ecx, DWORD PTR _<_Args_0>$[ebp]
	push	ecx
	call	??$forward@U_Container_proxy@std@@@std@@YA$$QAU_Container_proxy@0@AAU10@@Z ; std::forward<std::_Container_proxy>
	add	esp, 4
	mov	edx, DWORD PTR [eax]
	mov	eax, DWORD PTR [eax+4]
	mov	ecx, DWORD PTR $T1[ebp]
	mov	DWORD PTR [ecx], edx
	mov	DWORD PTR [ecx+4], eax

; 881  : 			_Objty(_STD forward<_Types>(_Args)...);
; 882  : 		}

	add	esp, 4
	cmp	ebp, esp
	call	__RTC_CheckEsp
	mov	esp, ebp
	pop	ebp
	ret	0
??$construct@U_Container_proxy@std@@U12@@?$_Default_allocator_traits@V?$allocator@U_Container_proxy@std@@@std@@@std@@SAXAAV?$allocator@U_Container_proxy@std@@@1@QAU_Container_proxy@1@$$QAU31@@Z ENDP ; std::_Default_allocator_traits<std::allocator<std::_Container_proxy> >::construct<std::_Container_proxy,std::_Container_proxy>
_TEXT	ENDS
; Function compile flags: /Odtp /RTCsu
; File c:\program files (x86)\microsoft visual studio\2017\enterprise\vc\tools\msvc\14.15.26726\include\xstddef
;	COMDAT ??$_Unfancy@U_Container_proxy@std@@@std@@YAPAU_Container_proxy@0@PAU10@@Z
_TEXT	SEGMENT
__Ptr$ = 8						; size = 4
??$_Unfancy@U_Container_proxy@std@@@std@@YAPAU_Container_proxy@0@PAU10@@Z PROC ; std::_Unfancy<std::_Container_proxy>, COMDAT

; 345  : 	{	// do nothing for plain pointers

	push	ebp
	mov	ebp, esp

; 346  : 	return (_Ptr);

	mov	eax, DWORD PTR __Ptr$[ebp]

; 347  : 	}

	pop	ebp
	ret	0
??$_Unfancy@U_Container_proxy@std@@@std@@YAPAU_Container_proxy@0@PAU10@@Z ENDP ; std::_Unfancy<std::_Container_proxy>
_TEXT	ENDS
; Function compile flags: /Odtp /RTCsu
; File c:\program files (x86)\microsoft visual studio\2017\enterprise\vc\tools\msvc\14.15.26726\include\xmemory0
;	COMDAT ??$?0UVector2D@@@?$allocator@U_Container_proxy@std@@@std@@QAE@ABV?$allocator@UVector2D@@@1@@Z
_TEXT	SEGMENT
_this$ = -4						; size = 4
___formal$ = 8						; size = 4
??$?0UVector2D@@@?$allocator@U_Container_proxy@std@@@std@@QAE@ABV?$allocator@UVector2D@@@1@@Z PROC ; std::allocator<std::_Container_proxy>::allocator<std::_Container_proxy><Vector2D>, COMDAT
; _this$ = ecx

; 986  : 		{	// construct from a related allocator (do nothing)

	push	ebp
	mov	ebp, esp
	push	ecx
	mov	DWORD PTR [ebp-4], -858993460		; ccccccccH
	mov	DWORD PTR _this$[ebp], ecx

; 987  : 		}

	mov	eax, DWORD PTR _this$[ebp]
	mov	esp, ebp
	pop	ebp
	ret	4
??$?0UVector2D@@@?$allocator@U_Container_proxy@std@@@std@@QAE@ABV?$allocator@UVector2D@@@1@@Z ENDP ; std::allocator<std::_Container_proxy>::allocator<std::_Container_proxy><Vector2D>
_TEXT	ENDS
; Function compile flags: /Odtp /RTCsu
; File c:\program files (x86)\microsoft visual studio\2017\enterprise\vc\tools\msvc\14.15.26726\include\xutility
;	COMDAT ??$?0$$V@?$_Compressed_pair@V?$allocator@U?$_List_node@UWeaponRecord@WeaponMarkers@@PAX@std@@@std@@V?$_List_val@U?$_List_simple_types@UWeaponRecord@WeaponMarkers@@@std@@@2@$00@std@@QAE@U_Zero_then_variadic_args_t@1@@Z
_TEXT	SEGMENT
_this$ = -4						; size = 4
___formal$ = 8						; size = 1
??$?0$$V@?$_Compressed_pair@V?$allocator@U?$_List_node@UWeaponRecord@WeaponMarkers@@PAX@std@@@std@@V?$_List_val@U?$_List_simple_types@UWeaponRecord@WeaponMarkers@@@std@@@2@$00@std@@QAE@U_Zero_then_variadic_args_t@1@@Z PROC ; std::_Compressed_pair<std::allocator<std::_List_node<WeaponMarkers::WeaponRecord,void *> >,std::_List_val<std::_List_simple_types<WeaponMarkers::WeaponRecord> >,1>::_Compressed_pair<std::allocator<std::_List_node<WeaponMarkers::WeaponRecord,void *> >,std::_List_val<std::_List_simple_types<WeaponMarkers::WeaponRecord> >,1><>, COMDAT
; _this$ = ecx

; 278  : 		{	// construct from forwarded values

	push	ebp
	mov	ebp, esp
	push	ecx
	mov	DWORD PTR [ebp-4], -858993460		; ccccccccH
	mov	DWORD PTR _this$[ebp], ecx

; 277  : 		: _Ty1(), _Myval2(_STD forward<_Other2>(_Val2)...)

	mov	ecx, DWORD PTR _this$[ebp]
	call	??0?$allocator@U?$_List_node@UWeaponRecord@WeaponMarkers@@PAX@std@@@std@@QAE@XZ ; std::allocator<std::_List_node<WeaponMarkers::WeaponRecord,void *> >::allocator<std::_List_node<WeaponMarkers::WeaponRecord,void *> >
	mov	ecx, DWORD PTR _this$[ebp]
	call	??0?$_List_val@U?$_List_simple_types@UWeaponRecord@WeaponMarkers@@@std@@@std@@QAE@XZ ; std::_List_val<std::_List_simple_types<WeaponMarkers::WeaponRecord> >::_List_val<std::_List_simple_types<WeaponMarkers::WeaponRecord> >

; 279  : 		}

	mov	eax, DWORD PTR _this$[ebp]
	add	esp, 4
	cmp	ebp, esp
	call	__RTC_CheckEsp
	mov	esp, ebp
	pop	ebp
	ret	4
??$?0$$V@?$_Compressed_pair@V?$allocator@U?$_List_node@UWeaponRecord@WeaponMarkers@@PAX@std@@@std@@V?$_List_val@U?$_List_simple_types@UWeaponRecord@WeaponMarkers@@@std@@@2@$00@std@@QAE@U_Zero_then_variadic_args_t@1@@Z ENDP ; std::_Compressed_pair<std::allocator<std::_List_node<WeaponMarkers::WeaponRecord,void *> >,std::_List_val<std::_List_simple_types<WeaponMarkers::WeaponRecord> >,1>::_Compressed_pair<std::allocator<std::_List_node<WeaponMarkers::WeaponRecord,void *> >,std::_List_val<std::_List_simple_types<WeaponMarkers::WeaponRecord> >,1><>
_TEXT	ENDS
; Function compile flags: /Odtp /RTCsu
; File c:\program files (x86)\microsoft visual studio\2017\enterprise\vc\tools\msvc\14.15.26726\include\xmemory0
;	COMDAT ??$_Deallocate_plain@V?$allocator@U_Container_proxy@std@@@std@@$0A@@std@@YAXAAV?$allocator@U_Container_proxy@std@@@0@QAU_Container_proxy@0@@Z
_TEXT	SEGMENT
__Al$ = 8						; size = 4
__Ptr$ = 12						; size = 4
??$_Deallocate_plain@V?$allocator@U_Container_proxy@std@@@std@@$0A@@std@@YAXAAV?$allocator@U_Container_proxy@std@@@0@QAU_Container_proxy@0@@Z PROC ; std::_Deallocate_plain<std::allocator<std::_Container_proxy>,0>, COMDAT

; 1212 : 	{	// deallocate a plain pointer using an allocator, non-fancy pointers special case

	push	ebp
	mov	ebp, esp

; 1213 : 	allocator_traits<_Alloc>::deallocate(_Al, _Ptr, 1);

	push	1
	mov	eax, DWORD PTR __Ptr$[ebp]
	push	eax
	mov	ecx, DWORD PTR __Al$[ebp]
	push	ecx
	call	?deallocate@?$_Default_allocator_traits@V?$allocator@U_Container_proxy@std@@@std@@@std@@SAXAAV?$allocator@U_Container_proxy@std@@@2@QAU_Container_proxy@2@I@Z ; std::_Default_allocator_traits<std::allocator<std::_Container_proxy> >::deallocate
	add	esp, 12					; 0000000cH

; 1214 : 	}

	cmp	ebp, esp
	call	__RTC_CheckEsp
	pop	ebp
	ret	0
??$_Deallocate_plain@V?$allocator@U_Container_proxy@std@@@std@@$0A@@std@@YAXAAV?$allocator@U_Container_proxy@std@@@0@QAU_Container_proxy@0@@Z ENDP ; std::_Deallocate_plain<std::allocator<std::_Container_proxy>,0>
_TEXT	ENDS
; Function compile flags: /Odtp /RTCsu
; File c:\program files (x86)\microsoft visual studio\2017\enterprise\vc\tools\msvc\14.15.26726\include\xmemory0
;	COMDAT ??$destroy@U_Container_proxy@std@@@?$_Default_allocator_traits@V?$allocator@U_Container_proxy@std@@@std@@@std@@SAXAAV?$allocator@U_Container_proxy@std@@@1@QAU_Container_proxy@1@@Z
_TEXT	SEGMENT
___formal$ = 8						; size = 4
__Ptr$ = 12						; size = 4
??$destroy@U_Container_proxy@std@@@?$_Default_allocator_traits@V?$allocator@U_Container_proxy@std@@@std@@@std@@SAXAAV?$allocator@U_Container_proxy@std@@@1@QAU_Container_proxy@1@@Z PROC ; std::_Default_allocator_traits<std::allocator<std::_Container_proxy> >::destroy<std::_Container_proxy>, COMDAT

; 886  : 		{	// destroy object at _Ptr

	push	ebp
	mov	ebp, esp

; 887  : 		_Ptr->~_Uty();
; 888  : 		}

	pop	ebp
	ret	0
??$destroy@U_Container_proxy@std@@@?$_Default_allocator_traits@V?$allocator@U_Container_proxy@std@@@std@@@std@@SAXAAV?$allocator@U_Container_proxy@std@@@1@QAU_Container_proxy@1@@Z ENDP ; std::_Default_allocator_traits<std::allocator<std::_Container_proxy> >::destroy<std::_Container_proxy>
_TEXT	ENDS
; Function compile flags: /Odtp /RTCsu
; File c:\program files (x86)\microsoft visual studio\2017\enterprise\vc\tools\msvc\14.15.26726\include\xmemory0
;	COMDAT ?deallocate@?$_Default_allocator_traits@V?$allocator@U_Container_proxy@std@@@std@@@std@@SAXAAV?$allocator@U_Container_proxy@std@@@2@QAU_Container_proxy@2@I@Z
_TEXT	SEGMENT
___formal$ = 8						; size = 4
__Ptr$ = 12						; size = 4
__Count$ = 16						; size = 4
?deallocate@?$_Default_allocator_traits@V?$allocator@U_Container_proxy@std@@@std@@@std@@SAXAAV?$allocator@U_Container_proxy@std@@@2@QAU_Container_proxy@2@I@Z PROC ; std::_Default_allocator_traits<std::allocator<std::_Container_proxy> >::deallocate, COMDAT

; 871  : 		{	// deallocate _Count elements at _Ptr

	push	ebp
	mov	ebp, esp

; 872  : 		// no overflow check on the following multiply; we assume _Allocate did that check
; 873  : 		_Deallocate<_New_alignof<value_type>>(_Ptr, sizeof(value_type) * _Count);

	mov	eax, DWORD PTR __Count$[ebp]
	shl	eax, 3
	push	eax
	mov	ecx, DWORD PTR __Ptr$[ebp]
	push	ecx
	call	??$_Deallocate@$07$0A@@std@@YAXPAXI@Z	; std::_Deallocate<8,0>
	add	esp, 8

; 874  : 		}

	cmp	ebp, esp
	call	__RTC_CheckEsp
	pop	ebp
	ret	0
?deallocate@?$_Default_allocator_traits@V?$allocator@U_Container_proxy@std@@@std@@@std@@SAXAAV?$allocator@U_Container_proxy@std@@@2@QAU_Container_proxy@2@I@Z ENDP ; std::_Default_allocator_traits<std::allocator<std::_Container_proxy> >::deallocate
_TEXT	ENDS
; Function compile flags: /Odtp /RTCsu
; File c:\program files (x86)\microsoft visual studio\2017\enterprise\vc\tools\msvc\14.15.26726\include\xmemory0
;	COMDAT ??$?0U?$_List_node@UWeaponRecord@WeaponMarkers@@PAX@std@@@?$allocator@U_Container_proxy@std@@@std@@QAE@ABV?$allocator@U?$_List_node@UWeaponRecord@WeaponMarkers@@PAX@std@@@1@@Z
_TEXT	SEGMENT
_this$ = -4						; size = 4
___formal$ = 8						; size = 4
??$?0U?$_List_node@UWeaponRecord@WeaponMarkers@@PAX@std@@@?$allocator@U_Container_proxy@std@@@std@@QAE@ABV?$allocator@U?$_List_node@UWeaponRecord@WeaponMarkers@@PAX@std@@@1@@Z PROC ; std::allocator<std::_Container_proxy>::allocator<std::_Container_proxy><std::_List_node<WeaponMarkers::WeaponRecord,void *> >, COMDAT
; _this$ = ecx

; 986  : 		{	// construct from a related allocator (do nothing)

	push	ebp
	mov	ebp, esp
	push	ecx
	mov	DWORD PTR [ebp-4], -858993460		; ccccccccH
	mov	DWORD PTR _this$[ebp], ecx

; 987  : 		}

	mov	eax, DWORD PTR _this$[ebp]
	mov	esp, ebp
	pop	ebp
	ret	4
??$?0U?$_List_node@UWeaponRecord@WeaponMarkers@@PAX@std@@@?$allocator@U_Container_proxy@std@@@std@@QAE@ABV?$allocator@U?$_List_node@UWeaponRecord@WeaponMarkers@@PAX@std@@@1@@Z ENDP ; std::allocator<std::_Container_proxy>::allocator<std::_Container_proxy><std::_List_node<WeaponMarkers::WeaponRecord,void *> >
_TEXT	ENDS
; Function compile flags: /Odtp /RTCsu
; File c:\program files (x86)\microsoft visual studio\2017\enterprise\vc\tools\msvc\14.15.26726\include\xmemory0
;	COMDAT ?allocate@?$allocator@U_Container_proxy@std@@@std@@QAEPAU_Container_proxy@2@I@Z
_TEXT	SEGMENT
_this$ = -4						; size = 4
__Count$ = 8						; size = 4
?allocate@?$allocator@U_Container_proxy@std@@@std@@QAEPAU_Container_proxy@2@I@Z PROC ; std::allocator<std::_Container_proxy>::allocate, COMDAT
; _this$ = ecx

; 996  : 		{	// allocate array of _Count elements

	push	ebp
	mov	ebp, esp
	push	ecx
	mov	DWORD PTR [ebp-4], -858993460		; ccccccccH
	mov	DWORD PTR _this$[ebp], ecx

; 997  : 		return (static_cast<_Ty *>(_Allocate<_New_alignof<_Ty>>(_Get_size_of_n<sizeof(_Ty)>(_Count))));

	mov	eax, DWORD PTR __Count$[ebp]
	push	eax
	call	??$_Get_size_of_n@$07@std@@YAII@Z	; std::_Get_size_of_n<8>
	add	esp, 4
	push	eax
	call	??$_Allocate@$07U_Default_allocate_traits@std@@$0A@@std@@YAPAXI@Z ; std::_Allocate<8,std::_Default_allocate_traits,0>
	add	esp, 4

; 998  : 		}

	add	esp, 4
	cmp	ebp, esp
	call	__RTC_CheckEsp
	mov	esp, ebp
	pop	ebp
	ret	4
?allocate@?$allocator@U_Container_proxy@std@@@std@@QAEPAU_Container_proxy@2@I@Z ENDP ; std::allocator<std::_Container_proxy>::allocate
_TEXT	ENDS
; Function compile flags: /Odtp /RTCsu
; File c:\program files (x86)\microsoft visual studio\2017\enterprise\vc\tools\msvc\14.15.26726\include\list
;	COMDAT ??$_Freenode0@V?$allocator@U?$_List_node@UWeaponRecord@WeaponMarkers@@PAX@std@@@std@@@?$_List_node@UWeaponRecord@WeaponMarkers@@PAX@std@@SAXAAV?$allocator@U?$_List_node@UWeaponRecord@WeaponMarkers@@PAX@std@@@1@PAU01@@Z
_TEXT	SEGMENT
__Node_alloc$ = -17					; size = 1
__$EHRec$ = -12						; size = 12
__Al$ = 8						; size = 4
__Ptr$ = 12						; size = 4
??$_Freenode0@V?$allocator@U?$_List_node@UWeaponRecord@WeaponMarkers@@PAX@std@@@std@@@?$_List_node@UWeaponRecord@WeaponMarkers@@PAX@std@@SAXAAV?$allocator@U?$_List_node@UWeaponRecord@WeaponMarkers@@PAX@std@@@1@PAU01@@Z PROC ; std::_List_node<WeaponMarkers::WeaponRecord,void *>::_Freenode0<std::allocator<std::_List_node<WeaponMarkers::WeaponRecord,void *> > >, COMDAT

; 368  : 			{

	push	ebp
	mov	ebp, esp
	push	-1
	push	__ehhandler$??$_Freenode0@V?$allocator@U?$_List_node@UWeaponRecord@WeaponMarkers@@PAX@std@@@std@@@?$_List_node@UWeaponRecord@WeaponMarkers@@PAX@std@@SAXAAV?$allocator@U?$_List_node@UWeaponRecord@WeaponMarkers@@PAX@std@@@1@PAU01@@Z
	mov	eax, DWORD PTR fs:0
	push	eax
	sub	esp, 12					; 0000000cH
	mov	DWORD PTR [ebp-24], -858993460		; ccccccccH
	mov	DWORD PTR [ebp-20], -858993460		; ccccccccH
	mov	DWORD PTR [ebp-16], -858993460		; ccccccccH
	mov	eax, DWORD PTR ___security_cookie
	xor	eax, ebp
	push	eax
	lea	eax, DWORD PTR __$EHRec$[ebp]
	mov	DWORD PTR fs:0, eax

; 369  : 			using _Alnode = _Rebind_alloc_t<_Alloc, _List_node>;
; 370  : 			using _Alnode_traits = allocator_traits<_Alnode>;
; 371  : 			_Alnode _Node_alloc(_Al);
; 372  : 			_Alnode_traits::destroy(_Node_alloc, _STD addressof(_Ptr->_Next));

	mov	eax, DWORD PTR __Ptr$[ebp]
	push	eax
	call	??$addressof@PAU?$_List_node@UWeaponRecord@WeaponMarkers@@PAX@std@@@std@@YAPAPAU?$_List_node@UWeaponRecord@WeaponMarkers@@PAX@0@AAPAU10@@Z ; std::addressof<std::_List_node<WeaponMarkers::WeaponRecord,void *> *>
	add	esp, 4
	push	eax
	lea	ecx, DWORD PTR __Node_alloc$[ebp]
	push	ecx
	call	??$destroy@PAU?$_List_node@UWeaponRecord@WeaponMarkers@@PAX@std@@@?$_Default_allocator_traits@V?$allocator@U?$_List_node@UWeaponRecord@WeaponMarkers@@PAX@std@@@std@@@std@@SAXAAV?$allocator@U?$_List_node@UWeaponRecord@WeaponMarkers@@PAX@std@@@1@QAPAU?$_List_node@UWeaponRecord@WeaponMarkers@@PAX@1@@Z ; std::_Default_allocator_traits<std::allocator<std::_List_node<WeaponMarkers::WeaponRecord,void *> > >::destroy<std::_List_node<WeaponMarkers::WeaponRecord,void *> *>
	add	esp, 8

; 373  : 			_Alnode_traits::destroy(_Node_alloc, _STD addressof(_Ptr->_Prev));

	mov	edx, DWORD PTR __Ptr$[ebp]
	add	edx, 4
	push	edx
	call	??$addressof@PAU?$_List_node@UWeaponRecord@WeaponMarkers@@PAX@std@@@std@@YAPAPAU?$_List_node@UWeaponRecord@WeaponMarkers@@PAX@0@AAPAU10@@Z ; std::addressof<std::_List_node<WeaponMarkers::WeaponRecord,void *> *>
	add	esp, 4
	push	eax
	lea	eax, DWORD PTR __Node_alloc$[ebp]
	push	eax
	call	??$destroy@PAU?$_List_node@UWeaponRecord@WeaponMarkers@@PAX@std@@@?$_Default_allocator_traits@V?$allocator@U?$_List_node@UWeaponRecord@WeaponMarkers@@PAX@std@@@std@@@std@@SAXAAV?$allocator@U?$_List_node@UWeaponRecord@WeaponMarkers@@PAX@std@@@1@QAPAU?$_List_node@UWeaponRecord@WeaponMarkers@@PAX@1@@Z ; std::_Default_allocator_traits<std::allocator<std::_List_node<WeaponMarkers::WeaponRecord,void *> > >::destroy<std::_List_node<WeaponMarkers::WeaponRecord,void *> *>
	add	esp, 8

; 374  : 			_Alnode_traits::deallocate(_Node_alloc, _Ptr, 1);

	push	1
	mov	ecx, DWORD PTR __Ptr$[ebp]
	push	ecx
	lea	edx, DWORD PTR __Node_alloc$[ebp]
	push	edx
	call	?deallocate@?$_Default_allocator_traits@V?$allocator@U?$_List_node@UWeaponRecord@WeaponMarkers@@PAX@std@@@std@@@std@@SAXAAV?$allocator@U?$_List_node@UWeaponRecord@WeaponMarkers@@PAX@std@@@2@QAU?$_List_node@UWeaponRecord@WeaponMarkers@@PAX@2@I@Z ; std::_Default_allocator_traits<std::allocator<std::_List_node<WeaponMarkers::WeaponRecord,void *> > >::deallocate
	add	esp, 12					; 0000000cH

; 375  : 			}

	push	edx
	mov	ecx, ebp
	push	eax
	lea	edx, DWORD PTR $LN6@Freenode0
	call	@_RTC_CheckStackVars@8
	pop	eax
	pop	edx
	mov	ecx, DWORD PTR __$EHRec$[ebp]
	mov	DWORD PTR fs:0, ecx
	pop	ecx
	add	esp, 24					; 00000018H
	cmp	ebp, esp
	call	__RTC_CheckEsp
	mov	esp, ebp
	pop	ebp
	ret	0
	npad	1
$LN6@Freenode0:
	DD	1
	DD	$LN5@Freenode0
$LN5@Freenode0:
	DD	-17					; ffffffefH
	DD	1
	DD	$LN3@Freenode0
$LN3@Freenode0:
	DB	95					; 0000005fH
	DB	78					; 0000004eH
	DB	111					; 0000006fH
	DB	100					; 00000064H
	DB	101					; 00000065H
	DB	95					; 0000005fH
	DB	97					; 00000061H
	DB	108					; 0000006cH
	DB	108					; 0000006cH
	DB	111					; 0000006fH
	DB	99					; 00000063H
	DB	0
_TEXT	ENDS
;	COMDAT text$x
text$x	SEGMENT
__ehhandler$??$_Freenode0@V?$allocator@U?$_List_node@UWeaponRecord@WeaponMarkers@@PAX@std@@@std@@@?$_List_node@UWeaponRecord@WeaponMarkers@@PAX@std@@SAXAAV?$allocator@U?$_List_node@UWeaponRecord@WeaponMarkers@@PAX@std@@@1@PAU01@@Z:
	mov	edx, DWORD PTR [esp+8]
	lea	eax, DWORD PTR [edx+12]
	mov	ecx, DWORD PTR [edx-16]
	xor	ecx, eax
	call	@__security_check_cookie@4
	mov	eax, OFFSET __ehfuncinfo$??$_Freenode0@V?$allocator@U?$_List_node@UWeaponRecord@WeaponMarkers@@PAX@std@@@std@@@?$_List_node@UWeaponRecord@WeaponMarkers@@PAX@std@@SAXAAV?$allocator@U?$_List_node@UWeaponRecord@WeaponMarkers@@PAX@std@@@1@PAU01@@Z
	jmp	___CxxFrameHandler3
text$x	ENDS
??$_Freenode0@V?$allocator@U?$_List_node@UWeaponRecord@WeaponMarkers@@PAX@std@@@std@@@?$_List_node@UWeaponRecord@WeaponMarkers@@PAX@std@@SAXAAV?$allocator@U?$_List_node@UWeaponRecord@WeaponMarkers@@PAX@std@@@1@PAU01@@Z ENDP ; std::_List_node<WeaponMarkers::WeaponRecord,void *>::_Freenode0<std::allocator<std::_List_node<WeaponMarkers::WeaponRecord,void *> > >
; Function compile flags: /Odtp /RTCsu
; File c:\program files (x86)\microsoft visual studio\2017\enterprise\vc\tools\msvc\14.15.26726\include\xmemory0
;	COMDAT ??$_Deallocate@$07$0A@@std@@YAXPAXI@Z
_TEXT	SEGMENT
__Ptr$ = 8						; size = 4
__Bytes$ = 12						; size = 4
??$_Deallocate@$07$0A@@std@@YAXPAXI@Z PROC		; std::_Deallocate<8,0>, COMDAT

; 199  : 	{	// deallocate storage allocated by _Allocate when !_HAS_ALIGNED_NEW || _Align <= __STDCPP_DEFAULT_NEW_ALIGNMENT__

	push	ebp
	mov	ebp, esp

; 200  :  #if defined(_M_IX86) || defined(_M_X64)
; 201  : 	if (_Bytes >= _Big_allocation_threshold)

	cmp	DWORD PTR __Bytes$[ebp], 4096		; 00001000H
	jb	SHORT $LN2@Deallocate

; 202  : 		{	// boost the alignment of big allocations to help autovectorization
; 203  : 		_Adjust_manually_vector_aligned(_Ptr, _Bytes);

	lea	eax, DWORD PTR __Bytes$[ebp]
	push	eax
	lea	ecx, DWORD PTR __Ptr$[ebp]
	push	ecx
	call	?_Adjust_manually_vector_aligned@std@@YAXAAPAXAAI@Z ; std::_Adjust_manually_vector_aligned
	add	esp, 8
$LN2@Deallocate:

; 204  : 		}
; 205  :  #endif /* defined(_M_IX86) || defined(_M_X64) */
; 206  : 
; 207  : 	::operator delete(_Ptr, _Bytes);

	mov	edx, DWORD PTR __Bytes$[ebp]
	push	edx
	mov	eax, DWORD PTR __Ptr$[ebp]
	push	eax
	call	??3@YAXPAXI@Z				; operator delete
	add	esp, 8

; 208  : 	}

	cmp	ebp, esp
	call	__RTC_CheckEsp
	pop	ebp
	ret	0
??$_Deallocate@$07$0A@@std@@YAXPAXI@Z ENDP		; std::_Deallocate<8,0>
_TEXT	ENDS
; Function compile flags: /Odtp /RTCsu
; File c:\program files (x86)\microsoft visual studio\2017\enterprise\vc\tools\msvc\14.15.26726\include\xmemory0
;	COMDAT ??$_Allocate@$07U_Default_allocate_traits@std@@$0A@@std@@YAPAXI@Z
_TEXT	SEGMENT
__Bytes$ = 8						; size = 4
??$_Allocate@$07U_Default_allocate_traits@std@@$0A@@std@@YAPAXI@Z PROC ; std::_Allocate<8,std::_Default_allocate_traits,0>, COMDAT

; 180  : 	{	// allocate _Bytes when !_HAS_ALIGNED_NEW || _Align <= __STDCPP_DEFAULT_NEW_ALIGNMENT__

	push	ebp
	mov	ebp, esp

; 181  :  #if defined(_M_IX86) || defined(_M_X64)
; 182  : 	if (_Bytes >= _Big_allocation_threshold)

	cmp	DWORD PTR __Bytes$[ebp], 4096		; 00001000H
	jb	SHORT $LN2@Allocate

; 183  : 		{	// boost the alignment of big allocations to help autovectorization
; 184  : 		return (_Allocate_manually_vector_aligned<_Traits>(_Bytes));

	mov	eax, DWORD PTR __Bytes$[ebp]
	push	eax
	call	??$_Allocate_manually_vector_aligned@U_Default_allocate_traits@std@@@std@@YAPAXI@Z ; std::_Allocate_manually_vector_aligned<std::_Default_allocate_traits>
	add	esp, 4
	jmp	SHORT $LN1@Allocate
$LN2@Allocate:

; 185  : 		}
; 186  :  #endif /* defined(_M_IX86) || defined(_M_X64) */
; 187  : 
; 188  : 	if (_Bytes != 0)

	cmp	DWORD PTR __Bytes$[ebp], 0
	je	SHORT $LN3@Allocate

; 189  : 		{
; 190  : 		return (_Traits::_Allocate(_Bytes));

	mov	ecx, DWORD PTR __Bytes$[ebp]
	push	ecx
	call	?_Allocate@_Default_allocate_traits@std@@SAPAXI@Z ; std::_Default_allocate_traits::_Allocate
	add	esp, 4
	jmp	SHORT $LN1@Allocate
$LN3@Allocate:

; 191  : 		}
; 192  : 
; 193  : 	return (nullptr);

	xor	eax, eax
$LN1@Allocate:

; 194  : 	}

	cmp	ebp, esp
	call	__RTC_CheckEsp
	pop	ebp
	ret	0
??$_Allocate@$07U_Default_allocate_traits@std@@$0A@@std@@YAPAXI@Z ENDP ; std::_Allocate<8,std::_Default_allocate_traits,0>
_TEXT	ENDS
; Function compile flags: /Odtp /RTCsu
; File c:\program files (x86)\microsoft visual studio\2017\enterprise\vc\tools\msvc\14.15.26726\include\xutility
;	COMDAT ??$?0$$V@?$_Compressed_pair@V?$allocator@UVector2D@@@std@@V?$_Vector_val@U?$_Simple_types@UVector2D@@@std@@@2@$00@std@@QAE@U_Zero_then_variadic_args_t@1@@Z
_TEXT	SEGMENT
_this$ = -4						; size = 4
___formal$ = 8						; size = 1
??$?0$$V@?$_Compressed_pair@V?$allocator@UVector2D@@@std@@V?$_Vector_val@U?$_Simple_types@UVector2D@@@std@@@2@$00@std@@QAE@U_Zero_then_variadic_args_t@1@@Z PROC ; std::_Compressed_pair<std::allocator<Vector2D>,std::_Vector_val<std::_Simple_types<Vector2D> >,1>::_Compressed_pair<std::allocator<Vector2D>,std::_Vector_val<std::_Simple_types<Vector2D> >,1><>, COMDAT
; _this$ = ecx

; 278  : 		{	// construct from forwarded values

	push	ebp
	mov	ebp, esp
	push	ecx
	mov	DWORD PTR [ebp-4], -858993460		; ccccccccH
	mov	DWORD PTR _this$[ebp], ecx

; 277  : 		: _Ty1(), _Myval2(_STD forward<_Other2>(_Val2)...)

	mov	ecx, DWORD PTR _this$[ebp]
	call	??0?$allocator@UVector2D@@@std@@QAE@XZ	; std::allocator<Vector2D>::allocator<Vector2D>
	mov	ecx, DWORD PTR _this$[ebp]
	call	??0?$_Vector_val@U?$_Simple_types@UVector2D@@@std@@@std@@QAE@XZ ; std::_Vector_val<std::_Simple_types<Vector2D> >::_Vector_val<std::_Simple_types<Vector2D> >

; 279  : 		}

	mov	eax, DWORD PTR _this$[ebp]
	add	esp, 4
	cmp	ebp, esp
	call	__RTC_CheckEsp
	mov	esp, ebp
	pop	ebp
	ret	4
??$?0$$V@?$_Compressed_pair@V?$allocator@UVector2D@@@std@@V?$_Vector_val@U?$_Simple_types@UVector2D@@@std@@@2@$00@std@@QAE@U_Zero_then_variadic_args_t@1@@Z ENDP ; std::_Compressed_pair<std::allocator<Vector2D>,std::_Vector_val<std::_Simple_types<Vector2D> >,1>::_Compressed_pair<std::allocator<Vector2D>,std::_Vector_val<std::_Simple_types<Vector2D> >,1><>
_TEXT	ENDS
; Function compile flags: /Odtp /RTCsu
; File c:\program files (x86)\microsoft visual studio\2017\enterprise\vc\tools\msvc\14.15.26726\include\xmemory0
;	COMDAT ??$_Pocma@V?$allocator@UVector2D@@@std@@@std@@YAXAAV?$allocator@UVector2D@@@0@0@Z
_TEXT	SEGMENT
__Tag$ = -5						; size = 1
__Left$ = 8						; size = 4
__Right$ = 12						; size = 4
??$_Pocma@V?$allocator@UVector2D@@@std@@@std@@YAXAAV?$allocator@UVector2D@@@0@0@Z PROC ; std::_Pocma<std::allocator<Vector2D> >, COMDAT

; 1099 : 	{	// (maybe) propagate on container move assignment

	push	ebp
	mov	ebp, esp
	sub	esp, 12					; 0000000cH
	mov	DWORD PTR [ebp-12], -858993460		; ccccccccH
	mov	DWORD PTR [ebp-8], -858993460		; ccccccccH
	mov	DWORD PTR [ebp-4], -858993460		; ccccccccH

; 1100 : 	typename allocator_traits<_Alloc>::propagate_on_container_move_assignment _Tag;
; 1101 : 	_Pocma(_Left, _Right, _Tag);

	movzx	eax, BYTE PTR __Tag$[ebp]
	push	eax
	mov	ecx, DWORD PTR __Right$[ebp]
	push	ecx
	mov	edx, DWORD PTR __Left$[ebp]
	push	edx
	call	??$_Pocma@V?$allocator@UVector2D@@@std@@@std@@YAXAAV?$allocator@UVector2D@@@0@0U?$integral_constant@_N$00@0@@Z ; std::_Pocma<std::allocator<Vector2D> >
	add	esp, 12					; 0000000cH

; 1102 : 	}

	push	edx
	mov	ecx, ebp
	push	eax
	lea	edx, DWORD PTR $LN5@Pocma
	call	@_RTC_CheckStackVars@8
	pop	eax
	pop	edx
	add	esp, 12					; 0000000cH
	cmp	ebp, esp
	call	__RTC_CheckEsp
	mov	esp, ebp
	pop	ebp
	ret	0
	npad	1
$LN5@Pocma:
	DD	1
	DD	$LN4@Pocma
$LN4@Pocma:
	DD	-5					; fffffffbH
	DD	1
	DD	$LN3@Pocma
$LN3@Pocma:
	DB	95					; 0000005fH
	DB	84					; 00000054H
	DB	97					; 00000061H
	DB	103					; 00000067H
	DB	0
??$_Pocma@V?$allocator@UVector2D@@@std@@@std@@YAXAAV?$allocator@UVector2D@@@0@0@Z ENDP ; std::_Pocma<std::allocator<Vector2D> >
_TEXT	ENDS
; Function compile flags: /Odtp /RTCsu
; File c:\program files (x86)\microsoft visual studio\2017\enterprise\vc\tools\msvc\14.15.26726\include\xmemory0
;	COMDAT ??$?9UVector2D@@U0@@std@@YA_NABV?$allocator@UVector2D@@@0@0@Z
_TEXT	SEGMENT
___formal$ = 8						; size = 4
___formal$ = 12						; size = 4
??$?9UVector2D@@U0@@std@@YA_NABV?$allocator@UVector2D@@@0@0@Z PROC ; std::operator!=<Vector2D,Vector2D>, COMDAT

; 1054 : 	{	// test for allocator inequality

	push	ebp
	mov	ebp, esp

; 1055 : 	return (false);

	xor	al, al

; 1056 : 	}

	pop	ebp
	ret	0
??$?9UVector2D@@U0@@std@@YA_NABV?$allocator@UVector2D@@@0@0@Z ENDP ; std::operator!=<Vector2D,Vector2D>
_TEXT	ENDS
; Function compile flags: /Odtp /RTCsu
; File c:\program files (x86)\microsoft visual studio\2017\enterprise\vc\tools\msvc\14.15.26726\include\xstddef
;	COMDAT ??$addressof@UWeaponRecord@WeaponMarkers@@@std@@YAPAUWeaponRecord@WeaponMarkers@@AAU12@@Z
_TEXT	SEGMENT
__Val$ = 8						; size = 4
??$addressof@UWeaponRecord@WeaponMarkers@@@std@@YAPAUWeaponRecord@WeaponMarkers@@AAU12@@Z PROC ; std::addressof<WeaponMarkers::WeaponRecord>, COMDAT

; 329  : 	{	// return address of _Val

	push	ebp
	mov	ebp, esp

; 330  : 	return (__builtin_addressof(_Val));

	mov	eax, DWORD PTR __Val$[ebp]

; 331  : 	}

	pop	ebp
	ret	0
??$addressof@UWeaponRecord@WeaponMarkers@@@std@@YAPAUWeaponRecord@WeaponMarkers@@AAU12@@Z ENDP ; std::addressof<WeaponMarkers::WeaponRecord>
_TEXT	ENDS
; Function compile flags: /Odtp /RTCsu
; File c:\program files (x86)\microsoft visual studio\2017\enterprise\vc\tools\msvc\14.15.26726\include\utility
;	COMDAT ??$_Min_value@I@std@@YAABIABI0@Z
_TEXT	SEGMENT
tv65 = -8						; size = 4
$T1 = -4						; size = 4
__Left$ = 8						; size = 4
__Right$ = 12						; size = 4
??$_Min_value@I@std@@YAABIABI0@Z PROC			; std::_Min_value<unsigned int>, COMDAT

; 23   : 	{	// return smaller of _Left and _Right

	push	ebp
	mov	ebp, esp
	sub	esp, 8
	mov	DWORD PTR [ebp-8], -858993460		; ccccccccH
	mov	DWORD PTR [ebp-4], -858993460		; ccccccccH

; 24   : 	return (_Right < _Left ? _Right : _Left);

	mov	eax, DWORD PTR __Right$[ebp]
	mov	ecx, DWORD PTR __Left$[ebp]
	mov	edx, DWORD PTR [eax]
	cmp	edx, DWORD PTR [ecx]
	jae	SHORT $LN3@Min_value
	mov	eax, DWORD PTR __Right$[ebp]
	mov	DWORD PTR tv65[ebp], eax
	jmp	SHORT $LN4@Min_value
$LN3@Min_value:
	mov	ecx, DWORD PTR __Left$[ebp]
	mov	DWORD PTR tv65[ebp], ecx
$LN4@Min_value:
	mov	edx, DWORD PTR tv65[ebp]
	mov	DWORD PTR $T1[ebp], edx
	mov	eax, DWORD PTR $T1[ebp]

; 25   : 	}

	mov	esp, ebp
	pop	ebp
	ret	0
??$_Min_value@I@std@@YAABIABI0@Z ENDP			; std::_Min_value<unsigned int>
_TEXT	ENDS
; Function compile flags: /Odtp /RTCsu
; File c:\program files (x86)\microsoft visual studio\2017\enterprise\vc\tools\msvc\14.15.26726\include\vector
;	COMDAT ??$_Ucopy@PAUVector2D@@@?$vector@UVector2D@@V?$allocator@UVector2D@@@std@@@std@@AAEPAUVector2D@@PAU2@00@Z
_TEXT	SEGMENT
_this$ = -4						; size = 4
__First$ = 8						; size = 4
__Last$ = 12						; size = 4
__Dest$ = 16						; size = 4
??$_Ucopy@PAUVector2D@@@?$vector@UVector2D@@V?$allocator@UVector2D@@@std@@@std@@AAEPAUVector2D@@PAU2@00@Z PROC ; std::vector<Vector2D,std::allocator<Vector2D> >::_Ucopy<Vector2D *>, COMDAT
; _this$ = ecx

; 1822 : 		{	// copy [_First, _Last) to raw _Dest, using allocator

	push	ebp
	mov	ebp, esp
	push	ecx
	mov	DWORD PTR [ebp-4], -858993460		; ccccccccH
	mov	DWORD PTR _this$[ebp], ecx

; 1823 : 		return (_Uninitialized_copy(_First, _Last, _Dest, this->_Getal()));

	mov	ecx, DWORD PTR _this$[ebp]
	call	?_Getal@?$_Vector_alloc@U?$_Vec_base_types@UVector2D@@V?$allocator@UVector2D@@@std@@@std@@@std@@QAEAAV?$allocator@UVector2D@@@2@XZ ; std::_Vector_alloc<std::_Vec_base_types<Vector2D,std::allocator<Vector2D> > >::_Getal
	push	eax
	mov	eax, DWORD PTR __Dest$[ebp]
	push	eax
	mov	ecx, DWORD PTR __Last$[ebp]
	push	ecx
	mov	edx, DWORD PTR __First$[ebp]
	push	edx
	call	??$_Uninitialized_copy@PAUVector2D@@PAU1@V?$allocator@UVector2D@@@std@@@std@@YAPAUVector2D@@QAU1@0PAU1@AAV?$allocator@UVector2D@@@0@@Z ; std::_Uninitialized_copy<Vector2D *,Vector2D *,std::allocator<Vector2D> >
	add	esp, 16					; 00000010H

; 1824 : 		}

	add	esp, 4
	cmp	ebp, esp
	call	__RTC_CheckEsp
	mov	esp, ebp
	pop	ebp
	ret	12					; 0000000cH
??$_Ucopy@PAUVector2D@@@?$vector@UVector2D@@V?$allocator@UVector2D@@@std@@@std@@AAEPAUVector2D@@PAU2@00@Z ENDP ; std::vector<Vector2D,std::allocator<Vector2D> >::_Ucopy<Vector2D *>
_TEXT	ENDS
; Function compile flags: /Odtp /RTCsu
; File c:\program files (x86)\microsoft visual studio\2017\enterprise\vc\tools\msvc\14.15.26726\include\vector
;	COMDAT ??$?0V?$allocator@UVector2D@@@std@@X@?$_Vector_alloc@U?$_Vec_base_types@UVector2D@@V?$allocator@UVector2D@@@std@@@std@@@std@@QAE@$$QAV?$allocator@UVector2D@@@1@@Z
_TEXT	SEGMENT
$T1 = -5						; size = 1
_this$ = -4						; size = 4
__Al$ = 8						; size = 4
??$?0V?$allocator@UVector2D@@@std@@X@?$_Vector_alloc@U?$_Vec_base_types@UVector2D@@V?$allocator@UVector2D@@@std@@@std@@@std@@QAE@$$QAV?$allocator@UVector2D@@@1@@Z PROC ; std::_Vector_alloc<std::_Vec_base_types<Vector2D,std::allocator<Vector2D> > >::_Vector_alloc<std::_Vec_base_types<Vector2D,std::allocator<Vector2D> > ><std::allocator<Vector2D>,void>, COMDAT
; _this$ = ecx

; 455  : 		{	// construct allocator from _Al

	push	ebp
	mov	ebp, esp
	sub	esp, 8
	mov	DWORD PTR [ebp-8], -858993460		; ccccccccH
	mov	DWORD PTR [ebp-4], -858993460		; ccccccccH
	mov	DWORD PTR _this$[ebp], ecx

; 453  : 		: _Mypair(_One_then_variadic_args_t(),

	mov	eax, DWORD PTR __Al$[ebp]
	push	eax
	call	??$forward@V?$allocator@UVector2D@@@std@@@std@@YA$$QAV?$allocator@UVector2D@@@0@AAV10@@Z ; std::forward<std::allocator<Vector2D> >
	add	esp, 4
	push	eax
	movzx	ecx, BYTE PTR $T1[ebp]
	push	ecx
	mov	ecx, DWORD PTR _this$[ebp]
	call	??$?0V?$allocator@UVector2D@@@std@@$$V@?$_Compressed_pair@V?$allocator@UVector2D@@@std@@V?$_Vector_val@U?$_Simple_types@UVector2D@@@std@@@2@$00@std@@QAE@U_One_then_variadic_args_t@1@$$QAV?$allocator@UVector2D@@@1@@Z ; std::_Compressed_pair<std::allocator<Vector2D>,std::_Vector_val<std::_Simple_types<Vector2D> >,1>::_Compressed_pair<std::allocator<Vector2D>,std::_Vector_val<std::_Simple_types<Vector2D> >,1><std::allocator<Vector2D> >

; 456  : 		_Alloc_proxy();

	mov	ecx, DWORD PTR _this$[ebp]
	call	?_Alloc_proxy@?$_Vector_alloc@U?$_Vec_base_types@UVector2D@@V?$allocator@UVector2D@@@std@@@std@@@std@@QAEXXZ ; std::_Vector_alloc<std::_Vec_base_types<Vector2D,std::allocator<Vector2D> > >::_Alloc_proxy

; 457  : 		}

	mov	eax, DWORD PTR _this$[ebp]
	add	esp, 8
	cmp	ebp, esp
	call	__RTC_CheckEsp
	mov	esp, ebp
	pop	ebp
	ret	4
??$?0V?$allocator@UVector2D@@@std@@X@?$_Vector_alloc@U?$_Vec_base_types@UVector2D@@V?$allocator@UVector2D@@@std@@@std@@@std@@QAE@$$QAV?$allocator@UVector2D@@@1@@Z ENDP ; std::_Vector_alloc<std::_Vec_base_types<Vector2D,std::allocator<Vector2D> > >::_Vector_alloc<std::_Vec_base_types<Vector2D,std::allocator<Vector2D> > ><std::allocator<Vector2D>,void>
_TEXT	ENDS
; Function compile flags: /Odtp /RTCsu
; File c:\program files (x86)\microsoft visual studio\2017\enterprise\vc\tools\msvc\14.15.26726\include\type_traits
;	COMDAT ??$move@AAV?$allocator@UVector2D@@@std@@@std@@YA$$QAV?$allocator@UVector2D@@@0@AAV10@@Z
_TEXT	SEGMENT
__Arg$ = 8						; size = 4
??$move@AAV?$allocator@UVector2D@@@std@@@std@@YA$$QAV?$allocator@UVector2D@@@0@AAV10@@Z PROC ; std::move<std::allocator<Vector2D> &>, COMDAT

; 1588 : 	{	// forward _Arg as movable

	push	ebp
	mov	ebp, esp

; 1589 : 	return (static_cast<remove_reference_t<_Ty>&&>(_Arg));

	mov	eax, DWORD PTR __Arg$[ebp]

; 1590 : 	}

	pop	ebp
	ret	0
??$move@AAV?$allocator@UVector2D@@@std@@@std@@YA$$QAV?$allocator@UVector2D@@@0@AAV10@@Z ENDP ; std::move<std::allocator<Vector2D> &>
_TEXT	ENDS
; Function compile flags: /Odtp /RTCsu
; File c:\program files (x86)\microsoft visual studio\2017\enterprise\vc\tools\msvc\14.15.26726\include\type_traits
;	COMDAT ??$move@AAV?$vector@UVector2D@@V?$allocator@UVector2D@@@std@@@std@@@std@@YA$$QAV?$vector@UVector2D@@V?$allocator@UVector2D@@@std@@@0@AAV10@@Z
_TEXT	SEGMENT
__Arg$ = 8						; size = 4
??$move@AAV?$vector@UVector2D@@V?$allocator@UVector2D@@@std@@@std@@@std@@YA$$QAV?$vector@UVector2D@@V?$allocator@UVector2D@@@std@@@0@AAV10@@Z PROC ; std::move<std::vector<Vector2D,std::allocator<Vector2D> > &>, COMDAT

; 1588 : 	{	// forward _Arg as movable

	push	ebp
	mov	ebp, esp

; 1589 : 	return (static_cast<remove_reference_t<_Ty>&&>(_Arg));

	mov	eax, DWORD PTR __Arg$[ebp]

; 1590 : 	}

	pop	ebp
	ret	0
??$move@AAV?$vector@UVector2D@@V?$allocator@UVector2D@@@std@@@std@@@std@@YA$$QAV?$vector@UVector2D@@V?$allocator@UVector2D@@@std@@@0@AAV10@@Z ENDP ; std::move<std::vector<Vector2D,std::allocator<Vector2D> > &>
_TEXT	ENDS
; Function compile flags: /Odtp /RTCsu
; File c:\program files (x86)\microsoft visual studio\2017\enterprise\vc\tools\msvc\14.15.26726\include\xstddef
;	COMDAT ??$addressof@V?$vector@UVector2D@@V?$allocator@UVector2D@@@std@@@std@@@std@@YAPAV?$vector@UVector2D@@V?$allocator@UVector2D@@@std@@@0@AAV10@@Z
_TEXT	SEGMENT
__Val$ = 8						; size = 4
??$addressof@V?$vector@UVector2D@@V?$allocator@UVector2D@@@std@@@std@@@std@@YAPAV?$vector@UVector2D@@V?$allocator@UVector2D@@@std@@@0@AAV10@@Z PROC ; std::addressof<std::vector<Vector2D,std::allocator<Vector2D> > >, COMDAT

; 329  : 	{	// return address of _Val

	push	ebp
	mov	ebp, esp

; 330  : 	return (__builtin_addressof(_Val));

	mov	eax, DWORD PTR __Val$[ebp]

; 331  : 	}

	pop	ebp
	ret	0
??$addressof@V?$vector@UVector2D@@V?$allocator@UVector2D@@@std@@@std@@@std@@YAPAV?$vector@UVector2D@@V?$allocator@UVector2D@@@std@@@0@AAV10@@Z ENDP ; std::addressof<std::vector<Vector2D,std::allocator<Vector2D> > >
_TEXT	ENDS
; Function compile flags: /Odtp /RTCsu
; File c:\program files (x86)\microsoft visual studio\2017\enterprise\vc\tools\msvc\14.15.26726\include\vector
;	COMDAT ??$_Emplace_reallocate@ABUVector2D@@@?$vector@UVector2D@@V?$allocator@UVector2D@@@std@@@std@@QAEPAUVector2D@@QAU2@ABU2@@Z
_TEXT	SEGMENT
tv206 = -56						; size = 4
__Constructed_first$ = -52				; size = 4
__Constructed_last$ = -48				; size = 4
__Newvec$ = -44						; size = 4
__Newcapacity$ = -40					; size = 4
__Newsize$ = -36					; size = 4
__Oldsize$ = -32					; size = 4
__Al$ = -28						; size = 4
__Whereoff$ = -24					; size = 4
_this$ = -20						; size = 4
__$EHRec$ = -16						; size = 16
__Whereptr$ = 8						; size = 4
_<_Val_0>$ = 12						; size = 4
??$_Emplace_reallocate@ABUVector2D@@@?$vector@UVector2D@@V?$allocator@UVector2D@@@std@@@std@@QAEPAUVector2D@@QAU2@ABU2@@Z PROC ; std::vector<Vector2D,std::allocator<Vector2D> >::_Emplace_reallocate<Vector2D const &>, COMDAT
; _this$ = ecx

; 942  : 		{	// reallocate and insert by perfectly forwarding _Val at _Whereptr

	push	ebp
	mov	ebp, esp
	push	-1
	push	__ehhandler$??$_Emplace_reallocate@ABUVector2D@@@?$vector@UVector2D@@V?$allocator@UVector2D@@@std@@@std@@QAEPAUVector2D@@QAU2@ABU2@@Z
	mov	eax, DWORD PTR fs:0
	push	eax
	push	ecx
	sub	esp, 40					; 00000028H
	push	ebx
	push	esi
	push	edi
	push	ecx
	lea	edi, DWORD PTR [ebp-56]
	mov	ecx, 10					; 0000000aH
	mov	eax, -858993460				; ccccccccH
	rep stosd
	pop	ecx
	mov	eax, DWORD PTR ___security_cookie
	xor	eax, ebp
	push	eax
	lea	eax, DWORD PTR __$EHRec$[ebp+4]
	mov	DWORD PTR fs:0, eax
	mov	DWORD PTR __$EHRec$[ebp], esp
	mov	DWORD PTR _this$[ebp], ecx

; 943  : 			// pre: !_Has_unused_capacity()
; 944  : 		const size_type _Whereoff = static_cast<size_type>(_Whereptr - this->_Myfirst());

	mov	ecx, DWORD PTR _this$[ebp]
	call	?_Myfirst@?$_Vector_alloc@U?$_Vec_base_types@UVector2D@@V?$allocator@UVector2D@@@std@@@std@@@std@@QAEAAPAUVector2D@@XZ ; std::_Vector_alloc<std::_Vec_base_types<Vector2D,std::allocator<Vector2D> > >::_Myfirst
	mov	ecx, DWORD PTR __Whereptr$[ebp]
	sub	ecx, DWORD PTR [eax]
	sar	ecx, 4
	mov	DWORD PTR __Whereoff$[ebp], ecx

; 945  : 		_Alty& _Al = this->_Getal();

	mov	ecx, DWORD PTR _this$[ebp]
	call	?_Getal@?$_Vector_alloc@U?$_Vec_base_types@UVector2D@@V?$allocator@UVector2D@@@std@@@std@@@std@@QAEAAV?$allocator@UVector2D@@@2@XZ ; std::_Vector_alloc<std::_Vec_base_types<Vector2D,std::allocator<Vector2D> > >::_Getal
	mov	DWORD PTR __Al$[ebp], eax

; 946  : 		const size_type _Oldsize = size();

	mov	ecx, DWORD PTR _this$[ebp]
	call	?size@?$vector@UVector2D@@V?$allocator@UVector2D@@@std@@@std@@QBEIXZ ; std::vector<Vector2D,std::allocator<Vector2D> >::size
	mov	DWORD PTR __Oldsize$[ebp], eax

; 947  : 
; 948  : 		if (_Oldsize == max_size())

	mov	ecx, DWORD PTR _this$[ebp]
	call	?max_size@?$vector@UVector2D@@V?$allocator@UVector2D@@@std@@@std@@QBEIXZ ; std::vector<Vector2D,std::allocator<Vector2D> >::max_size
	cmp	DWORD PTR __Oldsize$[ebp], eax
	jne	SHORT $LN2@Emplace_re

; 949  : 			{
; 950  : 			_Xlength();

	call	?_Xlength@?$vector@UVector2D@@V?$allocator@UVector2D@@@std@@@std@@CAXXZ ; std::vector<Vector2D,std::allocator<Vector2D> >::_Xlength
$LN2@Emplace_re:

; 951  : 			}
; 952  : 
; 953  : 		const size_type _Newsize = _Oldsize + 1;

	mov	edx, DWORD PTR __Oldsize$[ebp]
	add	edx, 1
	mov	DWORD PTR __Newsize$[ebp], edx

; 954  : 		const size_type _Newcapacity = _Calculate_growth(_Newsize);

	mov	eax, DWORD PTR __Newsize$[ebp]
	push	eax
	mov	ecx, DWORD PTR _this$[ebp]
	call	?_Calculate_growth@?$vector@UVector2D@@V?$allocator@UVector2D@@@std@@@std@@ABEII@Z ; std::vector<Vector2D,std::allocator<Vector2D> >::_Calculate_growth
	mov	DWORD PTR __Newcapacity$[ebp], eax

; 955  : 
; 956  : 		const pointer _Newvec = _Al.allocate(_Newcapacity);

	mov	ecx, DWORD PTR __Newcapacity$[ebp]
	push	ecx
	mov	ecx, DWORD PTR __Al$[ebp]
	call	?allocate@?$allocator@UVector2D@@@std@@QAEPAUVector2D@@I@Z ; std::allocator<Vector2D>::allocate
	mov	DWORD PTR __Newvec$[ebp], eax

; 957  : 		const pointer _Constructed_last = _Newvec + _Whereoff + 1;

	mov	edx, DWORD PTR __Whereoff$[ebp]
	shl	edx, 4
	mov	eax, DWORD PTR __Newvec$[ebp]
	lea	ecx, DWORD PTR [eax+edx+16]
	mov	DWORD PTR __Constructed_last$[ebp], ecx

; 958  : 		pointer _Constructed_first = _Constructed_last;

	mov	edx, DWORD PTR __Constructed_last$[ebp]
	mov	DWORD PTR __Constructed_first$[ebp], edx

; 959  : 
; 960  : 		_TRY_BEGIN

	mov	DWORD PTR __$EHRec$[ebp+12], 0

; 961  : 		_Alty_traits::construct(_Al, _Unfancy(_Newvec + _Whereoff), _STD forward<_Valty>(_Val)...);

	mov	eax, DWORD PTR __Whereoff$[ebp]
	shl	eax, 4
	add	eax, DWORD PTR __Newvec$[ebp]
	push	eax
	call	??$_Unfancy@UVector2D@@@std@@YAPAUVector2D@@PAU1@@Z ; std::_Unfancy<Vector2D>
	add	esp, 4
	mov	DWORD PTR tv206[ebp], eax
	mov	ecx, DWORD PTR _<_Val_0>$[ebp]
	push	ecx
	call	??$forward@ABUVector2D@@@std@@YAABUVector2D@@ABU1@@Z ; std::forward<Vector2D const &>
	add	esp, 4
	push	eax
	mov	edx, DWORD PTR tv206[ebp]
	push	edx
	mov	eax, DWORD PTR __Al$[ebp]
	push	eax
	call	??$construct@UVector2D@@ABU1@@?$_Default_allocator_traits@V?$allocator@UVector2D@@@std@@@std@@SAXAAV?$allocator@UVector2D@@@1@QAUVector2D@@ABU3@@Z ; std::_Default_allocator_traits<std::allocator<Vector2D> >::construct<Vector2D,Vector2D const &>
	add	esp, 12					; 0000000cH

; 962  : 		_Constructed_first = _Newvec + _Whereoff;

	mov	ecx, DWORD PTR __Whereoff$[ebp]
	shl	ecx, 4
	add	ecx, DWORD PTR __Newvec$[ebp]
	mov	DWORD PTR __Constructed_first$[ebp], ecx

; 963  : 
; 964  : 		if (_Whereptr == this->_Mylast())

	mov	ecx, DWORD PTR _this$[ebp]
	call	?_Mylast@?$_Vector_alloc@U?$_Vec_base_types@UVector2D@@V?$allocator@UVector2D@@@std@@@std@@@std@@QAEAAPAUVector2D@@XZ ; std::_Vector_alloc<std::_Vec_base_types<Vector2D,std::allocator<Vector2D> > >::_Mylast
	mov	edx, DWORD PTR __Whereptr$[ebp]
	cmp	edx, DWORD PTR [eax]
	jne	SHORT $LN4@Emplace_re

; 965  : 			{	// at back, provide strong guarantee
; 966  : 			_Umove_if_noexcept(this->_Myfirst(), this->_Mylast(), _Newvec);

	mov	eax, DWORD PTR __Newvec$[ebp]
	push	eax
	mov	ecx, DWORD PTR _this$[ebp]
	call	?_Mylast@?$_Vector_alloc@U?$_Vec_base_types@UVector2D@@V?$allocator@UVector2D@@@std@@@std@@@std@@QAEAAPAUVector2D@@XZ ; std::_Vector_alloc<std::_Vec_base_types<Vector2D,std::allocator<Vector2D> > >::_Mylast
	mov	ecx, DWORD PTR [eax]
	push	ecx
	mov	ecx, DWORD PTR _this$[ebp]
	call	?_Myfirst@?$_Vector_alloc@U?$_Vec_base_types@UVector2D@@V?$allocator@UVector2D@@@std@@@std@@@std@@QAEAAPAUVector2D@@XZ ; std::_Vector_alloc<std::_Vec_base_types<Vector2D,std::allocator<Vector2D> > >::_Myfirst
	mov	edx, DWORD PTR [eax]
	push	edx
	mov	ecx, DWORD PTR _this$[ebp]
	call	?_Umove_if_noexcept@?$vector@UVector2D@@V?$allocator@UVector2D@@@std@@@std@@AAEXPAUVector2D@@00@Z ; std::vector<Vector2D,std::allocator<Vector2D> >::_Umove_if_noexcept

; 967  : 			}
; 968  : 		else

	jmp	SHORT $LN5@Emplace_re
$LN4@Emplace_re:

; 969  : 			{	// provide basic guarantee
; 970  : 			_Umove(this->_Myfirst(), _Whereptr, _Newvec);

	mov	eax, DWORD PTR __Newvec$[ebp]
	push	eax
	mov	ecx, DWORD PTR __Whereptr$[ebp]
	push	ecx
	mov	ecx, DWORD PTR _this$[ebp]
	call	?_Myfirst@?$_Vector_alloc@U?$_Vec_base_types@UVector2D@@V?$allocator@UVector2D@@@std@@@std@@@std@@QAEAAPAUVector2D@@XZ ; std::_Vector_alloc<std::_Vec_base_types<Vector2D,std::allocator<Vector2D> > >::_Myfirst
	mov	edx, DWORD PTR [eax]
	push	edx
	mov	ecx, DWORD PTR _this$[ebp]
	call	?_Umove@?$vector@UVector2D@@V?$allocator@UVector2D@@@std@@@std@@AAEPAUVector2D@@PAU3@00@Z ; std::vector<Vector2D,std::allocator<Vector2D> >::_Umove

; 971  : 			_Constructed_first = _Newvec;

	mov	eax, DWORD PTR __Newvec$[ebp]
	mov	DWORD PTR __Constructed_first$[ebp], eax

; 972  : 			_Umove(_Whereptr, this->_Mylast(), _Newvec + _Whereoff + 1);

	mov	ecx, DWORD PTR __Whereoff$[ebp]
	shl	ecx, 4
	mov	edx, DWORD PTR __Newvec$[ebp]
	lea	eax, DWORD PTR [edx+ecx+16]
	push	eax
	mov	ecx, DWORD PTR _this$[ebp]
	call	?_Mylast@?$_Vector_alloc@U?$_Vec_base_types@UVector2D@@V?$allocator@UVector2D@@@std@@@std@@@std@@QAEAAPAUVector2D@@XZ ; std::_Vector_alloc<std::_Vec_base_types<Vector2D,std::allocator<Vector2D> > >::_Mylast
	mov	ecx, DWORD PTR [eax]
	push	ecx
	mov	edx, DWORD PTR __Whereptr$[ebp]
	push	edx
	mov	ecx, DWORD PTR _this$[ebp]
	call	?_Umove@?$vector@UVector2D@@V?$allocator@UVector2D@@@std@@@std@@AAEPAUVector2D@@PAU3@00@Z ; std::vector<Vector2D,std::allocator<Vector2D> >::_Umove
$LN5@Emplace_re:
	jmp	SHORT $LN7@Emplace_re
__catch$??$_Emplace_reallocate@ABUVector2D@@@?$vector@UVector2D@@V?$allocator@UVector2D@@@std@@@std@@QAEPAUVector2D@@QAU2@ABU2@@Z$0:

; 973  : 			}
; 974  : 		_CATCH_ALL
; 975  : 		_Destroy(_Constructed_first, _Constructed_last);

	mov	eax, DWORD PTR __Constructed_last$[ebp]
	push	eax
	mov	ecx, DWORD PTR __Constructed_first$[ebp]
	push	ecx
	mov	ecx, DWORD PTR _this$[ebp]
	call	?_Destroy@?$vector@UVector2D@@V?$allocator@UVector2D@@@std@@@std@@AAEXPAUVector2D@@0@Z ; std::vector<Vector2D,std::allocator<Vector2D> >::_Destroy

; 976  : 		_Al.deallocate(_Newvec, _Newcapacity);

	mov	edx, DWORD PTR __Newcapacity$[ebp]
	push	edx
	mov	eax, DWORD PTR __Newvec$[ebp]
	push	eax
	mov	ecx, DWORD PTR __Al$[ebp]
	call	?deallocate@?$allocator@UVector2D@@@std@@QAEXQAUVector2D@@I@Z ; std::allocator<Vector2D>::deallocate

; 977  : 		_RERAISE;

	push	0
	push	0
	call	__CxxThrowException@8

; 978  : 		_CATCH_END

	mov	eax, $LN10@Emplace_re
	ret	0
$LN7@Emplace_re:
	mov	DWORD PTR __$EHRec$[ebp+12], -1
	jmp	SHORT __tryend$??$_Emplace_reallocate@ABUVector2D@@@?$vector@UVector2D@@V?$allocator@UVector2D@@@std@@@std@@QAEPAUVector2D@@QAU2@ABU2@@Z$1
$LN10@Emplace_re:
	mov	DWORD PTR __$EHRec$[ebp+12], -1
__tryend$??$_Emplace_reallocate@ABUVector2D@@@?$vector@UVector2D@@V?$allocator@UVector2D@@@std@@@std@@QAEPAUVector2D@@QAU2@ABU2@@Z$1:

; 979  : 
; 980  : 		_Change_array(_Newvec, _Newsize, _Newcapacity);

	mov	ecx, DWORD PTR __Newcapacity$[ebp]
	push	ecx
	mov	edx, DWORD PTR __Newsize$[ebp]
	push	edx
	mov	eax, DWORD PTR __Newvec$[ebp]
	push	eax
	mov	ecx, DWORD PTR _this$[ebp]
	call	?_Change_array@?$vector@UVector2D@@V?$allocator@UVector2D@@@std@@@std@@AAEXQAUVector2D@@II@Z ; std::vector<Vector2D,std::allocator<Vector2D> >::_Change_array

; 981  : 		return (this->_Myfirst() + _Whereoff);

	mov	esi, DWORD PTR __Whereoff$[ebp]
	shl	esi, 4
	mov	ecx, DWORD PTR _this$[ebp]
	call	?_Myfirst@?$_Vector_alloc@U?$_Vec_base_types@UVector2D@@V?$allocator@UVector2D@@@std@@@std@@@std@@QAEAAPAUVector2D@@XZ ; std::_Vector_alloc<std::_Vec_base_types<Vector2D,std::allocator<Vector2D> > >::_Myfirst
	add	esi, DWORD PTR [eax]
	mov	eax, esi
$LN6@Emplace_re:

; 982  : 		}

	mov	ecx, DWORD PTR __$EHRec$[ebp+4]
	mov	DWORD PTR fs:0, ecx
	pop	ecx
	pop	edi
	pop	esi
	pop	ebx
	add	esp, 56					; 00000038H
	cmp	ebp, esp
	call	__RTC_CheckEsp
	mov	esp, ebp
	pop	ebp
	ret	8
_TEXT	ENDS
;	COMDAT text$x
text$x	SEGMENT
__ehhandler$??$_Emplace_reallocate@ABUVector2D@@@?$vector@UVector2D@@V?$allocator@UVector2D@@@std@@@std@@QAEPAUVector2D@@QAU2@ABU2@@Z:
	mov	edx, DWORD PTR [esp+8]
	lea	eax, DWORD PTR [edx+12]
	mov	ecx, DWORD PTR [edx-60]
	xor	ecx, eax
	call	@__security_check_cookie@4
	mov	eax, OFFSET __ehfuncinfo$??$_Emplace_reallocate@ABUVector2D@@@?$vector@UVector2D@@V?$allocator@UVector2D@@@std@@@std@@QAEPAUVector2D@@QAU2@ABU2@@Z
	jmp	___CxxFrameHandler3
text$x	ENDS
??$_Emplace_reallocate@ABUVector2D@@@?$vector@UVector2D@@V?$allocator@UVector2D@@@std@@@std@@QAEPAUVector2D@@QAU2@ABU2@@Z ENDP ; std::vector<Vector2D,std::allocator<Vector2D> >::_Emplace_reallocate<Vector2D const &>
; Function compile flags: /Odtp /RTCsu
; File c:\program files (x86)\microsoft visual studio\2017\enterprise\vc\tools\msvc\14.15.26726\include\xmemory0
;	COMDAT ??$construct@UVector2D@@ABU1@@?$_Default_allocator_traits@V?$allocator@UVector2D@@@std@@@std@@SAXAAV?$allocator@UVector2D@@@1@QAUVector2D@@ABU3@@Z
_TEXT	SEGMENT
$T1 = -4						; size = 4
___formal$ = 8						; size = 4
__Ptr$ = 12						; size = 4
_<_Args_0>$ = 16					; size = 4
??$construct@UVector2D@@ABU1@@?$_Default_allocator_traits@V?$allocator@UVector2D@@@std@@@std@@SAXAAV?$allocator@UVector2D@@@1@QAUVector2D@@ABU3@@Z PROC ; std::_Default_allocator_traits<std::allocator<Vector2D> >::construct<Vector2D,Vector2D const &>, COMDAT

; 879  : 		{	// construct _Objty(_Types...) at _Ptr

	push	ebp
	mov	ebp, esp
	push	ecx
	mov	DWORD PTR [ebp-4], -858993460		; ccccccccH

; 880  : 		::new (const_cast<void *>(static_cast<const volatile void *>(_Ptr)))

	mov	eax, DWORD PTR __Ptr$[ebp]
	push	eax
	push	16					; 00000010H
	call	??2@YAPAXIPAX@Z				; operator new
	add	esp, 8
	mov	DWORD PTR $T1[ebp], eax
	mov	ecx, DWORD PTR _<_Args_0>$[ebp]
	push	ecx
	call	??$forward@ABUVector2D@@@std@@YAABUVector2D@@ABU1@@Z ; std::forward<Vector2D const &>
	add	esp, 4
	mov	edx, DWORD PTR $T1[ebp]
	mov	ecx, DWORD PTR [eax]
	mov	DWORD PTR [edx], ecx
	mov	ecx, DWORD PTR [eax+4]
	mov	DWORD PTR [edx+4], ecx
	mov	ecx, DWORD PTR [eax+8]
	mov	DWORD PTR [edx+8], ecx
	mov	eax, DWORD PTR [eax+12]
	mov	DWORD PTR [edx+12], eax

; 881  : 			_Objty(_STD forward<_Types>(_Args)...);
; 882  : 		}

	add	esp, 4
	cmp	ebp, esp
	call	__RTC_CheckEsp
	mov	esp, ebp
	pop	ebp
	ret	0
??$construct@UVector2D@@ABU1@@?$_Default_allocator_traits@V?$allocator@UVector2D@@@std@@@std@@SAXAAV?$allocator@UVector2D@@@1@QAUVector2D@@ABU3@@Z ENDP ; std::_Default_allocator_traits<std::allocator<Vector2D> >::construct<Vector2D,Vector2D const &>
_TEXT	ENDS
; Function compile flags: /Odtp /RTCsu
; File c:\program files (x86)\microsoft visual studio\2017\enterprise\vc\tools\msvc\14.15.26726\include\vector
;	COMDAT ??$_Emplace_back_with_unused_capacity@ABUVector2D@@@?$vector@UVector2D@@V?$allocator@UVector2D@@@std@@@std@@AAE@ABUVector2D@@@Z
_TEXT	SEGMENT
tv142 = -12						; size = 4
__Result$ = -8						; size = 4
_this$ = -4						; size = 4
_<_Val_0>$ = 8						; size = 4
??$_Emplace_back_with_unused_capacity@ABUVector2D@@@?$vector@UVector2D@@V?$allocator@UVector2D@@@std@@@std@@AAE@ABUVector2D@@@Z PROC ; std::vector<Vector2D,std::allocator<Vector2D> >::_Emplace_back_with_unused_capacity<Vector2D const &>, COMDAT
; _this$ = ecx

; 900  : 		{	// insert by perfectly forwarding into element at end, provide strong guarantee

	push	ebp
	mov	ebp, esp
	sub	esp, 12					; 0000000cH
	mov	DWORD PTR [ebp-12], -858993460		; ccccccccH
	mov	DWORD PTR [ebp-8], -858993460		; ccccccccH
	mov	DWORD PTR [ebp-4], -858993460		; ccccccccH
	mov	DWORD PTR _this$[ebp], ecx

; 901  : 			// pre: _Has_unused_capacity()
; 902  : 		_Alty_traits::construct(this->_Getal(), _Unfancy(this->_Mylast()), _STD forward<_Valty>(_Val)...);

	mov	eax, DWORD PTR _<_Val_0>$[ebp]
	push	eax
	call	??$forward@ABUVector2D@@@std@@YAABUVector2D@@ABU1@@Z ; std::forward<Vector2D const &>
	add	esp, 4
	push	eax
	mov	ecx, DWORD PTR _this$[ebp]
	call	?_Mylast@?$_Vector_alloc@U?$_Vec_base_types@UVector2D@@V?$allocator@UVector2D@@@std@@@std@@@std@@QAEAAPAUVector2D@@XZ ; std::_Vector_alloc<std::_Vec_base_types<Vector2D,std::allocator<Vector2D> > >::_Mylast
	mov	ecx, DWORD PTR [eax]
	push	ecx
	call	??$_Unfancy@UVector2D@@@std@@YAPAUVector2D@@PAU1@@Z ; std::_Unfancy<Vector2D>
	add	esp, 4
	push	eax
	mov	ecx, DWORD PTR _this$[ebp]
	call	?_Getal@?$_Vector_alloc@U?$_Vec_base_types@UVector2D@@V?$allocator@UVector2D@@@std@@@std@@@std@@QAEAAV?$allocator@UVector2D@@@2@XZ ; std::_Vector_alloc<std::_Vec_base_types<Vector2D,std::allocator<Vector2D> > >::_Getal
	push	eax
	call	??$construct@UVector2D@@ABU1@@?$_Default_allocator_traits@V?$allocator@UVector2D@@@std@@@std@@SAXAAV?$allocator@UVector2D@@@1@QAUVector2D@@ABU3@@Z ; std::_Default_allocator_traits<std::allocator<Vector2D> >::construct<Vector2D,Vector2D const &>
	add	esp, 12					; 0000000cH

; 903  : 		_Orphan_range(this->_Mylast(), this->_Mylast());

	mov	ecx, DWORD PTR _this$[ebp]
	call	?_Mylast@?$_Vector_alloc@U?$_Vec_base_types@UVector2D@@V?$allocator@UVector2D@@@std@@@std@@@std@@QAEAAPAUVector2D@@XZ ; std::_Vector_alloc<std::_Vec_base_types<Vector2D,std::allocator<Vector2D> > >::_Mylast
	mov	edx, DWORD PTR [eax]
	push	edx
	mov	ecx, DWORD PTR _this$[ebp]
	call	?_Mylast@?$_Vector_alloc@U?$_Vec_base_types@UVector2D@@V?$allocator@UVector2D@@@std@@@std@@@std@@QAEAAPAUVector2D@@XZ ; std::_Vector_alloc<std::_Vec_base_types<Vector2D,std::allocator<Vector2D> > >::_Mylast
	mov	eax, DWORD PTR [eax]
	push	eax
	mov	ecx, DWORD PTR _this$[ebp]
	call	?_Orphan_range@?$vector@UVector2D@@V?$allocator@UVector2D@@@std@@@std@@ABEXPAUVector2D@@0@Z ; std::vector<Vector2D,std::allocator<Vector2D> >::_Orphan_range

; 904  : 		_Ty& _Result = *this->_Mylast();

	mov	ecx, DWORD PTR _this$[ebp]
	call	?_Mylast@?$_Vector_alloc@U?$_Vec_base_types@UVector2D@@V?$allocator@UVector2D@@@std@@@std@@@std@@QAEAAPAUVector2D@@XZ ; std::_Vector_alloc<std::_Vec_base_types<Vector2D,std::allocator<Vector2D> > >::_Mylast
	mov	ecx, DWORD PTR [eax]
	mov	DWORD PTR __Result$[ebp], ecx

; 905  : 		++this->_Mylast();

	mov	ecx, DWORD PTR _this$[ebp]
	call	?_Mylast@?$_Vector_alloc@U?$_Vec_base_types@UVector2D@@V?$allocator@UVector2D@@@std@@@std@@@std@@QAEAAPAUVector2D@@XZ ; std::_Vector_alloc<std::_Vec_base_types<Vector2D,std::allocator<Vector2D> > >::_Mylast
	mov	DWORD PTR tv142[ebp], eax
	mov	edx, DWORD PTR tv142[ebp]
	mov	eax, DWORD PTR [edx]
	add	eax, 16					; 00000010H
	mov	ecx, DWORD PTR tv142[ebp]
	mov	DWORD PTR [ecx], eax

; 906  : #if _HAS_CXX17
; 907  : 		return (_Result);
; 908  : #else /* ^^^ _HAS_CXX17 ^^^ // vvv !_HAS_CXX17 vvv */
; 909  : 		(void)_Result;
; 910  : #endif /* _HAS_CXX17 */
; 911  : 		}

	add	esp, 12					; 0000000cH
	cmp	ebp, esp
	call	__RTC_CheckEsp
	mov	esp, ebp
	pop	ebp
	ret	4
??$_Emplace_back_with_unused_capacity@ABUVector2D@@@?$vector@UVector2D@@V?$allocator@UVector2D@@@std@@@std@@AAE@ABUVector2D@@@Z ENDP ; std::vector<Vector2D,std::allocator<Vector2D> >::_Emplace_back_with_unused_capacity<Vector2D const &>
_TEXT	ENDS
; Function compile flags: /Odtp /RTCsu
; File c:\program files (x86)\microsoft visual studio\2017\enterprise\vc\tools\msvc\14.15.26726\include\type_traits
;	COMDAT ??$forward@ABUVector2D@@@std@@YAABUVector2D@@ABU1@@Z
_TEXT	SEGMENT
__Arg$ = 8						; size = 4
??$forward@ABUVector2D@@@std@@YAABUVector2D@@ABU1@@Z PROC ; std::forward<Vector2D const &>, COMDAT

; 1573 : 	{	// forward an lvalue as either an lvalue or an rvalue

	push	ebp
	mov	ebp, esp

; 1574 : 	return (static_cast<_Ty&&>(_Arg));

	mov	eax, DWORD PTR __Arg$[ebp]

; 1575 : 	}

	pop	ebp
	ret	0
??$forward@ABUVector2D@@@std@@YAABUVector2D@@ABU1@@Z ENDP ; std::forward<Vector2D const &>
_TEXT	ENDS
; Function compile flags: /Odtp /RTCsu
; File c:\program files (x86)\microsoft visual studio\2017\enterprise\vc\tools\msvc\14.15.26726\include\vector
;	COMDAT ??$emplace_back@ABUVector2D@@@?$vector@UVector2D@@V?$allocator@UVector2D@@@std@@@std@@QAE@ABUVector2D@@@Z
_TEXT	SEGMENT
__Result$ = -8						; size = 4
_this$ = -4						; size = 4
_<_Val_0>$ = 8						; size = 4
??$emplace_back@ABUVector2D@@@?$vector@UVector2D@@V?$allocator@UVector2D@@@std@@@std@@QAE@ABUVector2D@@@Z PROC ; std::vector<Vector2D,std::allocator<Vector2D> >::emplace_back<Vector2D const &>, COMDAT
; _this$ = ecx

; 916  : 		{	// insert by perfectly forwarding into element at end, provide strong guarantee

	push	ebp
	mov	ebp, esp
	sub	esp, 8
	mov	DWORD PTR [ebp-8], -858993460		; ccccccccH
	mov	DWORD PTR [ebp-4], -858993460		; ccccccccH
	mov	DWORD PTR _this$[ebp], ecx

; 917  : 		if (_Has_unused_capacity())

	mov	ecx, DWORD PTR _this$[ebp]
	call	?_Has_unused_capacity@?$vector@UVector2D@@V?$allocator@UVector2D@@@std@@@std@@ABE_NXZ ; std::vector<Vector2D,std::allocator<Vector2D> >::_Has_unused_capacity
	movzx	eax, al
	test	eax, eax
	je	SHORT $LN2@emplace_ba

; 918  : 			{
; 919  : 			return (_Emplace_back_with_unused_capacity(_STD forward<_Valty>(_Val)...));

	mov	ecx, DWORD PTR _<_Val_0>$[ebp]
	push	ecx
	call	??$forward@ABUVector2D@@@std@@YAABUVector2D@@ABU1@@Z ; std::forward<Vector2D const &>
	add	esp, 4
	push	eax
	mov	ecx, DWORD PTR _this$[ebp]
	call	??$_Emplace_back_with_unused_capacity@ABUVector2D@@@?$vector@UVector2D@@V?$allocator@UVector2D@@@std@@@std@@AAE@ABUVector2D@@@Z ; std::vector<Vector2D,std::allocator<Vector2D> >::_Emplace_back_with_unused_capacity<Vector2D const &>
	jmp	SHORT $LN1@emplace_ba
$LN2@emplace_ba:

; 920  : 			}
; 921  : 
; 922  : 		_Ty& _Result = *_Emplace_reallocate(this->_Mylast(), _STD forward<_Valty>(_Val)...);

	mov	edx, DWORD PTR _<_Val_0>$[ebp]
	push	edx
	call	??$forward@ABUVector2D@@@std@@YAABUVector2D@@ABU1@@Z ; std::forward<Vector2D const &>
	add	esp, 4
	push	eax
	mov	ecx, DWORD PTR _this$[ebp]
	call	?_Mylast@?$_Vector_alloc@U?$_Vec_base_types@UVector2D@@V?$allocator@UVector2D@@@std@@@std@@@std@@QAEAAPAUVector2D@@XZ ; std::_Vector_alloc<std::_Vec_base_types<Vector2D,std::allocator<Vector2D> > >::_Mylast
	mov	eax, DWORD PTR [eax]
	push	eax
	mov	ecx, DWORD PTR _this$[ebp]
	call	??$_Emplace_reallocate@ABUVector2D@@@?$vector@UVector2D@@V?$allocator@UVector2D@@@std@@@std@@QAEPAUVector2D@@QAU2@ABU2@@Z ; std::vector<Vector2D,std::allocator<Vector2D> >::_Emplace_reallocate<Vector2D const &>
	mov	DWORD PTR __Result$[ebp], eax
$LN1@emplace_ba:

; 923  : #if _HAS_CXX17
; 924  : 		return (_Result);
; 925  : #else /* ^^^ _HAS_CXX17 ^^^ // vvv !_HAS_CXX17 vvv */
; 926  : 		(void)_Result;
; 927  : #endif /* _HAS_CXX17 */
; 928  : 		}

	add	esp, 8
	cmp	ebp, esp
	call	__RTC_CheckEsp
	mov	esp, ebp
	pop	ebp
	ret	4
??$emplace_back@ABUVector2D@@@?$vector@UVector2D@@V?$allocator@UVector2D@@@std@@@std@@QAE@ABUVector2D@@@Z ENDP ; std::vector<Vector2D,std::allocator<Vector2D> >::emplace_back<Vector2D const &>
_TEXT	ENDS
; Function compile flags: /Odtp /RTCsu
; File c:\program files (x86)\microsoft visual studio\2017\enterprise\vc\tools\msvc\14.15.26726\include\xmemory0
;	COMDAT ??$construct@UVector2D@@U1@@?$_Default_allocator_traits@V?$allocator@UVector2D@@@std@@@std@@SAXAAV?$allocator@UVector2D@@@1@QAUVector2D@@$$QAU3@@Z
_TEXT	SEGMENT
$T1 = -4						; size = 4
___formal$ = 8						; size = 4
__Ptr$ = 12						; size = 4
_<_Args_0>$ = 16					; size = 4
??$construct@UVector2D@@U1@@?$_Default_allocator_traits@V?$allocator@UVector2D@@@std@@@std@@SAXAAV?$allocator@UVector2D@@@1@QAUVector2D@@$$QAU3@@Z PROC ; std::_Default_allocator_traits<std::allocator<Vector2D> >::construct<Vector2D,Vector2D>, COMDAT

; 879  : 		{	// construct _Objty(_Types...) at _Ptr

	push	ebp
	mov	ebp, esp
	push	ecx
	mov	DWORD PTR [ebp-4], -858993460		; ccccccccH

; 880  : 		::new (const_cast<void *>(static_cast<const volatile void *>(_Ptr)))

	mov	eax, DWORD PTR __Ptr$[ebp]
	push	eax
	push	16					; 00000010H
	call	??2@YAPAXIPAX@Z				; operator new
	add	esp, 8
	mov	DWORD PTR $T1[ebp], eax
	mov	ecx, DWORD PTR _<_Args_0>$[ebp]
	push	ecx
	call	??$forward@UVector2D@@@std@@YA$$QAUVector2D@@AAU1@@Z ; std::forward<Vector2D>
	add	esp, 4
	mov	edx, DWORD PTR $T1[ebp]
	mov	ecx, DWORD PTR [eax]
	mov	DWORD PTR [edx], ecx
	mov	ecx, DWORD PTR [eax+4]
	mov	DWORD PTR [edx+4], ecx
	mov	ecx, DWORD PTR [eax+8]
	mov	DWORD PTR [edx+8], ecx
	mov	eax, DWORD PTR [eax+12]
	mov	DWORD PTR [edx+12], eax

; 881  : 			_Objty(_STD forward<_Types>(_Args)...);
; 882  : 		}

	add	esp, 4
	cmp	ebp, esp
	call	__RTC_CheckEsp
	mov	esp, ebp
	pop	ebp
	ret	0
??$construct@UVector2D@@U1@@?$_Default_allocator_traits@V?$allocator@UVector2D@@@std@@@std@@SAXAAV?$allocator@UVector2D@@@1@QAUVector2D@@$$QAU3@@Z ENDP ; std::_Default_allocator_traits<std::allocator<Vector2D> >::construct<Vector2D,Vector2D>
_TEXT	ENDS
; Function compile flags: /Odtp /RTCsu
; File c:\program files (x86)\microsoft visual studio\2017\enterprise\vc\tools\msvc\14.15.26726\include\xstddef
;	COMDAT ??$_Unfancy@UVector2D@@@std@@YAPAUVector2D@@PAU1@@Z
_TEXT	SEGMENT
__Ptr$ = 8						; size = 4
??$_Unfancy@UVector2D@@@std@@YAPAUVector2D@@PAU1@@Z PROC ; std::_Unfancy<Vector2D>, COMDAT

; 345  : 	{	// do nothing for plain pointers

	push	ebp
	mov	ebp, esp

; 346  : 	return (_Ptr);

	mov	eax, DWORD PTR __Ptr$[ebp]

; 347  : 	}

	pop	ebp
	ret	0
??$_Unfancy@UVector2D@@@std@@YAPAUVector2D@@PAU1@@Z ENDP ; std::_Unfancy<Vector2D>
_TEXT	ENDS
; Function compile flags: /Odtp /RTCsu
; File c:\program files (x86)\microsoft visual studio\2017\enterprise\vc\tools\msvc\14.15.26726\include\type_traits
;	COMDAT ??$forward@UVector2D@@@std@@YA$$QAUVector2D@@AAU1@@Z
_TEXT	SEGMENT
__Arg$ = 8						; size = 4
??$forward@UVector2D@@@std@@YA$$QAUVector2D@@AAU1@@Z PROC ; std::forward<Vector2D>, COMDAT

; 1573 : 	{	// forward an lvalue as either an lvalue or an rvalue

	push	ebp
	mov	ebp, esp

; 1574 : 	return (static_cast<_Ty&&>(_Arg));

	mov	eax, DWORD PTR __Arg$[ebp]

; 1575 : 	}

	pop	ebp
	ret	0
??$forward@UVector2D@@@std@@YA$$QAUVector2D@@AAU1@@Z ENDP ; std::forward<Vector2D>
_TEXT	ENDS
; Function compile flags: /Odtp /RTCsu
; File c:\program files (x86)\microsoft visual studio\2017\enterprise\vc\tools\msvc\14.15.26726\include\type_traits
;	COMDAT ??$move@AAUVector2D@@@std@@YA$$QAUVector2D@@AAU1@@Z
_TEXT	SEGMENT
__Arg$ = 8						; size = 4
??$move@AAUVector2D@@@std@@YA$$QAUVector2D@@AAU1@@Z PROC ; std::move<Vector2D &>, COMDAT

; 1588 : 	{	// forward _Arg as movable

	push	ebp
	mov	ebp, esp

; 1589 : 	return (static_cast<remove_reference_t<_Ty>&&>(_Arg));

	mov	eax, DWORD PTR __Arg$[ebp]

; 1590 : 	}

	pop	ebp
	ret	0
??$move@AAUVector2D@@@std@@YA$$QAUVector2D@@AAU1@@Z ENDP ; std::move<Vector2D &>
_TEXT	ENDS
; Function compile flags: /Odtp /RTCsu
; File c:\program files (x86)\microsoft visual studio\2017\enterprise\vc\tools\msvc\14.15.26726\include\list
;	COMDAT ??$_Insert@UWeaponRecord@WeaponMarkers@@@?$list@UWeaponRecord@WeaponMarkers@@V?$allocator@UWeaponRecord@WeaponMarkers@@@std@@@std@@QAEXV?$_List_unchecked_const_iterator@V?$_List_val@U?$_List_simple_types@UWeaponRecord@WeaponMarkers@@@std@@@std@@U_Iterator_base0@2@@1@$$QAUWeaponRecord@WeaponMarkers@@@Z
_TEXT	SEGMENT
__Newnode$ = -16					; size = 4
__Leftnode$ = -12					; size = 4
__Rightnode$ = -8					; size = 4
_this$ = -4						; size = 4
__Where$ = 8						; size = 4
_<_Val_0>$ = 12						; size = 4
??$_Insert@UWeaponRecord@WeaponMarkers@@@?$list@UWeaponRecord@WeaponMarkers@@V?$allocator@UWeaponRecord@WeaponMarkers@@@std@@@std@@QAEXV?$_List_unchecked_const_iterator@V?$_List_val@U?$_List_simple_types@UWeaponRecord@WeaponMarkers@@@std@@@std@@U_Iterator_base0@2@@1@$$QAUWeaponRecord@WeaponMarkers@@@Z PROC ; std::list<WeaponMarkers::WeaponRecord,std::allocator<WeaponMarkers::WeaponRecord> >::_Insert<WeaponMarkers::WeaponRecord>, COMDAT
; _this$ = ecx

; 947  : 		{	// insert element at _Where

	push	ebp
	mov	ebp, esp
	sub	esp, 16					; 00000010H
	mov	eax, -858993460				; ccccccccH
	mov	DWORD PTR [ebp-16], eax
	mov	DWORD PTR [ebp-12], eax
	mov	DWORD PTR [ebp-8], eax
	mov	DWORD PTR [ebp-4], eax
	mov	DWORD PTR _this$[ebp], ecx

; 948  : 		const _Nodeptr _Rightnode = _Where._Ptr;

	mov	eax, DWORD PTR __Where$[ebp]
	mov	DWORD PTR __Rightnode$[ebp], eax

; 949  : 		const _Nodeptr _Leftnode = _Rightnode->_Prev;

	mov	ecx, DWORD PTR __Rightnode$[ebp]
	mov	edx, DWORD PTR [ecx+4]
	mov	DWORD PTR __Leftnode$[ebp], edx

; 950  : 		const _Nodeptr _Newnode = this->_Buynode(_Rightnode, _Leftnode, _STD forward<_Valty>(_Val)...);

	mov	eax, DWORD PTR _<_Val_0>$[ebp]
	push	eax
	call	??$forward@UWeaponRecord@WeaponMarkers@@@std@@YA$$QAUWeaponRecord@WeaponMarkers@@AAU12@@Z ; std::forward<WeaponMarkers::WeaponRecord>
	add	esp, 4
	push	eax
	mov	ecx, DWORD PTR __Leftnode$[ebp]
	push	ecx
	mov	edx, DWORD PTR __Rightnode$[ebp]
	push	edx
	mov	ecx, DWORD PTR _this$[ebp]
	call	??$_Buynode@UWeaponRecord@WeaponMarkers@@@?$_List_buy@UWeaponRecord@WeaponMarkers@@V?$allocator@UWeaponRecord@WeaponMarkers@@@std@@@std@@QAEPAU?$_List_node@UWeaponRecord@WeaponMarkers@@PAX@1@PAU21@0$$QAUWeaponRecord@WeaponMarkers@@@Z ; std::_List_buy<WeaponMarkers::WeaponRecord,std::allocator<WeaponMarkers::WeaponRecord> >::_Buynode<WeaponMarkers::WeaponRecord>
	mov	DWORD PTR __Newnode$[ebp], eax

; 951  : 		_Incsize(1);

	push	1
	mov	ecx, DWORD PTR _this$[ebp]
	call	?_Incsize@?$list@UWeaponRecord@WeaponMarkers@@V?$allocator@UWeaponRecord@WeaponMarkers@@@std@@@std@@QAEXI@Z ; std::list<WeaponMarkers::WeaponRecord,std::allocator<WeaponMarkers::WeaponRecord> >::_Incsize

; 952  : 		_Rightnode->_Prev = _Newnode;

	mov	eax, DWORD PTR __Rightnode$[ebp]
	mov	ecx, DWORD PTR __Newnode$[ebp]
	mov	DWORD PTR [eax+4], ecx

; 953  : 		_Leftnode->_Next = _Newnode;

	mov	edx, DWORD PTR __Leftnode$[ebp]
	mov	eax, DWORD PTR __Newnode$[ebp]
	mov	DWORD PTR [edx], eax

; 954  : 		}

	add	esp, 16					; 00000010H
	cmp	ebp, esp
	call	__RTC_CheckEsp
	mov	esp, ebp
	pop	ebp
	ret	8
??$_Insert@UWeaponRecord@WeaponMarkers@@@?$list@UWeaponRecord@WeaponMarkers@@V?$allocator@UWeaponRecord@WeaponMarkers@@@std@@@std@@QAEXV?$_List_unchecked_const_iterator@V?$_List_val@U?$_List_simple_types@UWeaponRecord@WeaponMarkers@@@std@@@std@@U_Iterator_base0@2@@1@$$QAUWeaponRecord@WeaponMarkers@@@Z ENDP ; std::list<WeaponMarkers::WeaponRecord,std::allocator<WeaponMarkers::WeaponRecord> >::_Insert<WeaponMarkers::WeaponRecord>
_TEXT	ENDS
; Function compile flags: /Odtp /RTCsu
; File c:\program files (x86)\microsoft visual studio\2017\enterprise\vc\tools\msvc\14.15.26726\include\type_traits
;	COMDAT ??$move@AAUWeaponRecord@WeaponMarkers@@@std@@YA$$QAUWeaponRecord@WeaponMarkers@@AAU12@@Z
_TEXT	SEGMENT
__Arg$ = 8						; size = 4
??$move@AAUWeaponRecord@WeaponMarkers@@@std@@YA$$QAUWeaponRecord@WeaponMarkers@@AAU12@@Z PROC ; std::move<WeaponMarkers::WeaponRecord &>, COMDAT

; 1588 : 	{	// forward _Arg as movable

	push	ebp
	mov	ebp, esp

; 1589 : 	return (static_cast<remove_reference_t<_Ty>&&>(_Arg));

	mov	eax, DWORD PTR __Arg$[ebp]

; 1590 : 	}

	pop	ebp
	ret	0
??$move@AAUWeaponRecord@WeaponMarkers@@@std@@YA$$QAUWeaponRecord@WeaponMarkers@@AAU12@@Z ENDP ; std::move<WeaponMarkers::WeaponRecord &>
_TEXT	ENDS
; Function compile flags: /Odtp /RTCsu
; File c:\program files (x86)\microsoft visual studio\2017\enterprise\vc\tools\msvc\14.15.26726\include\list
;	COMDAT ??0?$_List_unchecked_iterator@V?$_List_val@U?$_List_simple_types@UWeaponRecord@WeaponMarkers@@@std@@@std@@@std@@QAE@PAU?$_List_node@UWeaponRecord@WeaponMarkers@@PAX@1@PBV?$_List_val@U?$_List_simple_types@UWeaponRecord@WeaponMarkers@@@std@@@1@@Z
_TEXT	SEGMENT
_this$ = -4						; size = 4
__Pnode$ = 8						; size = 4
__Plist$ = 12						; size = 4
??0?$_List_unchecked_iterator@V?$_List_val@U?$_List_simple_types@UWeaponRecord@WeaponMarkers@@@std@@@std@@@std@@QAE@PAU?$_List_node@UWeaponRecord@WeaponMarkers@@PAX@1@PBV?$_List_val@U?$_List_simple_types@UWeaponRecord@WeaponMarkers@@@std@@@1@@Z PROC ; std::_List_unchecked_iterator<std::_List_val<std::_List_simple_types<WeaponMarkers::WeaponRecord> > >::_List_unchecked_iterator<std::_List_val<std::_List_simple_types<WeaponMarkers::WeaponRecord> > >, COMDAT
; _this$ = ecx

; 117  : 		{	// construct with node pointer _Pnode

	push	ebp
	mov	ebp, esp
	push	ecx
	mov	DWORD PTR [ebp-4], -858993460		; ccccccccH
	mov	DWORD PTR _this$[ebp], ecx

; 116  : 		: _Mybase(_Pnode, _Plist)

	mov	eax, DWORD PTR __Plist$[ebp]
	push	eax
	mov	ecx, DWORD PTR __Pnode$[ebp]
	push	ecx
	mov	ecx, DWORD PTR _this$[ebp]
	call	??0?$_List_unchecked_const_iterator@V?$_List_val@U?$_List_simple_types@UWeaponRecord@WeaponMarkers@@@std@@@std@@U_Iterator_base0@2@@std@@QAE@PAU?$_List_node@UWeaponRecord@WeaponMarkers@@PAX@1@PBV?$_List_val@U?$_List_simple_types@UWeaponRecord@WeaponMarkers@@@std@@@1@@Z ; std::_List_unchecked_const_iterator<std::_List_val<std::_List_simple_types<WeaponMarkers::WeaponRecord> >,std::_Iterator_base0>::_List_unchecked_const_iterator<std::_List_val<std::_List_simple_types<WeaponMarkers::WeaponRecord> >,std::_Iterator_base0>

; 118  : 		}

	mov	eax, DWORD PTR _this$[ebp]
	add	esp, 4
	cmp	ebp, esp
	call	__RTC_CheckEsp
	mov	esp, ebp
	pop	ebp
	ret	8
??0?$_List_unchecked_iterator@V?$_List_val@U?$_List_simple_types@UWeaponRecord@WeaponMarkers@@@std@@@std@@@std@@QAE@PAU?$_List_node@UWeaponRecord@WeaponMarkers@@PAX@1@PBV?$_List_val@U?$_List_simple_types@UWeaponRecord@WeaponMarkers@@@std@@@1@@Z ENDP ; std::_List_unchecked_iterator<std::_List_val<std::_List_simple_types<WeaponMarkers::WeaponRecord> > >::_List_unchecked_iterator<std::_List_val<std::_List_simple_types<WeaponMarkers::WeaponRecord> > >
_TEXT	ENDS
; Function compile flags: /Odtp /RTCsu
; File c:\program files (x86)\microsoft visual studio\2017\enterprise\vc\tools\msvc\14.15.26726\include\list
;	COMDAT ??0?$_List_unchecked_const_iterator@V?$_List_val@U?$_List_simple_types@UWeaponRecord@WeaponMarkers@@@std@@@std@@U_Iterator_base0@2@@std@@QAE@PAU?$_List_node@UWeaponRecord@WeaponMarkers@@PAX@1@PBV?$_List_val@U?$_List_simple_types@UWeaponRecord@WeaponMarkers@@@std@@@1@@Z
_TEXT	SEGMENT
_this$ = -4						; size = 4
__Pnode$ = 8						; size = 4
__Plist$ = 12						; size = 4
??0?$_List_unchecked_const_iterator@V?$_List_val@U?$_List_simple_types@UWeaponRecord@WeaponMarkers@@@std@@@std@@U_Iterator_base0@2@@std@@QAE@PAU?$_List_node@UWeaponRecord@WeaponMarkers@@PAX@1@PBV?$_List_val@U?$_List_simple_types@UWeaponRecord@WeaponMarkers@@@std@@@1@@Z PROC ; std::_List_unchecked_const_iterator<std::_List_val<std::_List_simple_types<WeaponMarkers::WeaponRecord> >,std::_Iterator_base0>::_List_unchecked_const_iterator<std::_List_val<std::_List_simple_types<WeaponMarkers::WeaponRecord> >,std::_Iterator_base0>, COMDAT
; _this$ = ecx

; 43   : 		{	// construct with node pointer _Pnode

	push	ebp
	mov	ebp, esp
	push	ecx
	mov	DWORD PTR [ebp-4], -858993460		; ccccccccH
	mov	DWORD PTR _this$[ebp], ecx

; 42   : 		: _Ptr(_Pnode)

	mov	eax, DWORD PTR _this$[ebp]
	mov	ecx, DWORD PTR __Pnode$[ebp]
	mov	DWORD PTR [eax], ecx

; 44   : 		this->_Adopt(_Plist);

	mov	edx, DWORD PTR __Plist$[ebp]
	push	edx
	mov	ecx, DWORD PTR _this$[ebp]
	call	?_Adopt@_Iterator_base0@std@@QAEXPBX@Z	; std::_Iterator_base0::_Adopt

; 45   : 		}

	mov	eax, DWORD PTR _this$[ebp]
	add	esp, 4
	cmp	ebp, esp
	call	__RTC_CheckEsp
	mov	esp, ebp
	pop	ebp
	ret	8
??0?$_List_unchecked_const_iterator@V?$_List_val@U?$_List_simple_types@UWeaponRecord@WeaponMarkers@@@std@@@std@@U_Iterator_base0@2@@std@@QAE@PAU?$_List_node@UWeaponRecord@WeaponMarkers@@PAX@1@PBV?$_List_val@U?$_List_simple_types@UWeaponRecord@WeaponMarkers@@@std@@@1@@Z ENDP ; std::_List_unchecked_const_iterator<std::_List_val<std::_List_simple_types<WeaponMarkers::WeaponRecord> >,std::_Iterator_base0>::_List_unchecked_const_iterator<std::_List_val<std::_List_simple_types<WeaponMarkers::WeaponRecord> >,std::_Iterator_base0>
_TEXT	ENDS
; Function compile flags: /Odtp /RTCsu
; File c:\program files (x86)\microsoft visual studio\2017\enterprise\vc\tools\msvc\14.15.26726\include\xstddef
;	COMDAT ??$addressof@V?$_List_val@U?$_List_simple_types@UWeaponRecord@WeaponMarkers@@@std@@@std@@@std@@YAPAV?$_List_val@U?$_List_simple_types@UWeaponRecord@WeaponMarkers@@@std@@@0@AAV10@@Z
_TEXT	SEGMENT
__Val$ = 8						; size = 4
??$addressof@V?$_List_val@U?$_List_simple_types@UWeaponRecord@WeaponMarkers@@@std@@@std@@@std@@YAPAV?$_List_val@U?$_List_simple_types@UWeaponRecord@WeaponMarkers@@@std@@@0@AAV10@@Z PROC ; std::addressof<std::_List_val<std::_List_simple_types<WeaponMarkers::WeaponRecord> > >, COMDAT

; 329  : 	{	// return address of _Val

	push	ebp
	mov	ebp, esp

; 330  : 	return (__builtin_addressof(_Val));

	mov	eax, DWORD PTR __Val$[ebp]

; 331  : 	}

	pop	ebp
	ret	0
??$addressof@V?$_List_val@U?$_List_simple_types@UWeaponRecord@WeaponMarkers@@@std@@@std@@@std@@YAPAV?$_List_val@U?$_List_simple_types@UWeaponRecord@WeaponMarkers@@@std@@@0@AAV10@@Z ENDP ; std::addressof<std::_List_val<std::_List_simple_types<WeaponMarkers::WeaponRecord> > >
_TEXT	ENDS
; Function compile flags: /Odtp /RTCsu
; File c:\program files (x86)\microsoft visual studio\2017\enterprise\vc\tools\msvc\14.15.26726\include\xmemory0
;	COMDAT ?pointer_to@?$pointer_traits@PAUWeaponRecord@WeaponMarkers@@@std@@SAPAUWeaponRecord@WeaponMarkers@@AAU34@@Z
_TEXT	SEGMENT
__Val$ = 8						; size = 4
?pointer_to@?$pointer_traits@PAUWeaponRecord@WeaponMarkers@@@std@@SAPAUWeaponRecord@WeaponMarkers@@AAU34@@Z PROC ; std::pointer_traits<WeaponMarkers::WeaponRecord *>::pointer_to, COMDAT

; 341  : 		{	// convert raw reference to pointer

	push	ebp
	mov	ebp, esp

; 342  : 		return (_STD addressof(_Val));

	mov	eax, DWORD PTR __Val$[ebp]
	push	eax
	call	??$addressof@UWeaponRecord@WeaponMarkers@@@std@@YAPAUWeaponRecord@WeaponMarkers@@AAU12@@Z ; std::addressof<WeaponMarkers::WeaponRecord>
	add	esp, 4

; 343  : 		}

	cmp	ebp, esp
	call	__RTC_CheckEsp
	pop	ebp
	ret	0
?pointer_to@?$pointer_traits@PAUWeaponRecord@WeaponMarkers@@@std@@SAPAUWeaponRecord@WeaponMarkers@@AAU34@@Z ENDP ; std::pointer_traits<WeaponMarkers::WeaponRecord *>::pointer_to
_TEXT	ENDS
; Function compile flags: /Odtp /RTCsu
;	COMDAT ??1?$_List_iterator@V?$_List_val@U?$_List_simple_types@UWeaponRecord@WeaponMarkers@@@std@@@std@@@std@@QAE@XZ
_TEXT	SEGMENT
_this$ = -4						; size = 4
??1?$_List_iterator@V?$_List_val@U?$_List_simple_types@UWeaponRecord@WeaponMarkers@@@std@@@std@@@std@@QAE@XZ PROC ; std::_List_iterator<std::_List_val<std::_List_simple_types<WeaponMarkers::WeaponRecord> > >::~_List_iterator<std::_List_val<std::_List_simple_types<WeaponMarkers::WeaponRecord> > >, COMDAT
; _this$ = ecx
	push	ebp
	mov	ebp, esp
	push	ecx
	mov	DWORD PTR [ebp-4], -858993460		; ccccccccH
	mov	DWORD PTR _this$[ebp], ecx
	mov	ecx, DWORD PTR _this$[ebp]
	call	??1?$_List_const_iterator@V?$_List_val@U?$_List_simple_types@UWeaponRecord@WeaponMarkers@@@std@@@std@@@std@@QAE@XZ
	add	esp, 4
	cmp	ebp, esp
	call	__RTC_CheckEsp
	mov	esp, ebp
	pop	ebp
	ret	0
??1?$_List_iterator@V?$_List_val@U?$_List_simple_types@UWeaponRecord@WeaponMarkers@@@std@@@std@@@std@@QAE@XZ ENDP ; std::_List_iterator<std::_List_val<std::_List_simple_types<WeaponMarkers::WeaponRecord> > >::~_List_iterator<std::_List_val<std::_List_simple_types<WeaponMarkers::WeaponRecord> > >
_TEXT	ENDS
; Function compile flags: /Odtp /RTCsu
; File c:\program files (x86)\microsoft visual studio\2017\enterprise\vc\tools\msvc\14.15.26726\include\list
;	COMDAT ??E?$_List_iterator@V?$_List_val@U?$_List_simple_types@UWeaponRecord@WeaponMarkers@@@std@@@std@@@std@@QAEAAV01@XZ
_TEXT	SEGMENT
_this$ = -4						; size = 4
??E?$_List_iterator@V?$_List_val@U?$_List_simple_types@UWeaponRecord@WeaponMarkers@@@std@@@std@@@std@@QAEAAV01@XZ PROC ; std::_List_iterator<std::_List_val<std::_List_simple_types<WeaponMarkers::WeaponRecord> > >::operator++, COMDAT
; _this$ = ecx

; 305  : 		{	// preincrement

	push	ebp
	mov	ebp, esp
	push	ecx
	mov	DWORD PTR [ebp-4], -858993460		; ccccccccH
	mov	DWORD PTR _this$[ebp], ecx

; 306  : 		++(*(_Mybase *)this);

	mov	ecx, DWORD PTR _this$[ebp]
	call	??E?$_List_const_iterator@V?$_List_val@U?$_List_simple_types@UWeaponRecord@WeaponMarkers@@@std@@@std@@@std@@QAEAAV01@XZ ; std::_List_const_iterator<std::_List_val<std::_List_simple_types<WeaponMarkers::WeaponRecord> > >::operator++

; 307  : 		return (*this);

	mov	eax, DWORD PTR _this$[ebp]

; 308  : 		}

	add	esp, 4
	cmp	ebp, esp
	call	__RTC_CheckEsp
	mov	esp, ebp
	pop	ebp
	ret	0
??E?$_List_iterator@V?$_List_val@U?$_List_simple_types@UWeaponRecord@WeaponMarkers@@@std@@@std@@@std@@QAEAAV01@XZ ENDP ; std::_List_iterator<std::_List_val<std::_List_simple_types<WeaponMarkers::WeaponRecord> > >::operator++
_TEXT	ENDS
; Function compile flags: /Odtp /RTCsu
; File c:\program files (x86)\microsoft visual studio\2017\enterprise\vc\tools\msvc\14.15.26726\include\list
;	COMDAT ??C?$_List_iterator@V?$_List_val@U?$_List_simple_types@UWeaponRecord@WeaponMarkers@@@std@@@std@@@std@@QBEPAUWeaponRecord@WeaponMarkers@@XZ
_TEXT	SEGMENT
_this$ = -4						; size = 4
??C?$_List_iterator@V?$_List_val@U?$_List_simple_types@UWeaponRecord@WeaponMarkers@@@std@@@std@@@std@@QBEPAUWeaponRecord@WeaponMarkers@@XZ PROC ; std::_List_iterator<std::_List_val<std::_List_simple_types<WeaponMarkers::WeaponRecord> > >::operator->, COMDAT
; _this$ = ecx

; 300  : 		{	// return pointer to class object

	push	ebp
	mov	ebp, esp
	push	ecx
	mov	DWORD PTR [ebp-4], -858993460		; ccccccccH
	mov	DWORD PTR _this$[ebp], ecx

; 301  : 		return (pointer_traits<pointer>::pointer_to(**this));

	mov	ecx, DWORD PTR _this$[ebp]
	call	??D?$_List_iterator@V?$_List_val@U?$_List_simple_types@UWeaponRecord@WeaponMarkers@@@std@@@std@@@std@@QBEAAUWeaponRecord@WeaponMarkers@@XZ ; std::_List_iterator<std::_List_val<std::_List_simple_types<WeaponMarkers::WeaponRecord> > >::operator*
	push	eax
	call	?pointer_to@?$pointer_traits@PAUWeaponRecord@WeaponMarkers@@@std@@SAPAUWeaponRecord@WeaponMarkers@@AAU34@@Z ; std::pointer_traits<WeaponMarkers::WeaponRecord *>::pointer_to
	add	esp, 4

; 302  : 		}

	add	esp, 4
	cmp	ebp, esp
	call	__RTC_CheckEsp
	mov	esp, ebp
	pop	ebp
	ret	0
??C?$_List_iterator@V?$_List_val@U?$_List_simple_types@UWeaponRecord@WeaponMarkers@@@std@@@std@@@std@@QBEPAUWeaponRecord@WeaponMarkers@@XZ ENDP ; std::_List_iterator<std::_List_val<std::_List_simple_types<WeaponMarkers::WeaponRecord> > >::operator->
_TEXT	ENDS
; Function compile flags: /Odtp /RTCsu
; File c:\program files (x86)\microsoft visual studio\2017\enterprise\vc\tools\msvc\14.15.26726\include\list
;	COMDAT ??D?$_List_iterator@V?$_List_val@U?$_List_simple_types@UWeaponRecord@WeaponMarkers@@@std@@@std@@@std@@QBEAAUWeaponRecord@WeaponMarkers@@XZ
_TEXT	SEGMENT
_this$ = -4						; size = 4
??D?$_List_iterator@V?$_List_val@U?$_List_simple_types@UWeaponRecord@WeaponMarkers@@@std@@@std@@@std@@QBEAAUWeaponRecord@WeaponMarkers@@XZ PROC ; std::_List_iterator<std::_List_val<std::_List_simple_types<WeaponMarkers::WeaponRecord> > >::operator*, COMDAT
; _this$ = ecx

; 295  : 		{	// return designated value

	push	ebp
	mov	ebp, esp
	push	ecx
	mov	DWORD PTR [ebp-4], -858993460		; ccccccccH
	mov	DWORD PTR _this$[ebp], ecx

; 296  : 		return ((reference)**(_Mybase *)this);

	mov	ecx, DWORD PTR _this$[ebp]
	call	??D?$_List_const_iterator@V?$_List_val@U?$_List_simple_types@UWeaponRecord@WeaponMarkers@@@std@@@std@@@std@@QBEABUWeaponRecord@WeaponMarkers@@XZ ; std::_List_const_iterator<std::_List_val<std::_List_simple_types<WeaponMarkers::WeaponRecord> > >::operator*

; 297  : 		}

	add	esp, 4
	cmp	ebp, esp
	call	__RTC_CheckEsp
	mov	esp, ebp
	pop	ebp
	ret	0
??D?$_List_iterator@V?$_List_val@U?$_List_simple_types@UWeaponRecord@WeaponMarkers@@@std@@@std@@@std@@QBEAAUWeaponRecord@WeaponMarkers@@XZ ENDP ; std::_List_iterator<std::_List_val<std::_List_simple_types<WeaponMarkers::WeaponRecord> > >::operator*
_TEXT	ENDS
; Function compile flags: /Odtp /RTCsu
; File c:\program files (x86)\microsoft visual studio\2017\enterprise\vc\tools\msvc\14.15.26726\include\list
;	COMDAT ??0?$_List_iterator@V?$_List_val@U?$_List_simple_types@UWeaponRecord@WeaponMarkers@@@std@@@std@@@std@@QAE@PAU?$_List_node@UWeaponRecord@WeaponMarkers@@PAX@1@PBV?$_List_val@U?$_List_simple_types@UWeaponRecord@WeaponMarkers@@@std@@@1@@Z
_TEXT	SEGMENT
_this$ = -4						; size = 4
__Pnode$ = 8						; size = 4
__Plist$ = 12						; size = 4
??0?$_List_iterator@V?$_List_val@U?$_List_simple_types@UWeaponRecord@WeaponMarkers@@@std@@@std@@@std@@QAE@PAU?$_List_node@UWeaponRecord@WeaponMarkers@@PAX@1@PBV?$_List_val@U?$_List_simple_types@UWeaponRecord@WeaponMarkers@@@std@@@1@@Z PROC ; std::_List_iterator<std::_List_val<std::_List_simple_types<WeaponMarkers::WeaponRecord> > >::_List_iterator<std::_List_val<std::_List_simple_types<WeaponMarkers::WeaponRecord> > >, COMDAT
; _this$ = ecx

; 291  : 		{	// construct with node pointer _Pnode

	push	ebp
	mov	ebp, esp
	push	ecx
	mov	DWORD PTR [ebp-4], -858993460		; ccccccccH
	mov	DWORD PTR _this$[ebp], ecx

; 290  : 		: _Mybase(_Pnode, _Plist)

	mov	eax, DWORD PTR __Plist$[ebp]
	push	eax
	mov	ecx, DWORD PTR __Pnode$[ebp]
	push	ecx
	mov	ecx, DWORD PTR _this$[ebp]
	call	??0?$_List_const_iterator@V?$_List_val@U?$_List_simple_types@UWeaponRecord@WeaponMarkers@@@std@@@std@@@std@@QAE@PAU?$_List_node@UWeaponRecord@WeaponMarkers@@PAX@1@PBV?$_List_val@U?$_List_simple_types@UWeaponRecord@WeaponMarkers@@@std@@@1@@Z ; std::_List_const_iterator<std::_List_val<std::_List_simple_types<WeaponMarkers::WeaponRecord> > >::_List_const_iterator<std::_List_val<std::_List_simple_types<WeaponMarkers::WeaponRecord> > >

; 292  : 		}

	mov	eax, DWORD PTR _this$[ebp]
	add	esp, 4
	cmp	ebp, esp
	call	__RTC_CheckEsp
	mov	esp, ebp
	pop	ebp
	ret	8
??0?$_List_iterator@V?$_List_val@U?$_List_simple_types@UWeaponRecord@WeaponMarkers@@@std@@@std@@@std@@QAE@PAU?$_List_node@UWeaponRecord@WeaponMarkers@@PAX@1@PBV?$_List_val@U?$_List_simple_types@UWeaponRecord@WeaponMarkers@@@std@@@1@@Z ENDP ; std::_List_iterator<std::_List_val<std::_List_simple_types<WeaponMarkers::WeaponRecord> > >::_List_iterator<std::_List_val<std::_List_simple_types<WeaponMarkers::WeaponRecord> > >
_TEXT	ENDS
; Function compile flags: /Odtp /RTCsu
;	COMDAT ??1?$_List_const_iterator@V?$_List_val@U?$_List_simple_types@UWeaponRecord@WeaponMarkers@@@std@@@std@@@std@@QAE@XZ
_TEXT	SEGMENT
_this$ = -4						; size = 4
??1?$_List_const_iterator@V?$_List_val@U?$_List_simple_types@UWeaponRecord@WeaponMarkers@@@std@@@std@@@std@@QAE@XZ PROC ; std::_List_const_iterator<std::_List_val<std::_List_simple_types<WeaponMarkers::WeaponRecord> > >::~_List_const_iterator<std::_List_val<std::_List_simple_types<WeaponMarkers::WeaponRecord> > >, COMDAT
; _this$ = ecx
	push	ebp
	mov	ebp, esp
	push	ecx
	mov	DWORD PTR [ebp-4], -858993460		; ccccccccH
	mov	DWORD PTR _this$[ebp], ecx
	mov	ecx, DWORD PTR _this$[ebp]
	call	??1?$_List_unchecked_const_iterator@V?$_List_val@U?$_List_simple_types@UWeaponRecord@WeaponMarkers@@@std@@@std@@U_Iterator_base12@2@@std@@QAE@XZ
	add	esp, 4
	cmp	ebp, esp
	call	__RTC_CheckEsp
	mov	esp, ebp
	pop	ebp
	ret	0
??1?$_List_const_iterator@V?$_List_val@U?$_List_simple_types@UWeaponRecord@WeaponMarkers@@@std@@@std@@@std@@QAE@XZ ENDP ; std::_List_const_iterator<std::_List_val<std::_List_simple_types<WeaponMarkers::WeaponRecord> > >::~_List_const_iterator<std::_List_val<std::_List_simple_types<WeaponMarkers::WeaponRecord> > >
_TEXT	ENDS
; Function compile flags: /Odtp /RTCsu
; File c:\program files (x86)\microsoft visual studio\2017\enterprise\vc\tools\msvc\14.15.26726\include\list
;	COMDAT ??9?$_List_const_iterator@V?$_List_val@U?$_List_simple_types@UWeaponRecord@WeaponMarkers@@@std@@@std@@@std@@QBE_NABV01@@Z
_TEXT	SEGMENT
tv69 = -8						; size = 4
_this$ = -4						; size = 4
__Right$ = 8						; size = 4
??9?$_List_const_iterator@V?$_List_val@U?$_List_simple_types@UWeaponRecord@WeaponMarkers@@@std@@@std@@@std@@QBE_NABV01@@Z PROC ; std::_List_const_iterator<std::_List_val<std::_List_simple_types<WeaponMarkers::WeaponRecord> > >::operator!=, COMDAT
; _this$ = ecx

; 247  : 		{	// test for iterator inequality

	push	ebp
	mov	ebp, esp
	sub	esp, 8
	mov	DWORD PTR [ebp-8], -858993460		; ccccccccH
	mov	DWORD PTR [ebp-4], -858993460		; ccccccccH
	mov	DWORD PTR _this$[ebp], ecx

; 248  : 		return (!(*this == _Right));

	mov	eax, DWORD PTR __Right$[ebp]
	push	eax
	mov	ecx, DWORD PTR _this$[ebp]
	call	??8?$_List_const_iterator@V?$_List_val@U?$_List_simple_types@UWeaponRecord@WeaponMarkers@@@std@@@std@@@std@@QBE_NABV01@@Z ; std::_List_const_iterator<std::_List_val<std::_List_simple_types<WeaponMarkers::WeaponRecord> > >::operator==
	movzx	ecx, al
	test	ecx, ecx
	jne	SHORT $LN3@operator
	mov	DWORD PTR tv69[ebp], 1
	jmp	SHORT $LN4@operator
$LN3@operator:
	mov	DWORD PTR tv69[ebp], 0
$LN4@operator:
	mov	al, BYTE PTR tv69[ebp]

; 249  : 		}

	add	esp, 8
	cmp	ebp, esp
	call	__RTC_CheckEsp
	mov	esp, ebp
	pop	ebp
	ret	4
??9?$_List_const_iterator@V?$_List_val@U?$_List_simple_types@UWeaponRecord@WeaponMarkers@@@std@@@std@@@std@@QBE_NABV01@@Z ENDP ; std::_List_const_iterator<std::_List_val<std::_List_simple_types<WeaponMarkers::WeaponRecord> > >::operator!=
_TEXT	ENDS
; Function compile flags: /Odtp /RTCsu
; File c:\program files (x86)\microsoft visual studio\2017\enterprise\vc\tools\msvc\14.15.26726\include\list
;	COMDAT ??8?$_List_const_iterator@V?$_List_val@U?$_List_simple_types@UWeaponRecord@WeaponMarkers@@@std@@@std@@@std@@QBE_NABV01@@Z
_TEXT	SEGMENT
tv136 = -8						; size = 4
_this$ = -4						; size = 4
__Right$ = 8						; size = 4
??8?$_List_const_iterator@V?$_List_val@U?$_List_simple_types@UWeaponRecord@WeaponMarkers@@@std@@@std@@@std@@QBE_NABV01@@Z PROC ; std::_List_const_iterator<std::_List_val<std::_List_simple_types<WeaponMarkers::WeaponRecord> > >::operator==, COMDAT
; _this$ = ecx

; 238  : 		{	// test for iterator equality

	push	ebp
	mov	ebp, esp
	sub	esp, 8
	push	esi
	mov	DWORD PTR [ebp-8], -858993460		; ccccccccH
	mov	DWORD PTR [ebp-4], -858993460		; ccccccccH
	mov	DWORD PTR _this$[ebp], ecx
$LN4@operator:

; 239  :  #if _ITERATOR_DEBUG_LEVEL != 0
; 240  : 		_STL_VERIFY(this->_Getcont() == _Right._Getcont(), "list iterators incompatible");

	mov	ecx, DWORD PTR _this$[ebp]
	call	?_Getcont@_Iterator_base12@std@@QBEPBU_Container_base12@2@XZ ; std::_Iterator_base12::_Getcont
	mov	esi, eax
	mov	ecx, DWORD PTR __Right$[ebp]
	call	?_Getcont@_Iterator_base12@std@@QBEPBU_Container_base12@2@XZ ; std::_Iterator_base12::_Getcont
	cmp	esi, eax
	jne	SHORT $LN7@operator
	jmp	SHORT $LN2@operator
$LN7@operator:
	push	OFFSET ??_C@_0BM@BALDKKHE@list?5iterators?5incompatible@
	push	OFFSET ??_C@_02DKCKIIND@?$CFs@
	push	0
	push	240					; 000000f0H
	push	OFFSET ??_C@_0GG@PPINKBLF@c?3?2program?5files?5?$CIx86?$CJ?2microsof@
	push	2
	call	__CrtDbgReport
	add	esp, 24					; 00000018H
	cmp	eax, 1
	jne	SHORT $LN11@operator
	int	3
$LN11@operator:
	push	0
	push	240					; 000000f0H
	push	OFFSET ??_C@_1MM@EBFNFMAJ@?$AAc?$AA?3?$AA?2?$AAp?$AAr?$AAo?$AAg?$AAr?$AAa?$AAm?$AA?5?$AAf?$AAi?$AAl?$AAe@
	push	OFFSET ??_C@_1BAG@MBHDMLOB@?$AAs?$AAt?$AAd?$AA?3?$AA?3?$AA_?$AAL?$AAi?$AAs?$AAt?$AA_?$AAc?$AAo?$AAn?$AAs@
	push	OFFSET ??_C@_1DM@KDLJAKOP@?$AA?$CC?$AAl?$AAi?$AAs?$AAt?$AA?5?$AAi?$AAt?$AAe?$AAr?$AAa?$AAt?$AAo?$AAr?$AAs@
	call	__invalid_parameter
	add	esp, 20					; 00000014H
	xor	ecx, ecx
	jne	SHORT $LN7@operator
$LN2@operator:
	xor	edx, edx
	jne	SHORT $LN4@operator

; 241  :  #endif /* _ITERATOR_DEBUG_LEVEL != 0 */
; 242  : 
; 243  : 		return (this->_Ptr == _Right._Ptr);

	mov	eax, DWORD PTR _this$[ebp]
	mov	ecx, DWORD PTR __Right$[ebp]
	mov	edx, DWORD PTR [eax+8]
	cmp	edx, DWORD PTR [ecx+8]
	jne	SHORT $LN12@operator
	mov	DWORD PTR tv136[ebp], 1
	jmp	SHORT $LN13@operator
$LN12@operator:
	mov	DWORD PTR tv136[ebp], 0
$LN13@operator:
	mov	al, BYTE PTR tv136[ebp]

; 244  : 		}

	pop	esi
	add	esp, 8
	cmp	ebp, esp
	call	__RTC_CheckEsp
	mov	esp, ebp
	pop	ebp
	ret	4
??8?$_List_const_iterator@V?$_List_val@U?$_List_simple_types@UWeaponRecord@WeaponMarkers@@@std@@@std@@@std@@QBE_NABV01@@Z ENDP ; std::_List_const_iterator<std::_List_val<std::_List_simple_types<WeaponMarkers::WeaponRecord> > >::operator==
_TEXT	ENDS
; Function compile flags: /Odtp /RTCsu
; File c:\program files (x86)\microsoft visual studio\2017\enterprise\vc\tools\msvc\14.15.26726\include\list
;	COMDAT ??E?$_List_const_iterator@V?$_List_val@U?$_List_simple_types@UWeaponRecord@WeaponMarkers@@@std@@@std@@@std@@QAEAAV01@XZ
_TEXT	SEGMENT
__Mycont$ = -8						; size = 4
_this$ = -4						; size = 4
??E?$_List_const_iterator@V?$_List_val@U?$_List_simple_types@UWeaponRecord@WeaponMarkers@@@std@@@std@@@std@@QAEAAV01@XZ PROC ; std::_List_const_iterator<std::_List_val<std::_List_simple_types<WeaponMarkers::WeaponRecord> > >::operator++, COMDAT
; _this$ = ecx

; 199  : 		{	// preincrement

	push	ebp
	mov	ebp, esp
	sub	esp, 8
	mov	DWORD PTR [ebp-8], -858993460		; ccccccccH
	mov	DWORD PTR [ebp-4], -858993460		; ccccccccH
	mov	DWORD PTR _this$[ebp], ecx

; 200  :  #if _ITERATOR_DEBUG_LEVEL != 0
; 201  : 		const auto _Mycont = static_cast<const _Mylist *>(this->_Getcont());

	mov	ecx, DWORD PTR _this$[ebp]
	call	?_Getcont@_Iterator_base12@std@@QBEPBU_Container_base12@2@XZ ; std::_Iterator_base12::_Getcont
	mov	DWORD PTR __Mycont$[ebp], eax
$LN4@operator:

; 202  : 		_STL_ASSERT(_Mycont, "cannot increment value-initialized list iterator");

	cmp	DWORD PTR __Mycont$[ebp], 0
	je	SHORT $LN7@operator
	jmp	SHORT $LN2@operator
$LN7@operator:
	push	OFFSET ??_C@_0DB@ENBCPNKO@cannot?5increment?5value?9initiali@
	push	OFFSET ??_C@_02DKCKIIND@?$CFs@
	push	0
	push	202					; 000000caH
	push	OFFSET ??_C@_0GG@PPINKBLF@c?3?2program?5files?5?$CIx86?$CJ?2microsof@
	push	2
	call	__CrtDbgReport
	add	esp, 24					; 00000018H
	cmp	eax, 1
	jne	SHORT $LN19@operator
	int	3
$LN19@operator:
	push	0
	push	202					; 000000caH
	push	OFFSET ??_C@_1MM@EBFNFMAJ@?$AAc?$AA?3?$AA?2?$AAp?$AAr?$AAo?$AAg?$AAr?$AAa?$AAm?$AA?5?$AAf?$AAi?$AAl?$AAe@
	push	OFFSET ??_C@_1BAG@GBIOCCCE@?$AAs?$AAt?$AAd?$AA?3?$AA?3?$AA_?$AAL?$AAi?$AAs?$AAt?$AA_?$AAc?$AAo?$AAn?$AAs@
	push	OFFSET ??_C@_1GG@JLMAGPNK@?$AA?$CC?$AAc?$AAa?$AAn?$AAn?$AAo?$AAt?$AA?5?$AAi?$AAn?$AAc?$AAr?$AAe?$AAm?$AAe@
	call	__invalid_parameter
	add	esp, 20					; 00000014H
	xor	ecx, ecx
	jne	SHORT $LN7@operator
$LN2@operator:
	xor	edx, edx
	jne	SHORT $LN4@operator
$LN10@operator:

; 203  : 		_STL_VERIFY(this->_Ptr != _Mycont->_Myhead, "cannot increment end list iterator");

	mov	eax, DWORD PTR _this$[ebp]
	mov	ecx, DWORD PTR __Mycont$[ebp]
	mov	edx, DWORD PTR [eax+8]
	cmp	edx, DWORD PTR [ecx+4]
	je	SHORT $LN13@operator
	jmp	SHORT $LN8@operator
$LN13@operator:
	push	OFFSET ??_C@_0CD@PMFMCEG@cannot?5increment?5end?5list?5itera@
	push	OFFSET ??_C@_02DKCKIIND@?$CFs@
	push	0
	push	203					; 000000cbH
	push	OFFSET ??_C@_0GG@PPINKBLF@c?3?2program?5files?5?$CIx86?$CJ?2microsof@
	push	2
	call	__CrtDbgReport
	add	esp, 24					; 00000018H
	cmp	eax, 1
	jne	SHORT $LN20@operator
	int	3
$LN20@operator:
	push	0
	push	203					; 000000cbH
	push	OFFSET ??_C@_1MM@EBFNFMAJ@?$AAc?$AA?3?$AA?2?$AAp?$AAr?$AAo?$AAg?$AAr?$AAa?$AAm?$AA?5?$AAf?$AAi?$AAl?$AAe@
	push	OFFSET ??_C@_1BAG@GBIOCCCE@?$AAs?$AAt?$AAd?$AA?3?$AA?3?$AA_?$AAL?$AAi?$AAs?$AAt?$AA_?$AAc?$AAo?$AAn?$AAs@
	push	OFFSET ??_C@_1EK@OKKCFDJN@?$AA?$CC?$AAc?$AAa?$AAn?$AAn?$AAo?$AAt?$AA?5?$AAi?$AAn?$AAc?$AAr?$AAe?$AAm?$AAe@
	call	__invalid_parameter
	add	esp, 20					; 00000014H
	xor	ecx, ecx
	jne	SHORT $LN13@operator
$LN8@operator:
	xor	edx, edx
	jne	SHORT $LN10@operator

; 204  :  #endif /* _ITERATOR_DEBUG_LEVEL != 0 */
; 205  : 
; 206  : 		this->_Ptr = this->_Ptr->_Next;

	mov	eax, DWORD PTR _this$[ebp]
	mov	ecx, DWORD PTR [eax+8]
	mov	edx, DWORD PTR _this$[ebp]
	mov	eax, DWORD PTR [ecx]
	mov	DWORD PTR [edx+8], eax

; 207  : 		return (*this);

	mov	eax, DWORD PTR _this$[ebp]

; 208  : 		}

	add	esp, 8
	cmp	ebp, esp
	call	__RTC_CheckEsp
	mov	esp, ebp
	pop	ebp
	ret	0
??E?$_List_const_iterator@V?$_List_val@U?$_List_simple_types@UWeaponRecord@WeaponMarkers@@@std@@@std@@@std@@QAEAAV01@XZ ENDP ; std::_List_const_iterator<std::_List_val<std::_List_simple_types<WeaponMarkers::WeaponRecord> > >::operator++
_TEXT	ENDS
; Function compile flags: /Odtp /RTCsu
; File c:\program files (x86)\microsoft visual studio\2017\enterprise\vc\tools\msvc\14.15.26726\include\list
;	COMDAT ??D?$_List_const_iterator@V?$_List_val@U?$_List_simple_types@UWeaponRecord@WeaponMarkers@@@std@@@std@@@std@@QBEABUWeaponRecord@WeaponMarkers@@XZ
_TEXT	SEGMENT
__Mycont$ = -8						; size = 4
_this$ = -4						; size = 4
??D?$_List_const_iterator@V?$_List_val@U?$_List_simple_types@UWeaponRecord@WeaponMarkers@@@std@@@std@@@std@@QBEABUWeaponRecord@WeaponMarkers@@XZ PROC ; std::_List_const_iterator<std::_List_val<std::_List_simple_types<WeaponMarkers::WeaponRecord> > >::operator*, COMDAT
; _this$ = ecx

; 183  : 		{	// return designated value

	push	ebp
	mov	ebp, esp
	sub	esp, 8
	mov	DWORD PTR [ebp-8], -858993460		; ccccccccH
	mov	DWORD PTR [ebp-4], -858993460		; ccccccccH
	mov	DWORD PTR _this$[ebp], ecx

; 184  :  #if _ITERATOR_DEBUG_LEVEL != 0
; 185  : 		const auto _Mycont = static_cast<const _Mylist *>(this->_Getcont());

	mov	ecx, DWORD PTR _this$[ebp]
	call	?_Getcont@_Iterator_base12@std@@QBEPBU_Container_base12@2@XZ ; std::_Iterator_base12::_Getcont
	mov	DWORD PTR __Mycont$[ebp], eax
$LN4@operator:

; 186  : 		_STL_ASSERT(_Mycont, "cannot dereference value-initialized list iterator");

	cmp	DWORD PTR __Mycont$[ebp], 0
	je	SHORT $LN7@operator
	jmp	SHORT $LN2@operator
$LN7@operator:
	push	OFFSET ??_C@_0DD@MBIHGLJE@cannot?5dereference?5value?9initia@
	push	OFFSET ??_C@_02DKCKIIND@?$CFs@
	push	0
	push	186					; 000000baH
	push	OFFSET ??_C@_0GG@PPINKBLF@c?3?2program?5files?5?$CIx86?$CJ?2microsof@
	push	2
	call	__CrtDbgReport
	add	esp, 24					; 00000018H
	cmp	eax, 1
	jne	SHORT $LN19@operator
	int	3
$LN19@operator:
	push	0
	push	186					; 000000baH
	push	OFFSET ??_C@_1MM@EBFNFMAJ@?$AAc?$AA?3?$AA?2?$AAp?$AAr?$AAo?$AAg?$AAr?$AAa?$AAm?$AA?5?$AAf?$AAi?$AAl?$AAe@
	push	OFFSET ??_C@_1BAE@MGIFEJMB@?$AAs?$AAt?$AAd?$AA?3?$AA?3?$AA_?$AAL?$AAi?$AAs?$AAt?$AA_?$AAc?$AAo?$AAn?$AAs@
	push	OFFSET ??_C@_1GK@NKIMOCIG@?$AA?$CC?$AAc?$AAa?$AAn?$AAn?$AAo?$AAt?$AA?5?$AAd?$AAe?$AAr?$AAe?$AAf?$AAe?$AAr@
	call	__invalid_parameter
	add	esp, 20					; 00000014H
	xor	ecx, ecx
	jne	SHORT $LN7@operator
$LN2@operator:
	xor	edx, edx
	jne	SHORT $LN4@operator
$LN10@operator:

; 187  : 		_STL_VERIFY(this->_Ptr != _Mycont->_Myhead, "cannot dereference end list iterator");

	mov	eax, DWORD PTR _this$[ebp]
	mov	ecx, DWORD PTR __Mycont$[ebp]
	mov	edx, DWORD PTR [eax+8]
	cmp	edx, DWORD PTR [ecx+4]
	je	SHORT $LN13@operator
	jmp	SHORT $LN8@operator
$LN13@operator:
	push	OFFSET ??_C@_0CF@JCBFHMPL@cannot?5dereference?5end?5list?5ite@
	push	OFFSET ??_C@_02DKCKIIND@?$CFs@
	push	0
	push	187					; 000000bbH
	push	OFFSET ??_C@_0GG@PPINKBLF@c?3?2program?5files?5?$CIx86?$CJ?2microsof@
	push	2
	call	__CrtDbgReport
	add	esp, 24					; 00000018H
	cmp	eax, 1
	jne	SHORT $LN20@operator
	int	3
$LN20@operator:
	push	0
	push	187					; 000000bbH
	push	OFFSET ??_C@_1MM@EBFNFMAJ@?$AAc?$AA?3?$AA?2?$AAp?$AAr?$AAo?$AAg?$AAr?$AAa?$AAm?$AA?5?$AAf?$AAi?$AAl?$AAe@
	push	OFFSET ??_C@_1BAE@MGIFEJMB@?$AAs?$AAt?$AAd?$AA?3?$AA?3?$AA_?$AAL?$AAi?$AAs?$AAt?$AA_?$AAc?$AAo?$AAn?$AAs@
	push	OFFSET ??_C@_1EO@CNEFBDCF@?$AA?$CC?$AAc?$AAa?$AAn?$AAn?$AAo?$AAt?$AA?5?$AAd?$AAe?$AAr?$AAe?$AAf?$AAe?$AAr@
	call	__invalid_parameter
	add	esp, 20					; 00000014H
	xor	ecx, ecx
	jne	SHORT $LN13@operator
$LN8@operator:
	xor	edx, edx
	jne	SHORT $LN10@operator

; 188  :  #endif /* _ITERATOR_DEBUG_LEVEL != 0 */
; 189  : 
; 190  : 		return (this->_Ptr->_Myval);

	mov	eax, DWORD PTR _this$[ebp]
	mov	eax, DWORD PTR [eax+8]
	add	eax, 8

; 191  : 		}

	add	esp, 8
	cmp	ebp, esp
	call	__RTC_CheckEsp
	mov	esp, ebp
	pop	ebp
	ret	0
??D?$_List_const_iterator@V?$_List_val@U?$_List_simple_types@UWeaponRecord@WeaponMarkers@@@std@@@std@@@std@@QBEABUWeaponRecord@WeaponMarkers@@XZ ENDP ; std::_List_const_iterator<std::_List_val<std::_List_simple_types<WeaponMarkers::WeaponRecord> > >::operator*
_TEXT	ENDS
; Function compile flags: /Odtp /RTCsu
; File c:\program files (x86)\microsoft visual studio\2017\enterprise\vc\tools\msvc\14.15.26726\include\list
;	COMDAT ??0?$_List_const_iterator@V?$_List_val@U?$_List_simple_types@UWeaponRecord@WeaponMarkers@@@std@@@std@@@std@@QAE@PAU?$_List_node@UWeaponRecord@WeaponMarkers@@PAX@1@PBV?$_List_val@U?$_List_simple_types@UWeaponRecord@WeaponMarkers@@@std@@@1@@Z
_TEXT	SEGMENT
_this$ = -4						; size = 4
__Pnode$ = 8						; size = 4
__Plist$ = 12						; size = 4
??0?$_List_const_iterator@V?$_List_val@U?$_List_simple_types@UWeaponRecord@WeaponMarkers@@@std@@@std@@@std@@QAE@PAU?$_List_node@UWeaponRecord@WeaponMarkers@@PAX@1@PBV?$_List_val@U?$_List_simple_types@UWeaponRecord@WeaponMarkers@@@std@@@1@@Z PROC ; std::_List_const_iterator<std::_List_val<std::_List_simple_types<WeaponMarkers::WeaponRecord> > >::_List_const_iterator<std::_List_val<std::_List_simple_types<WeaponMarkers::WeaponRecord> > >, COMDAT
; _this$ = ecx

; 179  : 		{	// construct with node pointer _Pnode

	push	ebp
	mov	ebp, esp
	push	ecx
	mov	DWORD PTR [ebp-4], -858993460		; ccccccccH
	mov	DWORD PTR _this$[ebp], ecx

; 178  : 		: _Mybase(_Pnode, _Plist)

	mov	eax, DWORD PTR __Plist$[ebp]
	push	eax
	mov	ecx, DWORD PTR __Pnode$[ebp]
	push	ecx
	mov	ecx, DWORD PTR _this$[ebp]
	call	??0?$_List_unchecked_const_iterator@V?$_List_val@U?$_List_simple_types@UWeaponRecord@WeaponMarkers@@@std@@@std@@U_Iterator_base12@2@@std@@QAE@PAU?$_List_node@UWeaponRecord@WeaponMarkers@@PAX@1@PBV?$_List_val@U?$_List_simple_types@UWeaponRecord@WeaponMarkers@@@std@@@1@@Z ; std::_List_unchecked_const_iterator<std::_List_val<std::_List_simple_types<WeaponMarkers::WeaponRecord> >,std::_Iterator_base12>::_List_unchecked_const_iterator<std::_List_val<std::_List_simple_types<WeaponMarkers::WeaponRecord> >,std::_Iterator_base12>

; 180  : 		}

	mov	eax, DWORD PTR _this$[ebp]
	add	esp, 4
	cmp	ebp, esp
	call	__RTC_CheckEsp
	mov	esp, ebp
	pop	ebp
	ret	8
??0?$_List_const_iterator@V?$_List_val@U?$_List_simple_types@UWeaponRecord@WeaponMarkers@@@std@@@std@@@std@@QAE@PAU?$_List_node@UWeaponRecord@WeaponMarkers@@PAX@1@PBV?$_List_val@U?$_List_simple_types@UWeaponRecord@WeaponMarkers@@@std@@@1@@Z ENDP ; std::_List_const_iterator<std::_List_val<std::_List_simple_types<WeaponMarkers::WeaponRecord> > >::_List_const_iterator<std::_List_val<std::_List_simple_types<WeaponMarkers::WeaponRecord> > >
_TEXT	ENDS
; Function compile flags: /Odtp /RTCsu
;	COMDAT ??1?$_List_unchecked_const_iterator@V?$_List_val@U?$_List_simple_types@UWeaponRecord@WeaponMarkers@@@std@@@std@@U_Iterator_base12@2@@std@@QAE@XZ
_TEXT	SEGMENT
_this$ = -4						; size = 4
??1?$_List_unchecked_const_iterator@V?$_List_val@U?$_List_simple_types@UWeaponRecord@WeaponMarkers@@@std@@@std@@U_Iterator_base12@2@@std@@QAE@XZ PROC ; std::_List_unchecked_const_iterator<std::_List_val<std::_List_simple_types<WeaponMarkers::WeaponRecord> >,std::_Iterator_base12>::~_List_unchecked_const_iterator<std::_List_val<std::_List_simple_types<WeaponMarkers::WeaponRecord> >,std::_Iterator_base12>, COMDAT
; _this$ = ecx
	push	ebp
	mov	ebp, esp
	push	ecx
	mov	DWORD PTR [ebp-4], -858993460		; ccccccccH
	mov	DWORD PTR _this$[ebp], ecx
	mov	ecx, DWORD PTR _this$[ebp]
	call	??1_Iterator_base12@std@@QAE@XZ		; std::_Iterator_base12::~_Iterator_base12
	add	esp, 4
	cmp	ebp, esp
	call	__RTC_CheckEsp
	mov	esp, ebp
	pop	ebp
	ret	0
??1?$_List_unchecked_const_iterator@V?$_List_val@U?$_List_simple_types@UWeaponRecord@WeaponMarkers@@@std@@@std@@U_Iterator_base12@2@@std@@QAE@XZ ENDP ; std::_List_unchecked_const_iterator<std::_List_val<std::_List_simple_types<WeaponMarkers::WeaponRecord> >,std::_Iterator_base12>::~_List_unchecked_const_iterator<std::_List_val<std::_List_simple_types<WeaponMarkers::WeaponRecord> >,std::_Iterator_base12>
_TEXT	ENDS
; Function compile flags: /Odtp /RTCsu
; File c:\program files (x86)\microsoft visual studio\2017\enterprise\vc\tools\msvc\14.15.26726\include\list
;	COMDAT ??0?$_List_unchecked_const_iterator@V?$_List_val@U?$_List_simple_types@UWeaponRecord@WeaponMarkers@@@std@@@std@@U_Iterator_base12@2@@std@@QAE@PAU?$_List_node@UWeaponRecord@WeaponMarkers@@PAX@1@PBV?$_List_val@U?$_List_simple_types@UWeaponRecord@WeaponMarkers@@@std@@@1@@Z
_TEXT	SEGMENT
_this$ = -4						; size = 4
__Pnode$ = 8						; size = 4
__Plist$ = 12						; size = 4
??0?$_List_unchecked_const_iterator@V?$_List_val@U?$_List_simple_types@UWeaponRecord@WeaponMarkers@@@std@@@std@@U_Iterator_base12@2@@std@@QAE@PAU?$_List_node@UWeaponRecord@WeaponMarkers@@PAX@1@PBV?$_List_val@U?$_List_simple_types@UWeaponRecord@WeaponMarkers@@@std@@@1@@Z PROC ; std::_List_unchecked_const_iterator<std::_List_val<std::_List_simple_types<WeaponMarkers::WeaponRecord> >,std::_Iterator_base12>::_List_unchecked_const_iterator<std::_List_val<std::_List_simple_types<WeaponMarkers::WeaponRecord> >,std::_Iterator_base12>, COMDAT
; _this$ = ecx

; 43   : 		{	// construct with node pointer _Pnode

	push	ebp
	mov	ebp, esp
	push	ecx
	mov	DWORD PTR [ebp-4], -858993460		; ccccccccH
	mov	DWORD PTR _this$[ebp], ecx
	mov	ecx, DWORD PTR _this$[ebp]
	call	??0_Iterator_base12@std@@QAE@XZ		; std::_Iterator_base12::_Iterator_base12

; 42   : 		: _Ptr(_Pnode)

	mov	eax, DWORD PTR _this$[ebp]
	mov	ecx, DWORD PTR __Pnode$[ebp]
	mov	DWORD PTR [eax+8], ecx

; 44   : 		this->_Adopt(_Plist);

	mov	edx, DWORD PTR __Plist$[ebp]
	push	edx
	mov	ecx, DWORD PTR _this$[ebp]
	call	?_Adopt@_Iterator_base12@std@@QAEXPBU_Container_base12@2@@Z ; std::_Iterator_base12::_Adopt

; 45   : 		}

	mov	eax, DWORD PTR _this$[ebp]
	add	esp, 4
	cmp	ebp, esp
	call	__RTC_CheckEsp
	mov	esp, ebp
	pop	ebp
	ret	8
??0?$_List_unchecked_const_iterator@V?$_List_val@U?$_List_simple_types@UWeaponRecord@WeaponMarkers@@@std@@@std@@U_Iterator_base12@2@@std@@QAE@PAU?$_List_node@UWeaponRecord@WeaponMarkers@@PAX@1@PBV?$_List_val@U?$_List_simple_types@UWeaponRecord@WeaponMarkers@@@std@@@1@@Z ENDP ; std::_List_unchecked_const_iterator<std::_List_val<std::_List_simple_types<WeaponMarkers::WeaponRecord> >,std::_Iterator_base12>::_List_unchecked_const_iterator<std::_List_val<std::_List_simple_types<WeaponMarkers::WeaponRecord> >,std::_Iterator_base12>
_TEXT	ENDS
; Function compile flags: /Odtp /RTCsu
; File d:\utilisateurs\samuel\mes documents\cours\uqac\ia\ravenproject\common\misc\cgdi.h
;	COMDAT ?Circle@Cgdi@@QAEXNNN@Z
_TEXT	SEGMENT
_this$ = -4						; size = 4
_x$ = 8							; size = 8
_y$ = 16						; size = 8
_radius$ = 24						; size = 8
?Circle@Cgdi@@QAEXNNN@Z PROC				; Cgdi::Circle, COMDAT
; _this$ = ecx

; 329  : 	{

	push	ebp
	mov	ebp, esp
	push	ecx
	push	esi
	mov	DWORD PTR [ebp-4], -858993460		; ccccccccH
	mov	DWORD PTR _this$[ebp], ecx

; 330  : 		Ellipse(m_hdc,

	movsd	xmm0, QWORD PTR _y$[ebp]
	addsd	xmm0, QWORD PTR _radius$[ebp]
	addsd	xmm0, QWORD PTR __real@3ff0000000000000
	cvttsd2si eax, xmm0
	mov	esi, esp
	push	eax
	movsd	xmm0, QWORD PTR _x$[ebp]
	addsd	xmm0, QWORD PTR _radius$[ebp]
	addsd	xmm0, QWORD PTR __real@3ff0000000000000
	cvttsd2si ecx, xmm0
	push	ecx
	movsd	xmm0, QWORD PTR _y$[ebp]
	subsd	xmm0, QWORD PTR _radius$[ebp]
	cvttsd2si edx, xmm0
	push	edx
	movsd	xmm0, QWORD PTR _x$[ebp]
	subsd	xmm0, QWORD PTR _radius$[ebp]
	cvttsd2si eax, xmm0
	push	eax
	mov	ecx, DWORD PTR _this$[ebp]
	mov	edx, DWORD PTR [ecx+124]
	push	edx
	call	DWORD PTR __imp__Ellipse@20
	cmp	esi, esp
	call	__RTC_CheckEsp

; 331  : 			(int)(x - radius),
; 332  : 			(int)(y - radius),
; 333  : 			(int)(x + radius + 1),
; 334  : 			(int)(y + radius + 1));
; 335  : 	}

	pop	esi
	add	esp, 4
	cmp	ebp, esp
	call	__RTC_CheckEsp
	mov	esp, ebp
	pop	ebp
	ret	24					; 00000018H
?Circle@Cgdi@@QAEXNNN@Z ENDP				; Cgdi::Circle
_TEXT	ENDS
; Function compile flags: /Odtp /RTCsu
; File d:\utilisateurs\samuel\mes documents\cours\uqac\ia\ravenproject\common\misc\cgdi.h
;	COMDAT ?Circle@Cgdi@@QAEXUVector2D@@N@Z
_TEXT	SEGMENT
_this$ = -4						; size = 4
_pos$ = 8						; size = 16
_radius$ = 24						; size = 8
?Circle@Cgdi@@QAEXUVector2D@@N@Z PROC			; Cgdi::Circle, COMDAT
; _this$ = ecx

; 320  : 	{

	push	ebp
	mov	ebp, esp
	push	ecx
	push	esi
	mov	DWORD PTR [ebp-4], -858993460		; ccccccccH
	mov	DWORD PTR _this$[ebp], ecx

; 321  : 		Ellipse(m_hdc,

	movsd	xmm0, QWORD PTR _pos$[ebp+8]
	addsd	xmm0, QWORD PTR _radius$[ebp]
	addsd	xmm0, QWORD PTR __real@3ff0000000000000
	cvttsd2si eax, xmm0
	mov	esi, esp
	push	eax
	movsd	xmm0, QWORD PTR _pos$[ebp]
	addsd	xmm0, QWORD PTR _radius$[ebp]
	addsd	xmm0, QWORD PTR __real@3ff0000000000000
	cvttsd2si ecx, xmm0
	push	ecx
	movsd	xmm0, QWORD PTR _pos$[ebp+8]
	subsd	xmm0, QWORD PTR _radius$[ebp]
	cvttsd2si edx, xmm0
	push	edx
	movsd	xmm0, QWORD PTR _pos$[ebp]
	subsd	xmm0, QWORD PTR _radius$[ebp]
	cvttsd2si eax, xmm0
	push	eax
	mov	ecx, DWORD PTR _this$[ebp]
	mov	edx, DWORD PTR [ecx+124]
	push	edx
	call	DWORD PTR __imp__Ellipse@20
	cmp	esi, esp
	call	__RTC_CheckEsp

; 322  : 			(int)(pos.x - radius),
; 323  : 			(int)(pos.y - radius),
; 324  : 			(int)(pos.x + radius + 1),
; 325  : 			(int)(pos.y + radius + 1));
; 326  : 	}

	pop	esi
	add	esp, 4
	cmp	ebp, esp
	call	__RTC_CheckEsp
	mov	esp, ebp
	pop	ebp
	ret	24					; 00000018H
?Circle@Cgdi@@QAEXUVector2D@@N@Z ENDP			; Cgdi::Circle
_TEXT	ENDS
; Function compile flags: /Odtp /RTCsu
; File d:\utilisateurs\samuel\mes documents\cours\uqac\ia\ravenproject\common\misc\cgdi.h
;	COMDAT ?ClosedShape@Cgdi@@QAEXABV?$vector@UVector2D@@V?$allocator@UVector2D@@@std@@@std@@@Z
_TEXT	SEGMENT
_p$1 = -8						; size = 4
_this$ = -4						; size = 4
_points$ = 8						; size = 4
?ClosedShape@Cgdi@@QAEXABV?$vector@UVector2D@@V?$allocator@UVector2D@@@std@@@std@@@Z PROC ; Cgdi::ClosedShape, COMDAT
; _this$ = ecx

; 308  : 	{

	push	ebp
	mov	ebp, esp
	sub	esp, 8
	push	esi
	mov	DWORD PTR [ebp-8], -858993460		; ccccccccH
	mov	DWORD PTR [ebp-4], -858993460		; ccccccccH
	mov	DWORD PTR _this$[ebp], ecx

; 309  : 		MoveToEx(m_hdc, (int)points[0].x, (int)points[0].y, NULL);

	mov	esi, esp
	push	0
	push	0
	mov	ecx, DWORD PTR _points$[ebp]
	call	??A?$vector@UVector2D@@V?$allocator@UVector2D@@@std@@@std@@QBEABUVector2D@@I@Z ; std::vector<Vector2D,std::allocator<Vector2D> >::operator[]
	cvttsd2si eax, QWORD PTR [eax+8]
	push	eax
	push	0
	mov	ecx, DWORD PTR _points$[ebp]
	call	??A?$vector@UVector2D@@V?$allocator@UVector2D@@@std@@@std@@QBEABUVector2D@@I@Z ; std::vector<Vector2D,std::allocator<Vector2D> >::operator[]
	cvttsd2si ecx, QWORD PTR [eax]
	push	ecx
	mov	edx, DWORD PTR _this$[ebp]
	mov	eax, DWORD PTR [edx+124]
	push	eax
	call	DWORD PTR __imp__MoveToEx@16
	cmp	esi, esp
	call	__RTC_CheckEsp

; 310  : 
; 311  : 		for (unsigned int p = 1; p < points.size(); ++p)

	mov	DWORD PTR _p$1[ebp], 1
	jmp	SHORT $LN4@ClosedShap
$LN2@ClosedShap:
	mov	ecx, DWORD PTR _p$1[ebp]
	add	ecx, 1
	mov	DWORD PTR _p$1[ebp], ecx
$LN4@ClosedShap:
	mov	ecx, DWORD PTR _points$[ebp]
	call	?size@?$vector@UVector2D@@V?$allocator@UVector2D@@@std@@@std@@QBEIXZ ; std::vector<Vector2D,std::allocator<Vector2D> >::size
	cmp	DWORD PTR _p$1[ebp], eax
	jae	SHORT $LN3@ClosedShap

; 312  : 		{
; 313  : 			LineTo(m_hdc, (int)points[p].x, (int)points[p].y);

	mov	edx, DWORD PTR _p$1[ebp]
	push	edx
	mov	ecx, DWORD PTR _points$[ebp]
	call	??A?$vector@UVector2D@@V?$allocator@UVector2D@@@std@@@std@@QBEABUVector2D@@I@Z ; std::vector<Vector2D,std::allocator<Vector2D> >::operator[]
	cvttsd2si eax, QWORD PTR [eax+8]
	mov	esi, esp
	push	eax
	mov	ecx, DWORD PTR _p$1[ebp]
	push	ecx
	mov	ecx, DWORD PTR _points$[ebp]
	call	??A?$vector@UVector2D@@V?$allocator@UVector2D@@@std@@@std@@QBEABUVector2D@@I@Z ; std::vector<Vector2D,std::allocator<Vector2D> >::operator[]
	cvttsd2si edx, QWORD PTR [eax]
	push	edx
	mov	eax, DWORD PTR _this$[ebp]
	mov	ecx, DWORD PTR [eax+124]
	push	ecx
	call	DWORD PTR __imp__LineTo@12
	cmp	esi, esp
	call	__RTC_CheckEsp

; 314  : 		}

	jmp	SHORT $LN2@ClosedShap
$LN3@ClosedShap:

; 315  : 
; 316  : 		LineTo(m_hdc, (int)points[0].x, (int)points[0].y);

	push	0
	mov	ecx, DWORD PTR _points$[ebp]
	call	??A?$vector@UVector2D@@V?$allocator@UVector2D@@@std@@@std@@QBEABUVector2D@@I@Z ; std::vector<Vector2D,std::allocator<Vector2D> >::operator[]
	cvttsd2si edx, QWORD PTR [eax+8]
	mov	esi, esp
	push	edx
	push	0
	mov	ecx, DWORD PTR _points$[ebp]
	call	??A?$vector@UVector2D@@V?$allocator@UVector2D@@@std@@@std@@QBEABUVector2D@@I@Z ; std::vector<Vector2D,std::allocator<Vector2D> >::operator[]
	cvttsd2si eax, QWORD PTR [eax]
	push	eax
	mov	ecx, DWORD PTR _this$[ebp]
	mov	edx, DWORD PTR [ecx+124]
	push	edx
	call	DWORD PTR __imp__LineTo@12
	cmp	esi, esp
	call	__RTC_CheckEsp

; 317  : 	}

	pop	esi
	add	esp, 8
	cmp	ebp, esp
	call	__RTC_CheckEsp
	mov	esp, ebp
	pop	ebp
	ret	4
?ClosedShape@Cgdi@@QAEXABV?$vector@UVector2D@@V?$allocator@UVector2D@@@std@@@std@@@Z ENDP ; Cgdi::ClosedShape
_TEXT	ENDS
; Function compile flags: /Odtp /RTCsu
; File d:\utilisateurs\samuel\mes documents\cours\uqac\ia\ravenproject\common\misc\cgdi.h
;	COMDAT ?Line@Cgdi@@QAEXUVector2D@@0@Z
_TEXT	SEGMENT
_this$ = -4						; size = 4
_from$ = 8						; size = 16
_to$ = 24						; size = 16
?Line@Cgdi@@QAEXUVector2D@@0@Z PROC			; Cgdi::Line, COMDAT
; _this$ = ecx

; 233  : 	{

	push	ebp
	mov	ebp, esp
	push	ecx
	push	esi
	mov	DWORD PTR [ebp-4], -858993460		; ccccccccH
	mov	DWORD PTR _this$[ebp], ecx

; 234  : 		MoveToEx(m_hdc, (int)from.x, (int)from.y, NULL);

	mov	esi, esp
	push	0
	cvttsd2si eax, QWORD PTR _from$[ebp+8]
	push	eax
	cvttsd2si ecx, QWORD PTR _from$[ebp]
	push	ecx
	mov	edx, DWORD PTR _this$[ebp]
	mov	eax, DWORD PTR [edx+124]
	push	eax
	call	DWORD PTR __imp__MoveToEx@16
	cmp	esi, esp
	call	__RTC_CheckEsp

; 235  : 		LineTo(m_hdc, (int)to.x, (int)to.y);

	cvttsd2si ecx, QWORD PTR _to$[ebp+8]
	mov	esi, esp
	push	ecx
	cvttsd2si edx, QWORD PTR _to$[ebp]
	push	edx
	mov	eax, DWORD PTR _this$[ebp]
	mov	ecx, DWORD PTR [eax+124]
	push	ecx
	call	DWORD PTR __imp__LineTo@12
	cmp	esi, esp
	call	__RTC_CheckEsp

; 236  : 	}

	pop	esi
	add	esp, 4
	cmp	ebp, esp
	call	__RTC_CheckEsp
	mov	esp, ebp
	pop	ebp
	ret	32					; 00000020H
?Line@Cgdi@@QAEXUVector2D@@0@Z ENDP			; Cgdi::Line
_TEXT	ENDS
; Function compile flags: /Odtp /RTCsu
; File d:\utilisateurs\samuel\mes documents\cours\uqac\ia\ravenproject\common\misc\cgdi.h
;	COMDAT ?BlueBrush@Cgdi@@QAEXXZ
_TEXT	SEGMENT
_this$ = -4						; size = 4
?BlueBrush@Cgdi@@QAEXXZ PROC				; Cgdi::BlueBrush, COMDAT
; _this$ = ecx

; 160  : 	void BlueBrush() { if (m_hdc)SelectObject(m_hdc, m_BlueBrush); }

	push	ebp
	mov	ebp, esp
	push	ecx
	push	esi
	mov	DWORD PTR [ebp-4], -858993460		; ccccccccH
	mov	DWORD PTR _this$[ebp], ecx
	mov	eax, DWORD PTR _this$[ebp]
	cmp	DWORD PTR [eax+124], 0
	je	SHORT $LN1@BlueBrush
	mov	esi, esp
	mov	ecx, DWORD PTR _this$[ebp]
	mov	edx, DWORD PTR [ecx+96]
	push	edx
	mov	eax, DWORD PTR _this$[ebp]
	mov	ecx, DWORD PTR [eax+124]
	push	ecx
	call	DWORD PTR __imp__SelectObject@8
	cmp	esi, esp
	call	__RTC_CheckEsp
$LN1@BlueBrush:
	pop	esi
	add	esp, 4
	cmp	ebp, esp
	call	__RTC_CheckEsp
	mov	esp, ebp
	pop	ebp
	ret	0
?BlueBrush@Cgdi@@QAEXXZ ENDP				; Cgdi::BlueBrush
_TEXT	ENDS
; Function compile flags: /Odtp /RTCsu
; File d:\utilisateurs\samuel\mes documents\cours\uqac\ia\ravenproject\common\misc\cgdi.h
;	COMDAT ?BlackBrush@Cgdi@@QAEXXZ
_TEXT	SEGMENT
_this$ = -4						; size = 4
?BlackBrush@Cgdi@@QAEXXZ PROC				; Cgdi::BlackBrush, COMDAT
; _this$ = ecx

; 155  : 	void BlackBrush() { if (m_hdc)SelectObject(m_hdc, GetStockObject(BLACK_BRUSH)); }

	push	ebp
	mov	ebp, esp
	push	ecx
	push	esi
	mov	DWORD PTR [ebp-4], -858993460		; ccccccccH
	mov	DWORD PTR _this$[ebp], ecx
	mov	eax, DWORD PTR _this$[ebp]
	cmp	DWORD PTR [eax+124], 0
	je	SHORT $LN1@BlackBrush
	mov	esi, esp
	push	4
	call	DWORD PTR __imp__GetStockObject@4
	cmp	esi, esp
	call	__RTC_CheckEsp
	mov	esi, esp
	push	eax
	mov	ecx, DWORD PTR _this$[ebp]
	mov	edx, DWORD PTR [ecx+124]
	push	edx
	call	DWORD PTR __imp__SelectObject@8
	cmp	esi, esp
	call	__RTC_CheckEsp
$LN1@BlackBrush:
	pop	esi
	add	esp, 4
	cmp	ebp, esp
	call	__RTC_CheckEsp
	mov	esp, ebp
	pop	ebp
	ret	0
?BlackBrush@Cgdi@@QAEXXZ ENDP				; Cgdi::BlackBrush
_TEXT	ENDS
; Function compile flags: /Odtp /RTCsu
; File d:\utilisateurs\samuel\mes documents\cours\uqac\ia\ravenproject\common\misc\cgdi.h
;	COMDAT ?ThickBluePen@Cgdi@@QAEXXZ
_TEXT	SEGMENT
_this$ = -4						; size = 4
?ThickBluePen@Cgdi@@QAEXXZ PROC				; Cgdi::ThickBluePen, COMDAT
; _this$ = ecx

; 153  : 	void ThickBluePen() { if (m_hdc) { SelectObject(m_hdc, m_ThickBluePen); } }

	push	ebp
	mov	ebp, esp
	push	ecx
	push	esi
	mov	DWORD PTR [ebp-4], -858993460		; ccccccccH
	mov	DWORD PTR _this$[ebp], ecx
	mov	eax, DWORD PTR _this$[ebp]
	cmp	DWORD PTR [eax+124], 0
	je	SHORT $LN1@ThickBlueP
	mov	esi, esp
	mov	ecx, DWORD PTR _this$[ebp]
	mov	edx, DWORD PTR [ecx+80]
	push	edx
	mov	eax, DWORD PTR _this$[ebp]
	mov	ecx, DWORD PTR [eax+124]
	push	ecx
	call	DWORD PTR __imp__SelectObject@8
	cmp	esi, esp
	call	__RTC_CheckEsp
$LN1@ThickBlueP:
	pop	esi
	add	esp, 4
	cmp	ebp, esp
	call	__RTC_CheckEsp
	mov	esp, ebp
	pop	ebp
	ret	0
?ThickBluePen@Cgdi@@QAEXXZ ENDP				; Cgdi::ThickBluePen
_TEXT	ENDS
; Function compile flags: /Odtp /RTCsu
; File d:\utilisateurs\samuel\mes documents\cours\uqac\ia\ravenproject\common\misc\cgdi.h
;	COMDAT ?BrownPen@Cgdi@@QAEXXZ
_TEXT	SEGMENT
_this$ = -4						; size = 4
?BrownPen@Cgdi@@QAEXXZ PROC				; Cgdi::BrownPen, COMDAT
; _this$ = ecx

; 142  : 	void BrownPen() { if (m_hdc) { SelectObject(m_hdc, m_BrownPen); } }

	push	ebp
	mov	ebp, esp
	push	ecx
	push	esi
	mov	DWORD PTR [ebp-4], -858993460		; ccccccccH
	mov	DWORD PTR _this$[ebp], ecx
	mov	eax, DWORD PTR _this$[ebp]
	cmp	DWORD PTR [eax+124], 0
	je	SHORT $LN1@BrownPen
	mov	esi, esp
	mov	ecx, DWORD PTR _this$[ebp]
	mov	edx, DWORD PTR [ecx+44]
	push	edx
	mov	eax, DWORD PTR _this$[ebp]
	mov	ecx, DWORD PTR [eax+124]
	push	ecx
	call	DWORD PTR __imp__SelectObject@8
	cmp	esi, esp
	call	__RTC_CheckEsp
$LN1@BrownPen:
	pop	esi
	add	esp, 4
	cmp	ebp, esp
	call	__RTC_CheckEsp
	mov	esp, ebp
	pop	ebp
	ret	0
?BrownPen@Cgdi@@QAEXXZ ENDP				; Cgdi::BrownPen
_TEXT	ENDS
; Function compile flags: /Odtp /RTCsu
; File d:\utilisateurs\samuel\mes documents\cours\uqac\ia\ravenproject\common\misc\cgdi.h
;	COMDAT ?BluePen@Cgdi@@QAEXXZ
_TEXT	SEGMENT
_this$ = -4						; size = 4
?BluePen@Cgdi@@QAEXXZ PROC				; Cgdi::BluePen, COMDAT
; _this$ = ecx

; 136  : 	void BluePen() { if (m_hdc) { SelectObject(m_hdc, m_BluePen); } }

	push	ebp
	mov	ebp, esp
	push	ecx
	push	esi
	mov	DWORD PTR [ebp-4], -858993460		; ccccccccH
	mov	DWORD PTR _this$[ebp], ecx
	mov	eax, DWORD PTR _this$[ebp]
	cmp	DWORD PTR [eax+124], 0
	je	SHORT $LN1@BluePen
	mov	esi, esp
	mov	ecx, DWORD PTR _this$[ebp]
	mov	edx, DWORD PTR [ecx+20]
	push	edx
	mov	eax, DWORD PTR _this$[ebp]
	mov	ecx, DWORD PTR [eax+124]
	push	ecx
	call	DWORD PTR __imp__SelectObject@8
	cmp	esi, esp
	call	__RTC_CheckEsp
$LN1@BluePen:
	pop	esi
	add	esp, 4
	cmp	ebp, esp
	call	__RTC_CheckEsp
	mov	esp, ebp
	pop	ebp
	ret	0
?BluePen@Cgdi@@QAEXXZ ENDP				; Cgdi::BluePen
_TEXT	ENDS
; Function compile flags: /Odtp /RTCsu
; File d:\utilisateurs\samuel\mes documents\cours\uqac\ia\ravenproject\common\misc\cgdi.h
;	COMDAT ?RedPen@Cgdi@@QAEXXZ
_TEXT	SEGMENT
_this$ = -4						; size = 4
?RedPen@Cgdi@@QAEXXZ PROC				; Cgdi::RedPen, COMDAT
; _this$ = ecx

; 134  : 	void RedPen() { if (m_hdc) { SelectObject(m_hdc, m_RedPen); } }

	push	ebp
	mov	ebp, esp
	push	ecx
	push	esi
	mov	DWORD PTR [ebp-4], -858993460		; ccccccccH
	mov	DWORD PTR _this$[ebp], ecx
	mov	eax, DWORD PTR _this$[ebp]
	cmp	DWORD PTR [eax+124], 0
	je	SHORT $LN1@RedPen
	mov	esi, esp
	mov	ecx, DWORD PTR _this$[ebp]
	mov	edx, DWORD PTR [ecx+12]
	push	edx
	mov	eax, DWORD PTR _this$[ebp]
	mov	ecx, DWORD PTR [eax+124]
	push	ecx
	call	DWORD PTR __imp__SelectObject@8
	cmp	esi, esp
	call	__RTC_CheckEsp
$LN1@RedPen:
	pop	esi
	add	esp, 4
	cmp	ebp, esp
	call	__RTC_CheckEsp
	mov	esp, ebp
	pop	ebp
	ret	0
?RedPen@Cgdi@@QAEXXZ ENDP				; Cgdi::RedPen
_TEXT	ENDS
; Function compile flags: /Odtp /RTCsu
; File d:\utilisateurs\samuel\mes documents\cours\uqac\ia\ravenproject\sources\weaponmarkers.cpp
_TEXT	SEGMENT
$T1 = -28						; size = 24
_this$ = -4						; size = 4
_pos$ = 8						; size = 16
_weaponType$ = 24					; size = 4
?AddWeapon@WeaponMarkers@@QAEXUVector2D@@H@Z PROC	; WeaponMarkers::AddWeapon
; _this$ = ecx

; 90   : {

	push	ebp
	mov	ebp, esp
	sub	esp, 28					; 0000001cH
	mov	eax, -858993460				; ccccccccH
	mov	DWORD PTR [ebp-28], eax
	mov	DWORD PTR [ebp-24], eax
	mov	DWORD PTR [ebp-20], eax
	mov	DWORD PTR [ebp-16], eax
	mov	DWORD PTR [ebp-12], eax
	mov	DWORD PTR [ebp-8], eax
	mov	DWORD PTR [ebp-4], eax
	mov	DWORD PTR _this$[ebp], ecx

; 91   : 	m_WeaponList.push_back(WeaponRecord(pos, weaponType));

	mov	eax, DWORD PTR _weaponType$[ebp]
	push	eax
	sub	esp, 16					; 00000010H
	mov	ecx, esp
	mov	edx, DWORD PTR _pos$[ebp]
	mov	DWORD PTR [ecx], edx
	mov	eax, DWORD PTR _pos$[ebp+4]
	mov	DWORD PTR [ecx+4], eax
	mov	edx, DWORD PTR _pos$[ebp+8]
	mov	DWORD PTR [ecx+8], edx
	mov	eax, DWORD PTR _pos$[ebp+12]
	mov	DWORD PTR [ecx+12], eax
	lea	ecx, DWORD PTR $T1[ebp]
	call	??0WeaponRecord@WeaponMarkers@@QAE@UVector2D@@H@Z ; WeaponMarkers::WeaponRecord::WeaponRecord
	push	eax
	mov	ecx, DWORD PTR _this$[ebp]
	add	ecx, 32					; 00000020H
	call	?push_back@?$list@UWeaponRecord@WeaponMarkers@@V?$allocator@UWeaponRecord@WeaponMarkers@@@std@@@std@@QAEX$$QAUWeaponRecord@WeaponMarkers@@@Z ; std::list<WeaponMarkers::WeaponRecord,std::allocator<WeaponMarkers::WeaponRecord> >::push_back

; 92   : }

	add	esp, 28					; 0000001cH
	cmp	ebp, esp
	call	__RTC_CheckEsp
	mov	esp, ebp
	pop	ebp
	ret	20					; 00000014H
?AddWeapon@WeaponMarkers@@QAEXUVector2D@@H@Z ENDP	; WeaponMarkers::AddWeapon
_TEXT	ENDS
; Function compile flags: /Odtp /RTCsu
; File d:\utilisateurs\samuel\mes documents\cours\uqac\ia\ravenproject\sources\weaponmarkers.cpp
_TEXT	SEGMENT
tv208 = -204						; size = 4
tv129 = -200						; size = 4
tv206 = -196						; size = 4
tv66 = -192						; size = 4
$T2 = -188						; size = 16
$T3 = -172						; size = 16
$T4 = -156						; size = 16
$T5 = -140						; size = 16
$T6 = -124						; size = 16
$T7 = -108						; size = 12
$T8 = -93						; size = 1
_sz$9 = -92						; size = 8
_facing$10 = -80					; size = 16
_pos$ = -56						; size = 16
_it$ = -32						; size = 12
_this$ = -16						; size = 4
__$EHRec$ = -12						; size = 12
?Render@WeaponMarkers@@QAEXXZ PROC			; WeaponMarkers::Render
; _this$ = ecx

; 39   : {

	push	ebp
	mov	ebp, esp
	push	-1
	push	__ehhandler$?Render@WeaponMarkers@@QAEXXZ
	mov	eax, DWORD PTR fs:0
	push	eax
	sub	esp, 192				; 000000c0H
	push	edi
	push	ecx
	lea	edi, DWORD PTR [ebp-204]
	mov	ecx, 48					; 00000030H
	mov	eax, -858993460				; ccccccccH
	rep stosd
	pop	ecx
	mov	eax, DWORD PTR ___security_cookie
	xor	eax, ebp
	push	eax
	lea	eax, DWORD PTR __$EHRec$[ebp]
	mov	DWORD PTR fs:0, eax
	mov	DWORD PTR _this$[ebp], ecx

; 40   : 	WeaponList::iterator it = m_WeaponList.begin();

	lea	eax, DWORD PTR _it$[ebp]
	push	eax
	mov	ecx, DWORD PTR _this$[ebp]
	add	ecx, 32					; 00000020H
	call	?begin@?$list@UWeaponRecord@WeaponMarkers@@V?$allocator@UWeaponRecord@WeaponMarkers@@@std@@@std@@QAE?AV?$_List_iterator@V?$_List_val@U?$_List_simple_types@UWeaponRecord@WeaponMarkers@@@std@@@std@@@2@XZ ; std::list<WeaponMarkers::WeaponRecord,std::allocator<WeaponMarkers::WeaponRecord> >::begin
	mov	DWORD PTR __$EHRec$[ebp+8], 0

; 41   : 	Vector2D pos;

	lea	ecx, DWORD PTR _pos$[ebp]
	call	??0Vector2D@@QAE@XZ			; Vector2D::Vector2D
	jmp	SHORT $LN4@Render
$LN2@Render:

; 42   : 	
; 43   : 	for (it; it != m_WeaponList.end(); ++it)

	lea	ecx, DWORD PTR _it$[ebp]
	call	??E?$_List_iterator@V?$_List_val@U?$_List_simple_types@UWeaponRecord@WeaponMarkers@@@std@@@std@@@std@@QAEAAV01@XZ ; std::_List_iterator<std::_List_val<std::_List_simple_types<WeaponMarkers::WeaponRecord> > >::operator++
$LN4@Render:
	lea	ecx, DWORD PTR $T7[ebp]
	push	ecx
	mov	ecx, DWORD PTR _this$[ebp]
	add	ecx, 32					; 00000020H
	call	?end@?$list@UWeaponRecord@WeaponMarkers@@V?$allocator@UWeaponRecord@WeaponMarkers@@@std@@@std@@QAE?AV?$_List_iterator@V?$_List_val@U?$_List_simple_types@UWeaponRecord@WeaponMarkers@@@std@@@std@@@2@XZ ; std::list<WeaponMarkers::WeaponRecord,std::allocator<WeaponMarkers::WeaponRecord> >::end
	mov	DWORD PTR tv66[ebp], eax
	mov	edx, DWORD PTR tv66[ebp]
	mov	DWORD PTR tv206[ebp], edx
	mov	BYTE PTR __$EHRec$[ebp+8], 1
	mov	eax, DWORD PTR tv206[ebp]
	push	eax
	lea	ecx, DWORD PTR _it$[ebp]
	call	??9?$_List_const_iterator@V?$_List_val@U?$_List_simple_types@UWeaponRecord@WeaponMarkers@@@std@@@std@@@std@@QBE_NABV01@@Z ; std::_List_const_iterator<std::_List_val<std::_List_simple_types<WeaponMarkers::WeaponRecord> > >::operator!=
	mov	BYTE PTR $T8[ebp], al
	mov	BYTE PTR __$EHRec$[ebp+8], 0
	lea	ecx, DWORD PTR $T7[ebp]
	call	??1?$_List_iterator@V?$_List_val@U?$_List_simple_types@UWeaponRecord@WeaponMarkers@@@std@@@std@@@std@@QAE@XZ
	movzx	ecx, BYTE PTR $T8[ebp]
	test	ecx, ecx
	je	$LN3@Render

; 44   : 	{
; 45   : 		pos = it->Position;

	lea	ecx, DWORD PTR _it$[ebp]
	call	??C?$_List_iterator@V?$_List_val@U?$_List_simple_types@UWeaponRecord@WeaponMarkers@@@std@@@std@@@std@@QBEPAUWeaponRecord@WeaponMarkers@@XZ ; std::_List_iterator<std::_List_val<std::_List_simple_types<WeaponMarkers::WeaponRecord> > >::operator->
	mov	edx, DWORD PTR [eax]
	mov	DWORD PTR _pos$[ebp], edx
	mov	ecx, DWORD PTR [eax+4]
	mov	DWORD PTR _pos$[ebp+4], ecx
	mov	edx, DWORD PTR [eax+8]
	mov	DWORD PTR _pos$[ebp+8], edx
	mov	eax, DWORD PTR [eax+12]
	mov	DWORD PTR _pos$[ebp+12], eax

; 46   : 
; 47   : 		switch (it->weaponType)

	lea	ecx, DWORD PTR _it$[ebp]
	call	??C?$_List_iterator@V?$_List_val@U?$_List_simple_types@UWeaponRecord@WeaponMarkers@@@std@@@std@@@std@@QBEPAUWeaponRecord@WeaponMarkers@@XZ ; std::_List_iterator<std::_List_val<std::_List_simple_types<WeaponMarkers::WeaponRecord> > >::operator->
	mov	ecx, DWORD PTR [eax+16]
	mov	DWORD PTR tv129[ebp], ecx
	cmp	DWORD PTR tv129[ebp], 6
	je	$LN9@Render
	cmp	DWORD PTR tv129[ebp], 7
	je	SHORT $LN7@Render
	cmp	DWORD PTR tv129[ebp], 8
	je	$LN8@Render
	jmp	$LN5@Render
$LN7@Render:

; 48   : 		{
; 49   : 		case type_rocket_launcher: 
; 50   : 		{
; 51   : 			Vector2D facing(-1, 0);

	sub	esp, 8
	xorps	xmm0, xmm0
	movsd	QWORD PTR [esp], xmm0
	sub	esp, 8
	movsd	xmm0, QWORD PTR __real@bff0000000000000
	movsd	QWORD PTR [esp], xmm0
	lea	ecx, DWORD PTR _facing$10[ebp]
	call	??0Vector2D@@QAE@NN@Z			; Vector2D::Vector2D

; 52   : 
; 53   : 			m_vecRLVBTrans = WorldTransform(m_vecRLVB,

	sub	esp, 8
	movsd	xmm0, QWORD PTR __real@4004000000000000
	movsd	QWORD PTR [esp], xmm0
	sub	esp, 8
	movsd	xmm0, QWORD PTR __real@4004000000000000
	movsd	QWORD PTR [esp], xmm0
	lea	ecx, DWORD PTR $T6[ebp]
	call	??0Vector2D@@QAE@NN@Z			; Vector2D::Vector2D
	push	eax
	lea	edx, DWORD PTR $T5[ebp]
	push	edx
	lea	ecx, DWORD PTR _facing$10[ebp]
	call	?Perp@Vector2D@@QBE?AU1@XZ		; Vector2D::Perp
	push	eax
	lea	eax, DWORD PTR _facing$10[ebp]
	push	eax
	sub	esp, 8
	movsd	xmm0, QWORD PTR _pos$[ebp+8]
	movsd	QWORD PTR [esp], xmm0
	movsd	xmm0, QWORD PTR _pos$[ebp]
	subsd	xmm0, QWORD PTR __real@402e000000000000
	sub	esp, 8
	movsd	QWORD PTR [esp], xmm0
	lea	ecx, DWORD PTR $T4[ebp]
	call	??0Vector2D@@QAE@NN@Z			; Vector2D::Vector2D
	push	eax
	mov	ecx, DWORD PTR _this$[ebp]
	push	ecx
	lea	edx, DWORD PTR $T3[ebp]
	push	edx
	call	?WorldTransform@@YA?AV?$vector@UVector2D@@V?$allocator@UVector2D@@@std@@@std@@AAV12@ABUVector2D@@111@Z ; WorldTransform
	add	esp, 24					; 00000018H
	mov	DWORD PTR tv208[ebp], eax
	mov	eax, DWORD PTR tv208[ebp]
	push	eax
	mov	ecx, DWORD PTR _this$[ebp]
	add	ecx, 16					; 00000010H
	call	??4?$vector@UVector2D@@V?$allocator@UVector2D@@@std@@@std@@QAEAAV01@$$QAV01@@Z ; std::vector<Vector2D,std::allocator<Vector2D> >::operator=
	lea	ecx, DWORD PTR $T3[ebp]
	call	??1?$vector@UVector2D@@V?$allocator@UVector2D@@@std@@@std@@QAE@XZ ; std::vector<Vector2D,std::allocator<Vector2D> >::~vector<Vector2D,std::allocator<Vector2D> >

; 54   : 				Vector2D (pos.x -15, pos.y),
; 55   : 				facing,
; 56   : 				facing.Perp(),
; 57   : 				Vector2D(2.5, 2.5));
; 58   : 
; 59   : 			gdi->RedPen();

	call	?Instance@Cgdi@@SAPAV1@XZ		; Cgdi::Instance
	mov	ecx, eax
	call	?RedPen@Cgdi@@QAEXXZ			; Cgdi::RedPen

; 60   : 			gdi->ClosedShape(m_vecRLVBTrans);

	mov	ecx, DWORD PTR _this$[ebp]
	add	ecx, 16					; 00000010H
	push	ecx
	call	?Instance@Cgdi@@SAPAV1@XZ		; Cgdi::Instance
	mov	ecx, eax
	call	?ClosedShape@Cgdi@@QAEXABV?$vector@UVector2D@@V?$allocator@UVector2D@@@std@@@std@@@Z ; Cgdi::ClosedShape

; 61   : 		}
; 62   : 
; 63   : 			break;

	jmp	$LN5@Render
$LN8@Render:

; 64   : 
; 65   : 		case type_shotgun:
; 66   : 		{
; 67   : 			gdi->BlackBrush();

	call	?Instance@Cgdi@@SAPAV1@XZ		; Cgdi::Instance
	mov	ecx, eax
	call	?BlackBrush@Cgdi@@QAEXXZ		; Cgdi::BlackBrush

; 68   : 			gdi->BrownPen();

	call	?Instance@Cgdi@@SAPAV1@XZ		; Cgdi::Instance
	mov	ecx, eax
	call	?BrownPen@Cgdi@@QAEXXZ			; Cgdi::BrownPen

; 69   : 			const double sz = 3.0;

	movsd	xmm0, QWORD PTR __real@4008000000000000
	movsd	QWORD PTR _sz$9[ebp], xmm0

; 70   : 			gdi->Circle(pos.x - sz + 15, pos.y, sz);

	sub	esp, 8
	movsd	xmm0, QWORD PTR __real@4008000000000000
	movsd	QWORD PTR [esp], xmm0
	sub	esp, 8
	movsd	xmm0, QWORD PTR _pos$[ebp+8]
	movsd	QWORD PTR [esp], xmm0
	movsd	xmm0, QWORD PTR _pos$[ebp]
	subsd	xmm0, QWORD PTR __real@4008000000000000
	addsd	xmm0, QWORD PTR __real@402e000000000000
	sub	esp, 8
	movsd	QWORD PTR [esp], xmm0
	call	?Instance@Cgdi@@SAPAV1@XZ		; Cgdi::Instance
	mov	ecx, eax
	call	?Circle@Cgdi@@QAEXNNN@Z			; Cgdi::Circle

; 71   : 			gdi->Circle(pos.x + sz + 15, pos.y, sz);

	sub	esp, 8
	movsd	xmm0, QWORD PTR __real@4008000000000000
	movsd	QWORD PTR [esp], xmm0
	sub	esp, 8
	movsd	xmm0, QWORD PTR _pos$[ebp+8]
	movsd	QWORD PTR [esp], xmm0
	movsd	xmm0, QWORD PTR _pos$[ebp]
	addsd	xmm0, QWORD PTR __real@4008000000000000
	addsd	xmm0, QWORD PTR __real@402e000000000000
	sub	esp, 8
	movsd	QWORD PTR [esp], xmm0
	call	?Instance@Cgdi@@SAPAV1@XZ		; Cgdi::Instance
	mov	ecx, eax
	call	?Circle@Cgdi@@QAEXNNN@Z			; Cgdi::Circle

; 72   : 
; 73   : 		}
; 74   : 		break;

	jmp	$LN5@Render
$LN9@Render:

; 75   : 
; 76   : 		case type_rail_gun:
; 77   : 		{
; 78   : 			gdi->BluePen();

	call	?Instance@Cgdi@@SAPAV1@XZ		; Cgdi::Instance
	mov	ecx, eax
	call	?BluePen@Cgdi@@QAEXXZ			; Cgdi::BluePen

; 79   : 			gdi->BlueBrush();

	call	?Instance@Cgdi@@SAPAV1@XZ		; Cgdi::Instance
	mov	ecx, eax
	call	?BlueBrush@Cgdi@@QAEXXZ			; Cgdi::BlueBrush

; 80   : 			gdi->Circle(pos, 3);

	sub	esp, 8
	movsd	xmm0, QWORD PTR __real@4008000000000000
	movsd	QWORD PTR [esp], xmm0
	sub	esp, 16					; 00000010H
	mov	edx, esp
	mov	eax, DWORD PTR _pos$[ebp]
	mov	DWORD PTR [edx], eax
	mov	ecx, DWORD PTR _pos$[ebp+4]
	mov	DWORD PTR [edx+4], ecx
	mov	eax, DWORD PTR _pos$[ebp+8]
	mov	DWORD PTR [edx+8], eax
	mov	ecx, DWORD PTR _pos$[ebp+12]
	mov	DWORD PTR [edx+12], ecx
	call	?Instance@Cgdi@@SAPAV1@XZ		; Cgdi::Instance
	mov	ecx, eax
	call	?Circle@Cgdi@@QAEXUVector2D@@N@Z	; Cgdi::Circle

; 81   : 			gdi->ThickBluePen();

	call	?Instance@Cgdi@@SAPAV1@XZ		; Cgdi::Instance
	mov	ecx, eax
	call	?ThickBluePen@Cgdi@@QAEXXZ		; Cgdi::ThickBluePen

; 82   : 			gdi->Line(pos, Vector2D(pos.x, pos.y - 9));

	movsd	xmm0, QWORD PTR _pos$[ebp+8]
	subsd	xmm0, QWORD PTR __real@4022000000000000
	sub	esp, 8
	movsd	QWORD PTR [esp], xmm0
	sub	esp, 8
	movsd	xmm0, QWORD PTR _pos$[ebp]
	movsd	QWORD PTR [esp], xmm0
	lea	ecx, DWORD PTR $T2[ebp]
	call	??0Vector2D@@QAE@NN@Z			; Vector2D::Vector2D
	sub	esp, 16					; 00000010H
	mov	edx, esp
	mov	ecx, DWORD PTR [eax]
	mov	DWORD PTR [edx], ecx
	mov	ecx, DWORD PTR [eax+4]
	mov	DWORD PTR [edx+4], ecx
	mov	ecx, DWORD PTR [eax+8]
	mov	DWORD PTR [edx+8], ecx
	mov	eax, DWORD PTR [eax+12]
	mov	DWORD PTR [edx+12], eax
	sub	esp, 16					; 00000010H
	mov	ecx, esp
	mov	edx, DWORD PTR _pos$[ebp]
	mov	DWORD PTR [ecx], edx
	mov	eax, DWORD PTR _pos$[ebp+4]
	mov	DWORD PTR [ecx+4], eax
	mov	edx, DWORD PTR _pos$[ebp+8]
	mov	DWORD PTR [ecx+8], edx
	mov	eax, DWORD PTR _pos$[ebp+12]
	mov	DWORD PTR [ecx+12], eax
	call	?Instance@Cgdi@@SAPAV1@XZ		; Cgdi::Instance
	mov	ecx, eax
	call	?Line@Cgdi@@QAEXUVector2D@@0@Z		; Cgdi::Line
$LN5@Render:

; 83   : 		}
; 84   : 			break;
; 85   : 		}
; 86   : 	}

	jmp	$LN2@Render
$LN3@Render:

; 87   : }

	mov	DWORD PTR __$EHRec$[ebp+8], -1
	lea	ecx, DWORD PTR _it$[ebp]
	call	??1?$_List_iterator@V?$_List_val@U?$_List_simple_types@UWeaponRecord@WeaponMarkers@@@std@@@std@@@std@@QAE@XZ
	push	edx
	mov	ecx, ebp
	push	eax
	lea	edx, DWORD PTR $LN19@Render
	call	@_RTC_CheckStackVars@8
	pop	eax
	pop	edx
	mov	ecx, DWORD PTR __$EHRec$[ebp]
	mov	DWORD PTR fs:0, ecx
	pop	ecx
	pop	edi
	add	esp, 204				; 000000ccH
	cmp	ebp, esp
	call	__RTC_CheckEsp
	mov	esp, ebp
	pop	ebp
	ret	0
	npad	1
$LN19@Render:
	DD	3
	DD	$LN18@Render
$LN18@Render:
	DD	-32					; ffffffe0H
	DD	12					; 0000000cH
	DD	$LN14@Render
	DD	-56					; ffffffc8H
	DD	16					; 00000010H
	DD	$LN15@Render
	DD	-80					; ffffffb0H
	DD	16					; 00000010H
	DD	$LN16@Render
$LN16@Render:
	DB	102					; 00000066H
	DB	97					; 00000061H
	DB	99					; 00000063H
	DB	105					; 00000069H
	DB	110					; 0000006eH
	DB	103					; 00000067H
	DB	0
$LN15@Render:
	DB	112					; 00000070H
	DB	111					; 0000006fH
	DB	115					; 00000073H
	DB	0
$LN14@Render:
	DB	105					; 00000069H
	DB	116					; 00000074H
	DB	0
_TEXT	ENDS
text$x	SEGMENT
__unwindfunclet$?Render@WeaponMarkers@@QAEXXZ$0:
	lea	ecx, DWORD PTR _it$[ebp]
	jmp	??1?$_List_iterator@V?$_List_val@U?$_List_simple_types@UWeaponRecord@WeaponMarkers@@@std@@@std@@@std@@QAE@XZ
__unwindfunclet$?Render@WeaponMarkers@@QAEXXZ$1:
	lea	ecx, DWORD PTR $T7[ebp]
	jmp	??1?$_List_iterator@V?$_List_val@U?$_List_simple_types@UWeaponRecord@WeaponMarkers@@@std@@@std@@@std@@QAE@XZ
__ehhandler$?Render@WeaponMarkers@@QAEXXZ:
	mov	edx, DWORD PTR [esp+8]
	lea	eax, DWORD PTR [edx+12]
	mov	ecx, DWORD PTR [edx-200]
	xor	ecx, eax
	call	@__security_check_cookie@4
	mov	eax, OFFSET __ehfuncinfo$?Render@WeaponMarkers@@QAEXXZ
	jmp	___CxxFrameHandler3
text$x	ENDS
?Render@WeaponMarkers@@QAEXXZ ENDP			; WeaponMarkers::Render
; Function compile flags: /Odtp /RTCsu
; File d:\utilisateurs\samuel\mes documents\cours\uqac\ia\ravenproject\sources\weaponmarkers.cpp
_TEXT	SEGMENT
tv90 = -60						; size = 4
tv66 = -56						; size = 4
$T2 = -52						; size = 12
$T3 = -37						; size = 1
_it$ = -32						; size = 12
_this$ = -16						; size = 4
__$EHRec$ = -12						; size = 12
?Update@WeaponMarkers@@QAEXXZ PROC			; WeaponMarkers::Update
; _this$ = ecx

; 30   : {

	push	ebp
	mov	ebp, esp
	push	-1
	push	__ehhandler$?Update@WeaponMarkers@@QAEXXZ
	mov	eax, DWORD PTR fs:0
	push	eax
	sub	esp, 48					; 00000030H
	push	edi
	push	ecx
	lea	edi, DWORD PTR [ebp-60]
	mov	ecx, 12					; 0000000cH
	mov	eax, -858993460				; ccccccccH
	rep stosd
	pop	ecx
	mov	eax, DWORD PTR ___security_cookie
	xor	eax, ebp
	push	eax
	lea	eax, DWORD PTR __$EHRec$[ebp]
	mov	DWORD PTR fs:0, eax
	mov	DWORD PTR _this$[ebp], ecx

; 31   : 	WeaponList::iterator it = m_WeaponList.begin();

	lea	eax, DWORD PTR _it$[ebp]
	push	eax
	mov	ecx, DWORD PTR _this$[ebp]
	add	ecx, 32					; 00000020H
	call	?begin@?$list@UWeaponRecord@WeaponMarkers@@V?$allocator@UWeaponRecord@WeaponMarkers@@@std@@@std@@QAE?AV?$_List_iterator@V?$_List_val@U?$_List_simple_types@UWeaponRecord@WeaponMarkers@@@std@@@std@@@2@XZ ; std::list<WeaponMarkers::WeaponRecord,std::allocator<WeaponMarkers::WeaponRecord> >::begin
	mov	DWORD PTR __$EHRec$[ebp+8], 0
$LN2@Update:

; 32   : 	while (it != m_WeaponList.end())

	lea	ecx, DWORD PTR $T2[ebp]
	push	ecx
	mov	ecx, DWORD PTR _this$[ebp]
	add	ecx, 32					; 00000020H
	call	?end@?$list@UWeaponRecord@WeaponMarkers@@V?$allocator@UWeaponRecord@WeaponMarkers@@@std@@@std@@QAE?AV?$_List_iterator@V?$_List_val@U?$_List_simple_types@UWeaponRecord@WeaponMarkers@@@std@@@std@@@2@XZ ; std::list<WeaponMarkers::WeaponRecord,std::allocator<WeaponMarkers::WeaponRecord> >::end
	mov	DWORD PTR tv66[ebp], eax
	mov	edx, DWORD PTR tv66[ebp]
	mov	DWORD PTR tv90[ebp], edx
	mov	BYTE PTR __$EHRec$[ebp+8], 1
	mov	eax, DWORD PTR tv90[ebp]
	push	eax
	lea	ecx, DWORD PTR _it$[ebp]
	call	??9?$_List_const_iterator@V?$_List_val@U?$_List_simple_types@UWeaponRecord@WeaponMarkers@@@std@@@std@@@std@@QBE_NABV01@@Z ; std::_List_const_iterator<std::_List_val<std::_List_simple_types<WeaponMarkers::WeaponRecord> > >::operator!=
	mov	BYTE PTR $T3[ebp], al
	mov	BYTE PTR __$EHRec$[ebp+8], 0
	lea	ecx, DWORD PTR $T2[ebp]
	call	??1?$_List_iterator@V?$_List_val@U?$_List_simple_types@UWeaponRecord@WeaponMarkers@@@std@@@std@@@std@@QAE@XZ
	movzx	ecx, BYTE PTR $T3[ebp]
	test	ecx, ecx
	je	SHORT $LN3@Update

; 33   : 	{
; 34   : 
; 35   : 	}

	jmp	SHORT $LN2@Update
$LN3@Update:

; 36   : }

	mov	DWORD PTR __$EHRec$[ebp+8], -1
	lea	ecx, DWORD PTR _it$[ebp]
	call	??1?$_List_iterator@V?$_List_val@U?$_List_simple_types@UWeaponRecord@WeaponMarkers@@@std@@@std@@@std@@QAE@XZ
	push	edx
	mov	ecx, ebp
	push	eax
	lea	edx, DWORD PTR $LN10@Update
	call	@_RTC_CheckStackVars@8
	pop	eax
	pop	edx
	mov	ecx, DWORD PTR __$EHRec$[ebp]
	mov	DWORD PTR fs:0, ecx
	pop	ecx
	pop	edi
	add	esp, 60					; 0000003cH
	cmp	ebp, esp
	call	__RTC_CheckEsp
	mov	esp, ebp
	pop	ebp
	ret	0
	npad	1
$LN10@Update:
	DD	1
	DD	$LN9@Update
$LN9@Update:
	DD	-32					; ffffffe0H
	DD	12					; 0000000cH
	DD	$LN7@Update
$LN7@Update:
	DB	105					; 00000069H
	DB	116					; 00000074H
	DB	0
_TEXT	ENDS
text$x	SEGMENT
__unwindfunclet$?Update@WeaponMarkers@@QAEXXZ$0:
	lea	ecx, DWORD PTR _it$[ebp]
	jmp	??1?$_List_iterator@V?$_List_val@U?$_List_simple_types@UWeaponRecord@WeaponMarkers@@@std@@@std@@@std@@QAE@XZ
__unwindfunclet$?Update@WeaponMarkers@@QAEXXZ$1:
	lea	ecx, DWORD PTR $T2[ebp]
	jmp	??1?$_List_iterator@V?$_List_val@U?$_List_simple_types@UWeaponRecord@WeaponMarkers@@@std@@@std@@@std@@QAE@XZ
__ehhandler$?Update@WeaponMarkers@@QAEXXZ:
	mov	edx, DWORD PTR [esp+8]
	lea	eax, DWORD PTR [edx+12]
	mov	ecx, DWORD PTR [edx-56]
	xor	ecx, eax
	call	@__security_check_cookie@4
	mov	eax, OFFSET __ehfuncinfo$?Update@WeaponMarkers@@QAEXXZ
	jmp	___CxxFrameHandler3
text$x	ENDS
?Update@WeaponMarkers@@QAEXXZ ENDP			; WeaponMarkers::Update
; Function compile flags: /Odtp /RTCsu
; File d:\utilisateurs\samuel\mes documents\cours\uqac\ia\ravenproject\sources\weaponmarkers.cpp
_TEXT	SEGMENT
_i$2 = -164						; size = 4
_rip$ = -156						; size = 128
_NumRocketVerts$ = -24					; size = 4
_this$ = -20						; size = 4
__$ArrayPad$ = -16					; size = 4
__$EHRec$ = -12						; size = 12
??0WeaponMarkers@@QAE@XZ PROC				; WeaponMarkers::WeaponMarkers
; _this$ = ecx

; 11   : {

	push	ebp
	mov	ebp, esp
	push	-1
	push	__ehhandler$??0WeaponMarkers@@QAE@XZ
	mov	eax, DWORD PTR fs:0
	push	eax
	sub	esp, 152				; 00000098H
	push	edi
	push	ecx
	lea	edi, DWORD PTR [ebp-164]
	mov	ecx, 38					; 00000026H
	mov	eax, -858993460				; ccccccccH
	rep stosd
	pop	ecx
	mov	eax, DWORD PTR ___security_cookie
	xor	eax, ebp
	mov	DWORD PTR __$ArrayPad$[ebp], eax
	push	eax
	lea	eax, DWORD PTR __$EHRec$[ebp]
	mov	DWORD PTR fs:0, eax
	mov	DWORD PTR _this$[ebp], ecx
	mov	ecx, DWORD PTR _this$[ebp]
	call	??0?$vector@UVector2D@@V?$allocator@UVector2D@@@std@@@std@@QAE@XZ ; std::vector<Vector2D,std::allocator<Vector2D> >::vector<Vector2D,std::allocator<Vector2D> >
	mov	DWORD PTR __$EHRec$[ebp+8], 0
	mov	ecx, DWORD PTR _this$[ebp]
	add	ecx, 16					; 00000010H
	call	??0?$vector@UVector2D@@V?$allocator@UVector2D@@@std@@@std@@QAE@XZ ; std::vector<Vector2D,std::allocator<Vector2D> >::vector<Vector2D,std::allocator<Vector2D> >
	mov	BYTE PTR __$EHRec$[ebp+8], 1
	mov	ecx, DWORD PTR _this$[ebp]
	add	ecx, 32					; 00000020H
	call	??0?$list@UWeaponRecord@WeaponMarkers@@V?$allocator@UWeaponRecord@WeaponMarkers@@@std@@@std@@QAE@XZ ; std::list<WeaponMarkers::WeaponRecord,std::allocator<WeaponMarkers::WeaponRecord> >::list<WeaponMarkers::WeaponRecord,std::allocator<WeaponMarkers::WeaponRecord> >
	mov	BYTE PTR __$EHRec$[ebp+8], 2

; 12   : 	//create the vertex buffer for the rocket shape
; 13   : 	const int NumRocketVerts = 8;

	mov	DWORD PTR _NumRocketVerts$[ebp], 8

; 14   : 	const Vector2D rip[NumRocketVerts] = { Vector2D(0, 3),

	sub	esp, 8
	movsd	xmm0, QWORD PTR __real@4008000000000000
	movsd	QWORD PTR [esp], xmm0
	sub	esp, 8
	xorps	xmm0, xmm0
	movsd	QWORD PTR [esp], xmm0
	lea	ecx, DWORD PTR _rip$[ebp]
	call	??0Vector2D@@QAE@NN@Z			; Vector2D::Vector2D

; 15   : 										 Vector2D(1, 2),

	sub	esp, 8
	movsd	xmm0, QWORD PTR __real@4000000000000000
	movsd	QWORD PTR [esp], xmm0
	sub	esp, 8
	movsd	xmm0, QWORD PTR __real@3ff0000000000000
	movsd	QWORD PTR [esp], xmm0
	lea	ecx, DWORD PTR _rip$[ebp+16]
	call	??0Vector2D@@QAE@NN@Z			; Vector2D::Vector2D

; 16   : 										 Vector2D(1, 0),

	sub	esp, 8
	xorps	xmm0, xmm0
	movsd	QWORD PTR [esp], xmm0
	sub	esp, 8
	movsd	xmm0, QWORD PTR __real@3ff0000000000000
	movsd	QWORD PTR [esp], xmm0
	lea	ecx, DWORD PTR _rip$[ebp+32]
	call	??0Vector2D@@QAE@NN@Z			; Vector2D::Vector2D

; 17   : 										 Vector2D(2, -2),

	sub	esp, 8
	movsd	xmm0, QWORD PTR __real@c000000000000000
	movsd	QWORD PTR [esp], xmm0
	sub	esp, 8
	movsd	xmm0, QWORD PTR __real@4000000000000000
	movsd	QWORD PTR [esp], xmm0
	lea	ecx, DWORD PTR _rip$[ebp+48]
	call	??0Vector2D@@QAE@NN@Z			; Vector2D::Vector2D

; 18   : 										 Vector2D(-2, -2),

	sub	esp, 8
	movsd	xmm0, QWORD PTR __real@c000000000000000
	movsd	QWORD PTR [esp], xmm0
	sub	esp, 8
	movsd	xmm0, QWORD PTR __real@c000000000000000
	movsd	QWORD PTR [esp], xmm0
	lea	ecx, DWORD PTR _rip$[ebp+64]
	call	??0Vector2D@@QAE@NN@Z			; Vector2D::Vector2D

; 19   : 										 Vector2D(-1, 0),

	sub	esp, 8
	xorps	xmm0, xmm0
	movsd	QWORD PTR [esp], xmm0
	sub	esp, 8
	movsd	xmm0, QWORD PTR __real@bff0000000000000
	movsd	QWORD PTR [esp], xmm0
	lea	ecx, DWORD PTR _rip$[ebp+80]
	call	??0Vector2D@@QAE@NN@Z			; Vector2D::Vector2D

; 20   : 										 Vector2D(-1, 2),

	sub	esp, 8
	movsd	xmm0, QWORD PTR __real@4000000000000000
	movsd	QWORD PTR [esp], xmm0
	sub	esp, 8
	movsd	xmm0, QWORD PTR __real@bff0000000000000
	movsd	QWORD PTR [esp], xmm0
	lea	ecx, DWORD PTR _rip$[ebp+96]
	call	??0Vector2D@@QAE@NN@Z			; Vector2D::Vector2D

; 21   : 										 Vector2D(0, 3) };

	sub	esp, 8
	movsd	xmm0, QWORD PTR __real@4008000000000000
	movsd	QWORD PTR [esp], xmm0
	sub	esp, 8
	xorps	xmm0, xmm0
	movsd	QWORD PTR [esp], xmm0
	lea	ecx, DWORD PTR _rip$[ebp+112]
	call	??0Vector2D@@QAE@NN@Z			; Vector2D::Vector2D

; 22   : 
; 23   : 	for (int i = 0; i < NumRocketVerts; ++i)

	mov	DWORD PTR _i$2[ebp], 0
	jmp	SHORT $LN4@WeaponMark
$LN2@WeaponMark:
	mov	eax, DWORD PTR _i$2[ebp]
	add	eax, 1
	mov	DWORD PTR _i$2[ebp], eax
$LN4@WeaponMark:
	cmp	DWORD PTR _i$2[ebp], 8
	jge	SHORT $LN3@WeaponMark

; 24   : 	{
; 25   : 		m_vecRLVB.push_back(rip[i]);

	mov	ecx, DWORD PTR _i$2[ebp]
	shl	ecx, 4
	lea	edx, DWORD PTR _rip$[ebp+ecx]
	push	edx
	mov	ecx, DWORD PTR _this$[ebp]
	call	?push_back@?$vector@UVector2D@@V?$allocator@UVector2D@@@std@@@std@@QAEXABUVector2D@@@Z ; std::vector<Vector2D,std::allocator<Vector2D> >::push_back

; 26   : 	}

	jmp	SHORT $LN2@WeaponMark
$LN3@WeaponMark:

; 27   : }

	mov	DWORD PTR __$EHRec$[ebp+8], -1
	mov	eax, DWORD PTR _this$[ebp]
	push	edx
	mov	ecx, ebp
	push	eax
	lea	edx, DWORD PTR $LN12@WeaponMark
	call	@_RTC_CheckStackVars@8
	pop	eax
	pop	edx
	mov	ecx, DWORD PTR __$EHRec$[ebp]
	mov	DWORD PTR fs:0, ecx
	pop	ecx
	pop	edi
	mov	ecx, DWORD PTR __$ArrayPad$[ebp]
	xor	ecx, ebp
	call	@__security_check_cookie@4
	add	esp, 164				; 000000a4H
	cmp	ebp, esp
	call	__RTC_CheckEsp
	mov	esp, ebp
	pop	ebp
	ret	0
	npad	2
$LN12@WeaponMark:
	DD	1
	DD	$LN11@WeaponMark
$LN11@WeaponMark:
	DD	-156					; ffffff64H
	DD	128					; 00000080H
	DD	$LN9@WeaponMark
$LN9@WeaponMark:
	DB	114					; 00000072H
	DB	105					; 00000069H
	DB	112					; 00000070H
	DB	0
_TEXT	ENDS
text$x	SEGMENT
__unwindfunclet$??0WeaponMarkers@@QAE@XZ$0:
	mov	ecx, DWORD PTR _this$[ebp]
	jmp	??1?$vector@UVector2D@@V?$allocator@UVector2D@@@std@@@std@@QAE@XZ ; std::vector<Vector2D,std::allocator<Vector2D> >::~vector<Vector2D,std::allocator<Vector2D> >
__unwindfunclet$??0WeaponMarkers@@QAE@XZ$1:
	mov	ecx, DWORD PTR _this$[ebp]
	add	ecx, 16					; 00000010H
	jmp	??1?$vector@UVector2D@@V?$allocator@UVector2D@@@std@@@std@@QAE@XZ ; std::vector<Vector2D,std::allocator<Vector2D> >::~vector<Vector2D,std::allocator<Vector2D> >
__unwindfunclet$??0WeaponMarkers@@QAE@XZ$2:
	mov	ecx, DWORD PTR _this$[ebp]
	add	ecx, 32					; 00000020H
	jmp	??1?$list@UWeaponRecord@WeaponMarkers@@V?$allocator@UWeaponRecord@WeaponMarkers@@@std@@@std@@QAE@XZ ; std::list<WeaponMarkers::WeaponRecord,std::allocator<WeaponMarkers::WeaponRecord> >::~list<WeaponMarkers::WeaponRecord,std::allocator<WeaponMarkers::WeaponRecord> >
__ehhandler$??0WeaponMarkers@@QAE@XZ:
	mov	edx, DWORD PTR [esp+8]
	lea	eax, DWORD PTR [edx+12]
	mov	ecx, DWORD PTR [edx-160]
	xor	ecx, eax
	call	@__security_check_cookie@4
	mov	ecx, DWORD PTR [edx-4]
	xor	ecx, eax
	call	@__security_check_cookie@4
	mov	eax, OFFSET __ehfuncinfo$??0WeaponMarkers@@QAE@XZ
	jmp	___CxxFrameHandler3
text$x	ENDS
??0WeaponMarkers@@QAE@XZ ENDP				; WeaponMarkers::WeaponMarkers
; Function compile flags: /Odtp /RTCsu
; File c:\program files (x86)\microsoft visual studio\2017\enterprise\vc\tools\msvc\14.15.26726\include\list
;	COMDAT ?_Orphan_ptr@?$list@UWeaponRecord@WeaponMarkers@@V?$allocator@UWeaponRecord@WeaponMarkers@@@std@@@std@@QAEXPAU?$_List_node@UWeaponRecord@WeaponMarkers@@PAX@2@@Z
_TEXT	SEGMENT
__Pnext$ = -32						; size = 4
__Lock$ = -24						; size = 4
_this$ = -16						; size = 4
__$EHRec$ = -12						; size = 12
__Ptr$ = 8						; size = 4
?_Orphan_ptr@?$list@UWeaponRecord@WeaponMarkers@@V?$allocator@UWeaponRecord@WeaponMarkers@@@std@@@std@@QAEXPAU?$_List_node@UWeaponRecord@WeaponMarkers@@PAX@2@@Z PROC ; std::list<WeaponMarkers::WeaponRecord,std::allocator<WeaponMarkers::WeaponRecord> >::_Orphan_ptr, COMDAT
; _this$ = ecx

; 1804 : 		{	// orphan iterators with specified node pointers

	push	ebp
	mov	ebp, esp
	push	-1
	push	__ehhandler$?_Orphan_ptr@?$list@UWeaponRecord@WeaponMarkers@@V?$allocator@UWeaponRecord@WeaponMarkers@@@std@@@std@@QAEXPAU?$_List_node@UWeaponRecord@WeaponMarkers@@PAX@2@@Z
	mov	eax, DWORD PTR fs:0
	push	eax
	sub	esp, 20					; 00000014H
	push	esi
	mov	eax, -858993460				; ccccccccH
	mov	DWORD PTR [ebp-32], eax
	mov	DWORD PTR [ebp-28], eax
	mov	DWORD PTR [ebp-24], eax
	mov	DWORD PTR [ebp-20], eax
	mov	DWORD PTR [ebp-16], eax
	mov	eax, DWORD PTR ___security_cookie
	xor	eax, ebp
	push	eax
	lea	eax, DWORD PTR __$EHRec$[ebp]
	mov	DWORD PTR fs:0, eax
	mov	DWORD PTR _this$[ebp], ecx

; 1805 : 		_Lockit _Lock(_LOCK_DEBUG);

	push	3
	lea	ecx, DWORD PTR __Lock$[ebp]
	call	??0_Lockit@std@@QAE@H@Z			; std::_Lockit::_Lockit
	mov	DWORD PTR __$EHRec$[ebp+8], 0

; 1806 : 		const_iterator **_Pnext = (const_iterator **)this->_Getpfirst();

	mov	ecx, DWORD PTR _this$[ebp]
	call	?_Getpfirst@?$_List_alloc@U?$_List_base_types@UWeaponRecord@WeaponMarkers@@V?$allocator@UWeaponRecord@WeaponMarkers@@@std@@@std@@@std@@QBEPAPAU_Iterator_base12@2@XZ ; std::_List_alloc<std::_List_base_types<WeaponMarkers::WeaponRecord,std::allocator<WeaponMarkers::WeaponRecord> > >::_Getpfirst
	mov	DWORD PTR __Pnext$[ebp], eax

; 1807 : 		if (_Pnext != nullptr)

	cmp	DWORD PTR __Pnext$[ebp], 0
	je	SHORT $LN4@Orphan_ptr
$LN2@Orphan_ptr:

; 1808 : 			while (*_Pnext != nullptr)

	mov	eax, DWORD PTR __Pnext$[ebp]
	cmp	DWORD PTR [eax], 0
	je	SHORT $LN4@Orphan_ptr

; 1809 : 				{	// test an iterator
; 1810 : 				if ((*_Pnext)->_Ptr == this->_Myhead()
; 1811 : 					|| (_Ptr != nullptr && (*_Pnext)->_Ptr != _Ptr))

	mov	ecx, DWORD PTR __Pnext$[ebp]
	mov	esi, DWORD PTR [ecx]
	mov	ecx, DWORD PTR _this$[ebp]
	call	?_Myhead@?$_List_alloc@U?$_List_base_types@UWeaponRecord@WeaponMarkers@@V?$allocator@UWeaponRecord@WeaponMarkers@@@std@@@std@@@std@@QAEAAPAU?$_List_node@UWeaponRecord@WeaponMarkers@@PAX@2@XZ ; std::_List_alloc<std::_List_base_types<WeaponMarkers::WeaponRecord,std::allocator<WeaponMarkers::WeaponRecord> > >::_Myhead
	mov	edx, DWORD PTR [esi+8]
	cmp	edx, DWORD PTR [eax]
	je	SHORT $LN7@Orphan_ptr
	cmp	DWORD PTR __Ptr$[ebp], 0
	je	SHORT $LN5@Orphan_ptr
	mov	eax, DWORD PTR __Pnext$[ebp]
	mov	ecx, DWORD PTR [eax]
	mov	edx, DWORD PTR [ecx+8]
	cmp	edx, DWORD PTR __Ptr$[ebp]
	je	SHORT $LN5@Orphan_ptr
$LN7@Orphan_ptr:

; 1812 : 					_Pnext = (const_iterator **)(*_Pnext)->_Getpnext();

	mov	eax, DWORD PTR __Pnext$[ebp]
	mov	ecx, DWORD PTR [eax]
	call	?_Getpnext@_Iterator_base12@std@@QAEPAPAU12@XZ ; std::_Iterator_base12::_Getpnext
	mov	DWORD PTR __Pnext$[ebp], eax

; 1813 : 				else

	jmp	SHORT $LN6@Orphan_ptr
$LN5@Orphan_ptr:

; 1814 : 					{	// orphan the iterator
; 1815 : 					(*_Pnext)->_Clrcont();

	mov	ecx, DWORD PTR __Pnext$[ebp]
	mov	ecx, DWORD PTR [ecx]
	call	?_Clrcont@_Iterator_base12@std@@QAEXXZ	; std::_Iterator_base12::_Clrcont

; 1816 : 					*_Pnext = *(const_iterator **)(*_Pnext)->_Getpnext();

	mov	edx, DWORD PTR __Pnext$[ebp]
	mov	ecx, DWORD PTR [edx]
	call	?_Getpnext@_Iterator_base12@std@@QAEPAPAU12@XZ ; std::_Iterator_base12::_Getpnext
	mov	ecx, DWORD PTR __Pnext$[ebp]
	mov	edx, DWORD PTR [eax]
	mov	DWORD PTR [ecx], edx
$LN6@Orphan_ptr:

; 1817 : 					}
; 1818 : 				}

	jmp	SHORT $LN2@Orphan_ptr
$LN4@Orphan_ptr:

; 1819 : 		}

	mov	DWORD PTR __$EHRec$[ebp+8], -1
	lea	ecx, DWORD PTR __Lock$[ebp]
	call	??1_Lockit@std@@QAE@XZ			; std::_Lockit::~_Lockit
	push	edx
	mov	ecx, ebp
	push	eax
	lea	edx, DWORD PTR $LN13@Orphan_ptr
	call	@_RTC_CheckStackVars@8
	pop	eax
	pop	edx
	mov	ecx, DWORD PTR __$EHRec$[ebp]
	mov	DWORD PTR fs:0, ecx
	pop	ecx
	pop	esi
	add	esp, 32					; 00000020H
	cmp	ebp, esp
	call	__RTC_CheckEsp
	mov	esp, ebp
	pop	ebp
	ret	4
	npad	2
$LN13@Orphan_ptr:
	DD	1
	DD	$LN12@Orphan_ptr
$LN12@Orphan_ptr:
	DD	-24					; ffffffe8H
	DD	4
	DD	$LN10@Orphan_ptr
$LN10@Orphan_ptr:
	DB	95					; 0000005fH
	DB	76					; 0000004cH
	DB	111					; 0000006fH
	DB	99					; 00000063H
	DB	107					; 0000006bH
	DB	0
_TEXT	ENDS
;	COMDAT text$x
text$x	SEGMENT
__unwindfunclet$?_Orphan_ptr@?$list@UWeaponRecord@WeaponMarkers@@V?$allocator@UWeaponRecord@WeaponMarkers@@@std@@@std@@QAEXPAU?$_List_node@UWeaponRecord@WeaponMarkers@@PAX@2@@Z$0:
	lea	ecx, DWORD PTR __Lock$[ebp]
	jmp	??1_Lockit@std@@QAE@XZ			; std::_Lockit::~_Lockit
__ehhandler$?_Orphan_ptr@?$list@UWeaponRecord@WeaponMarkers@@V?$allocator@UWeaponRecord@WeaponMarkers@@@std@@@std@@QAEXPAU?$_List_node@UWeaponRecord@WeaponMarkers@@PAX@2@@Z:
	mov	edx, DWORD PTR [esp+8]
	lea	eax, DWORD PTR [edx+12]
	mov	ecx, DWORD PTR [edx-28]
	xor	ecx, eax
	call	@__security_check_cookie@4
	mov	eax, OFFSET __ehfuncinfo$?_Orphan_ptr@?$list@UWeaponRecord@WeaponMarkers@@V?$allocator@UWeaponRecord@WeaponMarkers@@@std@@@std@@QAEXPAU?$_List_node@UWeaponRecord@WeaponMarkers@@PAX@2@@Z
	jmp	___CxxFrameHandler3
text$x	ENDS
?_Orphan_ptr@?$list@UWeaponRecord@WeaponMarkers@@V?$allocator@UWeaponRecord@WeaponMarkers@@@std@@@std@@QAEXPAU?$_List_node@UWeaponRecord@WeaponMarkers@@PAX@2@@Z ENDP ; std::list<WeaponMarkers::WeaponRecord,std::allocator<WeaponMarkers::WeaponRecord> >::_Orphan_ptr
; Function compile flags: /Odtp /RTCsu
; File c:\program files (x86)\microsoft visual studio\2017\enterprise\vc\tools\msvc\14.15.26726\include\list
;	COMDAT ?_Incsize@?$list@UWeaponRecord@WeaponMarkers@@V?$allocator@UWeaponRecord@WeaponMarkers@@@std@@@std@@QAEXI@Z
_TEXT	SEGMENT
tv82 = -8						; size = 4
_this$ = -4						; size = 4
__Count$ = 8						; size = 4
?_Incsize@?$list@UWeaponRecord@WeaponMarkers@@V?$allocator@UWeaponRecord@WeaponMarkers@@@std@@@std@@QAEXI@Z PROC ; std::list<WeaponMarkers::WeaponRecord,std::allocator<WeaponMarkers::WeaponRecord> >::_Incsize, COMDAT
; _this$ = ecx

; 1796 : 		{	// alter element count, with checking

	push	ebp
	mov	ebp, esp
	sub	esp, 8
	push	esi
	mov	DWORD PTR [ebp-8], -858993460		; ccccccccH
	mov	DWORD PTR [ebp-4], -858993460		; ccccccccH
	mov	DWORD PTR _this$[ebp], ecx

; 1797 : 		if (max_size() - this->_Mysize() - 1 < _Count)

	mov	ecx, DWORD PTR _this$[ebp]
	call	?max_size@?$list@UWeaponRecord@WeaponMarkers@@V?$allocator@UWeaponRecord@WeaponMarkers@@@std@@@std@@QBEIXZ ; std::list<WeaponMarkers::WeaponRecord,std::allocator<WeaponMarkers::WeaponRecord> >::max_size
	mov	esi, eax
	mov	ecx, DWORD PTR _this$[ebp]
	call	?_Mysize@?$_List_alloc@U?$_List_base_types@UWeaponRecord@WeaponMarkers@@V?$allocator@UWeaponRecord@WeaponMarkers@@@std@@@std@@@std@@QAEAAIXZ ; std::_List_alloc<std::_List_base_types<WeaponMarkers::WeaponRecord,std::allocator<WeaponMarkers::WeaponRecord> > >::_Mysize
	sub	esi, DWORD PTR [eax]
	sub	esi, 1
	cmp	esi, DWORD PTR __Count$[ebp]
	jae	SHORT $LN2@Incsize

; 1798 : 			_Xlength_error("list<T> too long");

	push	OFFSET ??_C@_0BB@MOGOBHAF@list?$DMT?$DO?5too?5long@
	call	?_Xlength_error@std@@YAXPBD@Z		; std::_Xlength_error
$LN2@Incsize:

; 1799 : 		this->_Mysize() += _Count;

	mov	ecx, DWORD PTR _this$[ebp]
	call	?_Mysize@?$_List_alloc@U?$_List_base_types@UWeaponRecord@WeaponMarkers@@V?$allocator@UWeaponRecord@WeaponMarkers@@@std@@@std@@@std@@QAEAAIXZ ; std::_List_alloc<std::_List_base_types<WeaponMarkers::WeaponRecord,std::allocator<WeaponMarkers::WeaponRecord> > >::_Mysize
	mov	DWORD PTR tv82[ebp], eax
	mov	eax, DWORD PTR tv82[ebp]
	mov	ecx, DWORD PTR [eax]
	add	ecx, DWORD PTR __Count$[ebp]
	mov	edx, DWORD PTR tv82[ebp]
	mov	DWORD PTR [edx], ecx
$LN3@Incsize:

; 1800 : 		}

	pop	esi
	add	esp, 8
	cmp	ebp, esp
	call	__RTC_CheckEsp
	mov	esp, ebp
	pop	ebp
	ret	4
?_Incsize@?$list@UWeaponRecord@WeaponMarkers@@V?$allocator@UWeaponRecord@WeaponMarkers@@@std@@@std@@QAEXI@Z ENDP ; std::list<WeaponMarkers::WeaponRecord,std::allocator<WeaponMarkers::WeaponRecord> >::_Incsize
_TEXT	ENDS
; Function compile flags: /Odtp /RTCsu
; File c:\program files (x86)\microsoft visual studio\2017\enterprise\vc\tools\msvc\14.15.26726\include\list
;	COMDAT ?_Tidy@?$list@UWeaponRecord@WeaponMarkers@@V?$allocator@UWeaponRecord@WeaponMarkers@@@std@@@std@@QAEXXZ
_TEXT	SEGMENT
_this$ = -4						; size = 4
?_Tidy@?$list@UWeaponRecord@WeaponMarkers@@V?$allocator@UWeaponRecord@WeaponMarkers@@@std@@@std@@QAEXXZ PROC ; std::list<WeaponMarkers::WeaponRecord,std::allocator<WeaponMarkers::WeaponRecord> >::_Tidy, COMDAT
; _this$ = ecx

; 1773 : 		{	// free all storage

	push	ebp
	mov	ebp, esp
	push	ecx
	mov	DWORD PTR [ebp-4], -858993460		; ccccccccH
	mov	DWORD PTR _this$[ebp], ecx

; 1774 : 		clear();

	mov	ecx, DWORD PTR _this$[ebp]
	call	?clear@?$list@UWeaponRecord@WeaponMarkers@@V?$allocator@UWeaponRecord@WeaponMarkers@@@std@@@std@@QAEXXZ ; std::list<WeaponMarkers::WeaponRecord,std::allocator<WeaponMarkers::WeaponRecord> >::clear

; 1775 : 		}

	add	esp, 4
	cmp	ebp, esp
	call	__RTC_CheckEsp
	mov	esp, ebp
	pop	ebp
	ret	0
?_Tidy@?$list@UWeaponRecord@WeaponMarkers@@V?$allocator@UWeaponRecord@WeaponMarkers@@@std@@@std@@QAEXXZ ENDP ; std::list<WeaponMarkers::WeaponRecord,std::allocator<WeaponMarkers::WeaponRecord> >::_Tidy
_TEXT	ENDS
; Function compile flags: /Odtp /RTCsu
; File c:\program files (x86)\microsoft visual studio\2017\enterprise\vc\tools\msvc\14.15.26726\include\list
;	COMDAT ?clear@?$list@UWeaponRecord@WeaponMarkers@@V?$allocator@UWeaponRecord@WeaponMarkers@@@std@@@std@@QAEXXZ
_TEXT	SEGMENT
__Pnext$2 = -24						; size = 4
__Pnode$ = -20						; size = 4
_this$ = -16						; size = 4
__$EHRec$ = -12						; size = 12
?clear@?$list@UWeaponRecord@WeaponMarkers@@V?$allocator@UWeaponRecord@WeaponMarkers@@@std@@@std@@QAEXXZ PROC ; std::list<WeaponMarkers::WeaponRecord,std::allocator<WeaponMarkers::WeaponRecord> >::clear, COMDAT
; _this$ = ecx

; 1381 : 		{	// erase all

	push	ebp
	mov	ebp, esp
	push	-1
	push	__ehhandler$?clear@?$list@UWeaponRecord@WeaponMarkers@@V?$allocator@UWeaponRecord@WeaponMarkers@@@std@@@std@@QAEXXZ
	mov	eax, DWORD PTR fs:0
	push	eax
	sub	esp, 12					; 0000000cH
	push	esi
	mov	DWORD PTR [ebp-24], -858993460		; ccccccccH
	mov	DWORD PTR [ebp-20], -858993460		; ccccccccH
	mov	DWORD PTR [ebp-16], -858993460		; ccccccccH
	mov	eax, DWORD PTR ___security_cookie
	xor	eax, ebp
	push	eax
	lea	eax, DWORD PTR __$EHRec$[ebp]
	mov	DWORD PTR fs:0, eax
	mov	DWORD PTR _this$[ebp], ecx

; 1382 :  #if _ITERATOR_DEBUG_LEVEL == 2
; 1383 : 		this->_Orphan_ptr(nullptr);

	push	0
	mov	ecx, DWORD PTR _this$[ebp]
	call	?_Orphan_ptr@?$list@UWeaponRecord@WeaponMarkers@@V?$allocator@UWeaponRecord@WeaponMarkers@@@std@@@std@@QAEXPAU?$_List_node@UWeaponRecord@WeaponMarkers@@PAX@2@@Z ; std::list<WeaponMarkers::WeaponRecord,std::allocator<WeaponMarkers::WeaponRecord> >::_Orphan_ptr

; 1384 :  #endif /* _ITERATOR_DEBUG_LEVEL == 2 */
; 1385 : 		_Nodeptr _Pnode = this->_Myhead()->_Next;

	mov	ecx, DWORD PTR _this$[ebp]
	call	?_Myhead@?$_List_alloc@U?$_List_base_types@UWeaponRecord@WeaponMarkers@@V?$allocator@UWeaponRecord@WeaponMarkers@@@std@@@std@@@std@@QAEAAPAU?$_List_node@UWeaponRecord@WeaponMarkers@@PAX@2@XZ ; std::_List_alloc<std::_List_base_types<WeaponMarkers::WeaponRecord,std::allocator<WeaponMarkers::WeaponRecord> > >::_Myhead
	mov	eax, DWORD PTR [eax]
	mov	ecx, DWORD PTR [eax]
	mov	DWORD PTR __Pnode$[ebp], ecx

; 1386 : 		this->_Myhead()->_Next = this->_Myhead();

	mov	ecx, DWORD PTR _this$[ebp]
	call	?_Myhead@?$_List_alloc@U?$_List_base_types@UWeaponRecord@WeaponMarkers@@V?$allocator@UWeaponRecord@WeaponMarkers@@@std@@@std@@@std@@QAEAAPAU?$_List_node@UWeaponRecord@WeaponMarkers@@PAX@2@XZ ; std::_List_alloc<std::_List_base_types<WeaponMarkers::WeaponRecord,std::allocator<WeaponMarkers::WeaponRecord> > >::_Myhead
	mov	esi, eax
	mov	ecx, DWORD PTR _this$[ebp]
	call	?_Myhead@?$_List_alloc@U?$_List_base_types@UWeaponRecord@WeaponMarkers@@V?$allocator@UWeaponRecord@WeaponMarkers@@@std@@@std@@@std@@QAEAAPAU?$_List_node@UWeaponRecord@WeaponMarkers@@PAX@2@XZ ; std::_List_alloc<std::_List_base_types<WeaponMarkers::WeaponRecord,std::allocator<WeaponMarkers::WeaponRecord> > >::_Myhead
	mov	edx, DWORD PTR [eax]
	mov	eax, DWORD PTR [esi]
	mov	DWORD PTR [edx], eax

; 1387 : 		this->_Myhead()->_Prev = this->_Myhead();

	mov	ecx, DWORD PTR _this$[ebp]
	call	?_Myhead@?$_List_alloc@U?$_List_base_types@UWeaponRecord@WeaponMarkers@@V?$allocator@UWeaponRecord@WeaponMarkers@@@std@@@std@@@std@@QAEAAPAU?$_List_node@UWeaponRecord@WeaponMarkers@@PAX@2@XZ ; std::_List_alloc<std::_List_base_types<WeaponMarkers::WeaponRecord,std::allocator<WeaponMarkers::WeaponRecord> > >::_Myhead
	mov	esi, eax
	mov	ecx, DWORD PTR _this$[ebp]
	call	?_Myhead@?$_List_alloc@U?$_List_base_types@UWeaponRecord@WeaponMarkers@@V?$allocator@UWeaponRecord@WeaponMarkers@@@std@@@std@@@std@@QAEAAPAU?$_List_node@UWeaponRecord@WeaponMarkers@@PAX@2@XZ ; std::_List_alloc<std::_List_base_types<WeaponMarkers::WeaponRecord,std::allocator<WeaponMarkers::WeaponRecord> > >::_Myhead
	mov	ecx, DWORD PTR [eax]
	mov	edx, DWORD PTR [esi]
	mov	DWORD PTR [ecx+4], edx

; 1388 : 		this->_Mysize() = 0;

	mov	ecx, DWORD PTR _this$[ebp]
	call	?_Mysize@?$_List_alloc@U?$_List_base_types@UWeaponRecord@WeaponMarkers@@V?$allocator@UWeaponRecord@WeaponMarkers@@@std@@@std@@@std@@QAEAAIXZ ; std::_List_alloc<std::_List_base_types<WeaponMarkers::WeaponRecord,std::allocator<WeaponMarkers::WeaponRecord> > >::_Mysize
	mov	DWORD PTR [eax], 0

; 1389 : 
; 1390 : 		for (_Nodeptr _Pnext; _Pnode != this->_Myhead(); _Pnode = _Pnext)

	jmp	SHORT $LN4@clear
$LN2@clear:
	mov	eax, DWORD PTR __Pnext$2[ebp]
	mov	DWORD PTR __Pnode$[ebp], eax
$LN4@clear:
	mov	ecx, DWORD PTR _this$[ebp]
	call	?_Myhead@?$_List_alloc@U?$_List_base_types@UWeaponRecord@WeaponMarkers@@V?$allocator@UWeaponRecord@WeaponMarkers@@@std@@@std@@@std@@QAEAAPAU?$_List_node@UWeaponRecord@WeaponMarkers@@PAX@2@XZ ; std::_List_alloc<std::_List_base_types<WeaponMarkers::WeaponRecord,std::allocator<WeaponMarkers::WeaponRecord> > >::_Myhead
	mov	ecx, DWORD PTR __Pnode$[ebp]
	cmp	ecx, DWORD PTR [eax]
	je	SHORT $LN5@clear

; 1391 : 			{	// delete an element
; 1392 : 			_Pnext = _Pnode->_Next;

	mov	edx, DWORD PTR __Pnode$[ebp]
	mov	eax, DWORD PTR [edx]
	mov	DWORD PTR __Pnext$2[ebp], eax

; 1393 : 			this->_Freenode(_Pnode);

	mov	ecx, DWORD PTR __Pnode$[ebp]
	push	ecx
	mov	ecx, DWORD PTR _this$[ebp]
	call	?_Freenode@?$_List_buy@UWeaponRecord@WeaponMarkers@@V?$allocator@UWeaponRecord@WeaponMarkers@@@std@@@std@@QAEXPAU?$_List_node@UWeaponRecord@WeaponMarkers@@PAX@2@@Z ; std::_List_buy<WeaponMarkers::WeaponRecord,std::allocator<WeaponMarkers::WeaponRecord> >::_Freenode

; 1394 : 			}

	jmp	SHORT $LN2@clear
$LN5@clear:

; 1395 : 		}

	mov	ecx, DWORD PTR __$EHRec$[ebp]
	mov	DWORD PTR fs:0, ecx
	pop	ecx
	pop	esi
	add	esp, 24					; 00000018H
	cmp	ebp, esp
	call	__RTC_CheckEsp
	mov	esp, ebp
	pop	ebp
	ret	0
_TEXT	ENDS
;	COMDAT text$x
text$x	SEGMENT
__ehhandler$?clear@?$list@UWeaponRecord@WeaponMarkers@@V?$allocator@UWeaponRecord@WeaponMarkers@@@std@@@std@@QAEXXZ:
	mov	edx, DWORD PTR [esp+8]
	lea	eax, DWORD PTR [edx+12]
	mov	ecx, DWORD PTR [edx-20]
	xor	ecx, eax
	call	@__security_check_cookie@4
	mov	eax, OFFSET __ehfuncinfo$?clear@?$list@UWeaponRecord@WeaponMarkers@@V?$allocator@UWeaponRecord@WeaponMarkers@@@std@@@std@@QAEXXZ
	jmp	___CxxFrameHandler3
text$x	ENDS
?clear@?$list@UWeaponRecord@WeaponMarkers@@V?$allocator@UWeaponRecord@WeaponMarkers@@@std@@@std@@QAEXXZ ENDP ; std::list<WeaponMarkers::WeaponRecord,std::allocator<WeaponMarkers::WeaponRecord> >::clear
; Function compile flags: /Odtp /RTCsu
; File c:\program files (x86)\microsoft visual studio\2017\enterprise\vc\tools\msvc\14.15.26726\include\list
;	COMDAT ?max_size@?$list@UWeaponRecord@WeaponMarkers@@V?$allocator@UWeaponRecord@WeaponMarkers@@@std@@@std@@QBEIXZ
_TEXT	SEGMENT
_this$ = -4						; size = 4
?max_size@?$list@UWeaponRecord@WeaponMarkers@@V?$allocator@UWeaponRecord@WeaponMarkers@@@std@@@std@@QBEIXZ PROC ; std::list<WeaponMarkers::WeaponRecord,std::allocator<WeaponMarkers::WeaponRecord> >::max_size, COMDAT
; _this$ = ecx

; 1129 : 		{	// return maximum possible length of sequence

	push	ebp
	mov	ebp, esp
	push	ecx
	mov	DWORD PTR [ebp-4], -858993460		; ccccccccH
	mov	DWORD PTR _this$[ebp], ecx

; 1130 : 		return (_Alnode_traits::max_size(this->_Getal()));

	mov	ecx, DWORD PTR _this$[ebp]
	call	?_Getal@?$_List_alloc@U?$_List_base_types@UWeaponRecord@WeaponMarkers@@V?$allocator@UWeaponRecord@WeaponMarkers@@@std@@@std@@@std@@QBEABV?$allocator@U?$_List_node@UWeaponRecord@WeaponMarkers@@PAX@std@@@2@XZ ; std::_List_alloc<std::_List_base_types<WeaponMarkers::WeaponRecord,std::allocator<WeaponMarkers::WeaponRecord> > >::_Getal
	push	eax
	call	?max_size@?$_Default_allocator_traits@V?$allocator@U?$_List_node@UWeaponRecord@WeaponMarkers@@PAX@std@@@std@@@std@@SAIABV?$allocator@U?$_List_node@UWeaponRecord@WeaponMarkers@@PAX@std@@@2@@Z ; std::_Default_allocator_traits<std::allocator<std::_List_node<WeaponMarkers::WeaponRecord,void *> > >::max_size
	add	esp, 4

; 1131 : 		}

	add	esp, 4
	cmp	ebp, esp
	call	__RTC_CheckEsp
	mov	esp, ebp
	pop	ebp
	ret	0
?max_size@?$list@UWeaponRecord@WeaponMarkers@@V?$allocator@UWeaponRecord@WeaponMarkers@@@std@@@std@@QBEIXZ ENDP ; std::list<WeaponMarkers::WeaponRecord,std::allocator<WeaponMarkers::WeaponRecord> >::max_size
_TEXT	ENDS
; Function compile flags: /Odtp /RTCsu
; File c:\program files (x86)\microsoft visual studio\2017\enterprise\vc\tools\msvc\14.15.26726\include\list
;	COMDAT ?_Unchecked_end@?$list@UWeaponRecord@WeaponMarkers@@V?$allocator@UWeaponRecord@WeaponMarkers@@@std@@@std@@QAE?AV?$_List_unchecked_iterator@V?$_List_val@U?$_List_simple_types@UWeaponRecord@WeaponMarkers@@@std@@@std@@@2@XZ
_TEXT	SEGMENT
_this$ = -4						; size = 4
___$ReturnUdt$ = 8					; size = 4
?_Unchecked_end@?$list@UWeaponRecord@WeaponMarkers@@V?$allocator@UWeaponRecord@WeaponMarkers@@@std@@@std@@QAE?AV?$_List_unchecked_iterator@V?$_List_val@U?$_List_simple_types@UWeaponRecord@WeaponMarkers@@@std@@@std@@@2@XZ PROC ; std::list<WeaponMarkers::WeaponRecord,std::allocator<WeaponMarkers::WeaponRecord> >::_Unchecked_end, COMDAT
; _this$ = ecx

; 1036 : 		{	// return unchecked iterator for end of mutable sequence

	push	ebp
	mov	ebp, esp
	push	ecx
	mov	DWORD PTR [ebp-4], -858993460		; ccccccccH
	mov	DWORD PTR _this$[ebp], ecx

; 1037 : 		return (_Unchecked_iterator(this->_Myhead(), nullptr));

	push	0
	mov	ecx, DWORD PTR _this$[ebp]
	call	?_Myhead@?$_List_alloc@U?$_List_base_types@UWeaponRecord@WeaponMarkers@@V?$allocator@UWeaponRecord@WeaponMarkers@@@std@@@std@@@std@@QAEAAPAU?$_List_node@UWeaponRecord@WeaponMarkers@@PAX@2@XZ ; std::_List_alloc<std::_List_base_types<WeaponMarkers::WeaponRecord,std::allocator<WeaponMarkers::WeaponRecord> > >::_Myhead
	mov	eax, DWORD PTR [eax]
	push	eax
	mov	ecx, DWORD PTR ___$ReturnUdt$[ebp]
	call	??0?$_List_unchecked_iterator@V?$_List_val@U?$_List_simple_types@UWeaponRecord@WeaponMarkers@@@std@@@std@@@std@@QAE@PAU?$_List_node@UWeaponRecord@WeaponMarkers@@PAX@1@PBV?$_List_val@U?$_List_simple_types@UWeaponRecord@WeaponMarkers@@@std@@@1@@Z ; std::_List_unchecked_iterator<std::_List_val<std::_List_simple_types<WeaponMarkers::WeaponRecord> > >::_List_unchecked_iterator<std::_List_val<std::_List_simple_types<WeaponMarkers::WeaponRecord> > >
	mov	eax, DWORD PTR ___$ReturnUdt$[ebp]

; 1038 : 		}

	add	esp, 4
	cmp	ebp, esp
	call	__RTC_CheckEsp
	mov	esp, ebp
	pop	ebp
	ret	4
?_Unchecked_end@?$list@UWeaponRecord@WeaponMarkers@@V?$allocator@UWeaponRecord@WeaponMarkers@@@std@@@std@@QAE?AV?$_List_unchecked_iterator@V?$_List_val@U?$_List_simple_types@UWeaponRecord@WeaponMarkers@@@std@@@std@@@2@XZ ENDP ; std::list<WeaponMarkers::WeaponRecord,std::allocator<WeaponMarkers::WeaponRecord> >::_Unchecked_end
_TEXT	ENDS
; Function compile flags: /Odtp /RTCsu
; File c:\program files (x86)\microsoft visual studio\2017\enterprise\vc\tools\msvc\14.15.26726\include\list
;	COMDAT ?end@?$list@UWeaponRecord@WeaponMarkers@@V?$allocator@UWeaponRecord@WeaponMarkers@@@std@@@std@@QAE?AV?$_List_iterator@V?$_List_val@U?$_List_simple_types@UWeaponRecord@WeaponMarkers@@@std@@@std@@@2@XZ
_TEXT	SEGMENT
_this$ = -16						; size = 4
__$EHRec$ = -12						; size = 12
___$ReturnUdt$ = 8					; size = 4
?end@?$list@UWeaponRecord@WeaponMarkers@@V?$allocator@UWeaponRecord@WeaponMarkers@@@std@@@std@@QAE?AV?$_List_iterator@V?$_List_val@U?$_List_simple_types@UWeaponRecord@WeaponMarkers@@@std@@@std@@@2@XZ PROC ; std::list<WeaponMarkers::WeaponRecord,std::allocator<WeaponMarkers::WeaponRecord> >::end, COMDAT
; _this$ = ecx

; 1016 : 		{	// return iterator for end of mutable sequence

	push	ebp
	mov	ebp, esp
	push	-1
	push	__ehhandler$?end@?$list@UWeaponRecord@WeaponMarkers@@V?$allocator@UWeaponRecord@WeaponMarkers@@@std@@@std@@QAE?AV?$_List_iterator@V?$_List_val@U?$_List_simple_types@UWeaponRecord@WeaponMarkers@@@std@@@std@@@2@XZ
	mov	eax, DWORD PTR fs:0
	push	eax
	push	ecx
	mov	DWORD PTR [ebp-16], -858993460		; ccccccccH
	mov	eax, DWORD PTR ___security_cookie
	xor	eax, ebp
	push	eax
	lea	eax, DWORD PTR __$EHRec$[ebp]
	mov	DWORD PTR fs:0, eax
	mov	DWORD PTR _this$[ebp], ecx

; 1017 : 		return (iterator(this->_Myhead(), _STD addressof(this->_Get_data())));

	mov	ecx, DWORD PTR _this$[ebp]
	call	?_Get_data@?$_List_alloc@U?$_List_base_types@UWeaponRecord@WeaponMarkers@@V?$allocator@UWeaponRecord@WeaponMarkers@@@std@@@std@@@std@@QAEAAV?$_List_val@U?$_List_simple_types@UWeaponRecord@WeaponMarkers@@@std@@@2@XZ ; std::_List_alloc<std::_List_base_types<WeaponMarkers::WeaponRecord,std::allocator<WeaponMarkers::WeaponRecord> > >::_Get_data
	push	eax
	call	??$addressof@V?$_List_val@U?$_List_simple_types@UWeaponRecord@WeaponMarkers@@@std@@@std@@@std@@YAPAV?$_List_val@U?$_List_simple_types@UWeaponRecord@WeaponMarkers@@@std@@@0@AAV10@@Z ; std::addressof<std::_List_val<std::_List_simple_types<WeaponMarkers::WeaponRecord> > >
	add	esp, 4
	push	eax
	mov	ecx, DWORD PTR _this$[ebp]
	call	?_Myhead@?$_List_alloc@U?$_List_base_types@UWeaponRecord@WeaponMarkers@@V?$allocator@UWeaponRecord@WeaponMarkers@@@std@@@std@@@std@@QAEAAPAU?$_List_node@UWeaponRecord@WeaponMarkers@@PAX@2@XZ ; std::_List_alloc<std::_List_base_types<WeaponMarkers::WeaponRecord,std::allocator<WeaponMarkers::WeaponRecord> > >::_Myhead
	mov	eax, DWORD PTR [eax]
	push	eax
	mov	ecx, DWORD PTR ___$ReturnUdt$[ebp]
	call	??0?$_List_iterator@V?$_List_val@U?$_List_simple_types@UWeaponRecord@WeaponMarkers@@@std@@@std@@@std@@QAE@PAU?$_List_node@UWeaponRecord@WeaponMarkers@@PAX@1@PBV?$_List_val@U?$_List_simple_types@UWeaponRecord@WeaponMarkers@@@std@@@1@@Z ; std::_List_iterator<std::_List_val<std::_List_simple_types<WeaponMarkers::WeaponRecord> > >::_List_iterator<std::_List_val<std::_List_simple_types<WeaponMarkers::WeaponRecord> > >
	mov	eax, DWORD PTR ___$ReturnUdt$[ebp]

; 1018 : 		}

	mov	ecx, DWORD PTR __$EHRec$[ebp]
	mov	DWORD PTR fs:0, ecx
	pop	ecx
	add	esp, 16					; 00000010H
	cmp	ebp, esp
	call	__RTC_CheckEsp
	mov	esp, ebp
	pop	ebp
	ret	4
_TEXT	ENDS
;	COMDAT text$x
text$x	SEGMENT
__ehhandler$?end@?$list@UWeaponRecord@WeaponMarkers@@V?$allocator@UWeaponRecord@WeaponMarkers@@@std@@@std@@QAE?AV?$_List_iterator@V?$_List_val@U?$_List_simple_types@UWeaponRecord@WeaponMarkers@@@std@@@std@@@2@XZ:
	mov	edx, DWORD PTR [esp+8]
	lea	eax, DWORD PTR [edx+12]
	mov	ecx, DWORD PTR [edx-8]
	xor	ecx, eax
	call	@__security_check_cookie@4
	mov	eax, OFFSET __ehfuncinfo$?end@?$list@UWeaponRecord@WeaponMarkers@@V?$allocator@UWeaponRecord@WeaponMarkers@@@std@@@std@@QAE?AV?$_List_iterator@V?$_List_val@U?$_List_simple_types@UWeaponRecord@WeaponMarkers@@@std@@@std@@@2@XZ
	jmp	___CxxFrameHandler3
text$x	ENDS
?end@?$list@UWeaponRecord@WeaponMarkers@@V?$allocator@UWeaponRecord@WeaponMarkers@@@std@@@std@@QAE?AV?$_List_iterator@V?$_List_val@U?$_List_simple_types@UWeaponRecord@WeaponMarkers@@@std@@@std@@@2@XZ ENDP ; std::list<WeaponMarkers::WeaponRecord,std::allocator<WeaponMarkers::WeaponRecord> >::end
; Function compile flags: /Odtp /RTCsu
; File c:\program files (x86)\microsoft visual studio\2017\enterprise\vc\tools\msvc\14.15.26726\include\list
;	COMDAT ?begin@?$list@UWeaponRecord@WeaponMarkers@@V?$allocator@UWeaponRecord@WeaponMarkers@@@std@@@std@@QAE?AV?$_List_iterator@V?$_List_val@U?$_List_simple_types@UWeaponRecord@WeaponMarkers@@@std@@@std@@@2@XZ
_TEXT	SEGMENT
_this$ = -16						; size = 4
__$EHRec$ = -12						; size = 12
___$ReturnUdt$ = 8					; size = 4
?begin@?$list@UWeaponRecord@WeaponMarkers@@V?$allocator@UWeaponRecord@WeaponMarkers@@@std@@@std@@QAE?AV?$_List_iterator@V?$_List_val@U?$_List_simple_types@UWeaponRecord@WeaponMarkers@@@std@@@std@@@2@XZ PROC ; std::list<WeaponMarkers::WeaponRecord,std::allocator<WeaponMarkers::WeaponRecord> >::begin, COMDAT
; _this$ = ecx

; 1006 : 		{	// return iterator for beginning of mutable sequence

	push	ebp
	mov	ebp, esp
	push	-1
	push	__ehhandler$?begin@?$list@UWeaponRecord@WeaponMarkers@@V?$allocator@UWeaponRecord@WeaponMarkers@@@std@@@std@@QAE?AV?$_List_iterator@V?$_List_val@U?$_List_simple_types@UWeaponRecord@WeaponMarkers@@@std@@@std@@@2@XZ
	mov	eax, DWORD PTR fs:0
	push	eax
	push	ecx
	mov	DWORD PTR [ebp-16], -858993460		; ccccccccH
	mov	eax, DWORD PTR ___security_cookie
	xor	eax, ebp
	push	eax
	lea	eax, DWORD PTR __$EHRec$[ebp]
	mov	DWORD PTR fs:0, eax
	mov	DWORD PTR _this$[ebp], ecx

; 1007 : 		return (iterator(this->_Myhead()->_Next, _STD addressof(this->_Get_data())));

	mov	ecx, DWORD PTR _this$[ebp]
	call	?_Get_data@?$_List_alloc@U?$_List_base_types@UWeaponRecord@WeaponMarkers@@V?$allocator@UWeaponRecord@WeaponMarkers@@@std@@@std@@@std@@QAEAAV?$_List_val@U?$_List_simple_types@UWeaponRecord@WeaponMarkers@@@std@@@2@XZ ; std::_List_alloc<std::_List_base_types<WeaponMarkers::WeaponRecord,std::allocator<WeaponMarkers::WeaponRecord> > >::_Get_data
	push	eax
	call	??$addressof@V?$_List_val@U?$_List_simple_types@UWeaponRecord@WeaponMarkers@@@std@@@std@@@std@@YAPAV?$_List_val@U?$_List_simple_types@UWeaponRecord@WeaponMarkers@@@std@@@0@AAV10@@Z ; std::addressof<std::_List_val<std::_List_simple_types<WeaponMarkers::WeaponRecord> > >
	add	esp, 4
	push	eax
	mov	ecx, DWORD PTR _this$[ebp]
	call	?_Myhead@?$_List_alloc@U?$_List_base_types@UWeaponRecord@WeaponMarkers@@V?$allocator@UWeaponRecord@WeaponMarkers@@@std@@@std@@@std@@QAEAAPAU?$_List_node@UWeaponRecord@WeaponMarkers@@PAX@2@XZ ; std::_List_alloc<std::_List_base_types<WeaponMarkers::WeaponRecord,std::allocator<WeaponMarkers::WeaponRecord> > >::_Myhead
	mov	eax, DWORD PTR [eax]
	mov	ecx, DWORD PTR [eax]
	push	ecx
	mov	ecx, DWORD PTR ___$ReturnUdt$[ebp]
	call	??0?$_List_iterator@V?$_List_val@U?$_List_simple_types@UWeaponRecord@WeaponMarkers@@@std@@@std@@@std@@QAE@PAU?$_List_node@UWeaponRecord@WeaponMarkers@@PAX@1@PBV?$_List_val@U?$_List_simple_types@UWeaponRecord@WeaponMarkers@@@std@@@1@@Z ; std::_List_iterator<std::_List_val<std::_List_simple_types<WeaponMarkers::WeaponRecord> > >::_List_iterator<std::_List_val<std::_List_simple_types<WeaponMarkers::WeaponRecord> > >
	mov	eax, DWORD PTR ___$ReturnUdt$[ebp]

; 1008 : 		}

	mov	ecx, DWORD PTR __$EHRec$[ebp]
	mov	DWORD PTR fs:0, ecx
	pop	ecx
	add	esp, 16					; 00000010H
	cmp	ebp, esp
	call	__RTC_CheckEsp
	mov	esp, ebp
	pop	ebp
	ret	4
_TEXT	ENDS
;	COMDAT text$x
text$x	SEGMENT
__ehhandler$?begin@?$list@UWeaponRecord@WeaponMarkers@@V?$allocator@UWeaponRecord@WeaponMarkers@@@std@@@std@@QAE?AV?$_List_iterator@V?$_List_val@U?$_List_simple_types@UWeaponRecord@WeaponMarkers@@@std@@@std@@@2@XZ:
	mov	edx, DWORD PTR [esp+8]
	lea	eax, DWORD PTR [edx+12]
	mov	ecx, DWORD PTR [edx-8]
	xor	ecx, eax
	call	@__security_check_cookie@4
	mov	eax, OFFSET __ehfuncinfo$?begin@?$list@UWeaponRecord@WeaponMarkers@@V?$allocator@UWeaponRecord@WeaponMarkers@@@std@@@std@@QAE?AV?$_List_iterator@V?$_List_val@U?$_List_simple_types@UWeaponRecord@WeaponMarkers@@@std@@@std@@@2@XZ
	jmp	___CxxFrameHandler3
text$x	ENDS
?begin@?$list@UWeaponRecord@WeaponMarkers@@V?$allocator@UWeaponRecord@WeaponMarkers@@@std@@@std@@QAE?AV?$_List_iterator@V?$_List_val@U?$_List_simple_types@UWeaponRecord@WeaponMarkers@@@std@@@std@@@2@XZ ENDP ; std::list<WeaponMarkers::WeaponRecord,std::allocator<WeaponMarkers::WeaponRecord> >::begin
; Function compile flags: /Odtp /RTCsu
; File c:\program files (x86)\microsoft visual studio\2017\enterprise\vc\tools\msvc\14.15.26726\include\list
;	COMDAT ??1?$list@UWeaponRecord@WeaponMarkers@@V?$allocator@UWeaponRecord@WeaponMarkers@@@std@@@std@@QAE@XZ
_TEXT	SEGMENT
_this$ = -16						; size = 4
__$EHRec$ = -12						; size = 12
??1?$list@UWeaponRecord@WeaponMarkers@@V?$allocator@UWeaponRecord@WeaponMarkers@@@std@@@std@@QAE@XZ PROC ; std::list<WeaponMarkers::WeaponRecord,std::allocator<WeaponMarkers::WeaponRecord> >::~list<WeaponMarkers::WeaponRecord,std::allocator<WeaponMarkers::WeaponRecord> >, COMDAT
; _this$ = ecx

; 981  : 		{	// destroy the object

	push	ebp
	mov	ebp, esp
	push	-1
	push	__ehhandler$??1?$list@UWeaponRecord@WeaponMarkers@@V?$allocator@UWeaponRecord@WeaponMarkers@@@std@@@std@@QAE@XZ
	mov	eax, DWORD PTR fs:0
	push	eax
	push	ecx
	mov	DWORD PTR [ebp-16], -858993460		; ccccccccH
	mov	eax, DWORD PTR ___security_cookie
	xor	eax, ebp
	push	eax
	lea	eax, DWORD PTR __$EHRec$[ebp]
	mov	DWORD PTR fs:0, eax
	mov	DWORD PTR _this$[ebp], ecx

; 982  : 		_Tidy();

	mov	ecx, DWORD PTR _this$[ebp]
	call	?_Tidy@?$list@UWeaponRecord@WeaponMarkers@@V?$allocator@UWeaponRecord@WeaponMarkers@@@std@@@std@@QAEXXZ ; std::list<WeaponMarkers::WeaponRecord,std::allocator<WeaponMarkers::WeaponRecord> >::_Tidy

; 983  : 		}

	mov	ecx, DWORD PTR _this$[ebp]
	call	??1?$_List_buy@UWeaponRecord@WeaponMarkers@@V?$allocator@UWeaponRecord@WeaponMarkers@@@std@@@std@@QAE@XZ
	mov	ecx, DWORD PTR __$EHRec$[ebp]
	mov	DWORD PTR fs:0, ecx
	pop	ecx
	add	esp, 16					; 00000010H
	cmp	ebp, esp
	call	__RTC_CheckEsp
	mov	esp, ebp
	pop	ebp
	ret	0
_TEXT	ENDS
;	COMDAT text$x
text$x	SEGMENT
__ehhandler$??1?$list@UWeaponRecord@WeaponMarkers@@V?$allocator@UWeaponRecord@WeaponMarkers@@@std@@@std@@QAE@XZ:
	mov	edx, DWORD PTR [esp+8]
	lea	eax, DWORD PTR [edx+12]
	mov	ecx, DWORD PTR [edx-8]
	xor	ecx, eax
	call	@__security_check_cookie@4
	mov	eax, OFFSET __ehfuncinfo$??1?$list@UWeaponRecord@WeaponMarkers@@V?$allocator@UWeaponRecord@WeaponMarkers@@@std@@@std@@QAE@XZ
	jmp	___CxxFrameHandler3
text$x	ENDS
??1?$list@UWeaponRecord@WeaponMarkers@@V?$allocator@UWeaponRecord@WeaponMarkers@@@std@@@std@@QAE@XZ ENDP ; std::list<WeaponMarkers::WeaponRecord,std::allocator<WeaponMarkers::WeaponRecord> >::~list<WeaponMarkers::WeaponRecord,std::allocator<WeaponMarkers::WeaponRecord> >
; Function compile flags: /Odtp /RTCsu
; File c:\program files (x86)\microsoft visual studio\2017\enterprise\vc\tools\msvc\14.15.26726\include\list
;	COMDAT ?push_back@?$list@UWeaponRecord@WeaponMarkers@@V?$allocator@UWeaponRecord@WeaponMarkers@@@std@@@std@@QAEX$$QAUWeaponRecord@WeaponMarkers@@@Z
_TEXT	SEGMENT
$T1 = -12						; size = 4
$T2 = -8						; size = 4
_this$ = -4						; size = 4
__Val$ = 8						; size = 4
?push_back@?$list@UWeaponRecord@WeaponMarkers@@V?$allocator@UWeaponRecord@WeaponMarkers@@@std@@@std@@QAEX$$QAUWeaponRecord@WeaponMarkers@@@Z PROC ; std::list<WeaponMarkers::WeaponRecord,std::allocator<WeaponMarkers::WeaponRecord> >::push_back, COMDAT
; _this$ = ecx

; 905  : 		{	// insert element at end

	push	ebp
	mov	ebp, esp
	sub	esp, 12					; 0000000cH
	mov	DWORD PTR [ebp-12], -858993460		; ccccccccH
	mov	DWORD PTR [ebp-8], -858993460		; ccccccccH
	mov	DWORD PTR [ebp-4], -858993460		; ccccccccH
	mov	DWORD PTR _this$[ebp], ecx

; 906  : 		_Insert(_Unchecked_end(), _STD move(_Val));

	lea	eax, DWORD PTR $T1[ebp]
	push	eax
	mov	ecx, DWORD PTR _this$[ebp]
	call	?_Unchecked_end@?$list@UWeaponRecord@WeaponMarkers@@V?$allocator@UWeaponRecord@WeaponMarkers@@@std@@@std@@QAE?AV?$_List_unchecked_iterator@V?$_List_val@U?$_List_simple_types@UWeaponRecord@WeaponMarkers@@@std@@@std@@@2@XZ ; std::list<WeaponMarkers::WeaponRecord,std::allocator<WeaponMarkers::WeaponRecord> >::_Unchecked_end
	mov	ecx, DWORD PTR [eax]
	mov	DWORD PTR $T2[ebp], ecx
	mov	edx, DWORD PTR __Val$[ebp]
	push	edx
	call	??$move@AAUWeaponRecord@WeaponMarkers@@@std@@YA$$QAUWeaponRecord@WeaponMarkers@@AAU12@@Z ; std::move<WeaponMarkers::WeaponRecord &>
	add	esp, 4
	push	eax
	mov	eax, DWORD PTR $T2[ebp]
	push	eax
	mov	ecx, DWORD PTR _this$[ebp]
	call	??$_Insert@UWeaponRecord@WeaponMarkers@@@?$list@UWeaponRecord@WeaponMarkers@@V?$allocator@UWeaponRecord@WeaponMarkers@@@std@@@std@@QAEXV?$_List_unchecked_const_iterator@V?$_List_val@U?$_List_simple_types@UWeaponRecord@WeaponMarkers@@@std@@@std@@U_Iterator_base0@2@@1@$$QAUWeaponRecord@WeaponMarkers@@@Z ; std::list<WeaponMarkers::WeaponRecord,std::allocator<WeaponMarkers::WeaponRecord> >::_Insert<WeaponMarkers::WeaponRecord>

; 907  : 		}

	add	esp, 12					; 0000000cH
	cmp	ebp, esp
	call	__RTC_CheckEsp
	mov	esp, ebp
	pop	ebp
	ret	4
?push_back@?$list@UWeaponRecord@WeaponMarkers@@V?$allocator@UWeaponRecord@WeaponMarkers@@@std@@@std@@QAEX$$QAUWeaponRecord@WeaponMarkers@@@Z ENDP ; std::list<WeaponMarkers::WeaponRecord,std::allocator<WeaponMarkers::WeaponRecord> >::push_back
_TEXT	ENDS
; Function compile flags: /Odtp /RTCsu
; File c:\program files (x86)\microsoft visual studio\2017\enterprise\vc\tools\msvc\14.15.26726\include\list
;	COMDAT ??0?$list@UWeaponRecord@WeaponMarkers@@V?$allocator@UWeaponRecord@WeaponMarkers@@@std@@@std@@QAE@XZ
_TEXT	SEGMENT
_this$ = -4						; size = 4
??0?$list@UWeaponRecord@WeaponMarkers@@V?$allocator@UWeaponRecord@WeaponMarkers@@@std@@@std@@QAE@XZ PROC ; std::list<WeaponMarkers::WeaponRecord,std::allocator<WeaponMarkers::WeaponRecord> >::list<WeaponMarkers::WeaponRecord,std::allocator<WeaponMarkers::WeaponRecord> >, COMDAT
; _this$ = ecx

; 770  : 		{	// construct empty list

	push	ebp
	mov	ebp, esp
	push	ecx
	mov	DWORD PTR [ebp-4], -858993460		; ccccccccH
	mov	DWORD PTR _this$[ebp], ecx

; 769  : 		: _Mybase()

	mov	ecx, DWORD PTR _this$[ebp]
	call	??0?$_List_buy@UWeaponRecord@WeaponMarkers@@V?$allocator@UWeaponRecord@WeaponMarkers@@@std@@@std@@QAE@XZ ; std::_List_buy<WeaponMarkers::WeaponRecord,std::allocator<WeaponMarkers::WeaponRecord> >::_List_buy<WeaponMarkers::WeaponRecord,std::allocator<WeaponMarkers::WeaponRecord> >

; 771  : 		}

	mov	eax, DWORD PTR _this$[ebp]
	add	esp, 4
	cmp	ebp, esp
	call	__RTC_CheckEsp
	mov	esp, ebp
	pop	ebp
	ret	0
??0?$list@UWeaponRecord@WeaponMarkers@@V?$allocator@UWeaponRecord@WeaponMarkers@@@std@@@std@@QAE@XZ ENDP ; std::list<WeaponMarkers::WeaponRecord,std::allocator<WeaponMarkers::WeaponRecord> >::list<WeaponMarkers::WeaponRecord,std::allocator<WeaponMarkers::WeaponRecord> >
_TEXT	ENDS
; Function compile flags: /Odtp /RTCsu
;	COMDAT ??1?$_List_buy@UWeaponRecord@WeaponMarkers@@V?$allocator@UWeaponRecord@WeaponMarkers@@@std@@@std@@QAE@XZ
_TEXT	SEGMENT
_this$ = -4						; size = 4
??1?$_List_buy@UWeaponRecord@WeaponMarkers@@V?$allocator@UWeaponRecord@WeaponMarkers@@@std@@@std@@QAE@XZ PROC ; std::_List_buy<WeaponMarkers::WeaponRecord,std::allocator<WeaponMarkers::WeaponRecord> >::~_List_buy<WeaponMarkers::WeaponRecord,std::allocator<WeaponMarkers::WeaponRecord> >, COMDAT
; _this$ = ecx
	push	ebp
	mov	ebp, esp
	push	ecx
	mov	DWORD PTR [ebp-4], -858993460		; ccccccccH
	mov	DWORD PTR _this$[ebp], ecx
	mov	ecx, DWORD PTR _this$[ebp]
	call	??1?$_List_alloc@U?$_List_base_types@UWeaponRecord@WeaponMarkers@@V?$allocator@UWeaponRecord@WeaponMarkers@@@std@@@std@@@std@@QAE@XZ ; std::_List_alloc<std::_List_base_types<WeaponMarkers::WeaponRecord,std::allocator<WeaponMarkers::WeaponRecord> > >::~_List_alloc<std::_List_base_types<WeaponMarkers::WeaponRecord,std::allocator<WeaponMarkers::WeaponRecord> > >
	add	esp, 4
	cmp	ebp, esp
	call	__RTC_CheckEsp
	mov	esp, ebp
	pop	ebp
	ret	0
??1?$_List_buy@UWeaponRecord@WeaponMarkers@@V?$allocator@UWeaponRecord@WeaponMarkers@@@std@@@std@@QAE@XZ ENDP ; std::_List_buy<WeaponMarkers::WeaponRecord,std::allocator<WeaponMarkers::WeaponRecord> >::~_List_buy<WeaponMarkers::WeaponRecord,std::allocator<WeaponMarkers::WeaponRecord> >
_TEXT	ENDS
; Function compile flags: /Odtp /RTCsu
; File c:\program files (x86)\microsoft visual studio\2017\enterprise\vc\tools\msvc\14.15.26726\include\list
;	COMDAT ?_Freenode@?$_List_buy@UWeaponRecord@WeaponMarkers@@V?$allocator@UWeaponRecord@WeaponMarkers@@@std@@@std@@QAEXPAU?$_List_node@UWeaponRecord@WeaponMarkers@@PAX@2@@Z
_TEXT	SEGMENT
__Al$ = -8						; size = 4
_this$ = -4						; size = 4
__Pnode$ = 8						; size = 4
?_Freenode@?$_List_buy@UWeaponRecord@WeaponMarkers@@V?$allocator@UWeaponRecord@WeaponMarkers@@@std@@@std@@QAEXPAU?$_List_node@UWeaponRecord@WeaponMarkers@@PAX@2@@Z PROC ; std::_List_buy<WeaponMarkers::WeaponRecord,std::allocator<WeaponMarkers::WeaponRecord> >::_Freenode, COMDAT
; _this$ = ecx

; 728  : 		{	// give node back

	push	ebp
	mov	ebp, esp
	sub	esp, 8
	mov	DWORD PTR [ebp-8], -858993460		; ccccccccH
	mov	DWORD PTR [ebp-4], -858993460		; ccccccccH
	mov	DWORD PTR _this$[ebp], ecx

; 729  : 		_Alnode& _Al = this->_Getal();

	mov	ecx, DWORD PTR _this$[ebp]
	call	?_Getal@?$_List_alloc@U?$_List_base_types@UWeaponRecord@WeaponMarkers@@V?$allocator@UWeaponRecord@WeaponMarkers@@@std@@@std@@@std@@QAEAAV?$allocator@U?$_List_node@UWeaponRecord@WeaponMarkers@@PAX@std@@@2@XZ ; std::_List_alloc<std::_List_base_types<WeaponMarkers::WeaponRecord,std::allocator<WeaponMarkers::WeaponRecord> > >::_Getal
	mov	DWORD PTR __Al$[ebp], eax

; 730  : 		_Alnode_traits::destroy(_Al, _STD addressof(_Pnode->_Myval));

	mov	eax, DWORD PTR __Pnode$[ebp]
	add	eax, 8
	push	eax
	call	??$addressof@UWeaponRecord@WeaponMarkers@@@std@@YAPAUWeaponRecord@WeaponMarkers@@AAU12@@Z ; std::addressof<WeaponMarkers::WeaponRecord>
	add	esp, 4
	push	eax
	mov	ecx, DWORD PTR __Al$[ebp]
	push	ecx
	call	??$destroy@UWeaponRecord@WeaponMarkers@@@?$_Default_allocator_traits@V?$allocator@U?$_List_node@UWeaponRecord@WeaponMarkers@@PAX@std@@@std@@@std@@SAXAAV?$allocator@U?$_List_node@UWeaponRecord@WeaponMarkers@@PAX@std@@@1@QAUWeaponRecord@WeaponMarkers@@@Z ; std::_Default_allocator_traits<std::allocator<std::_List_node<WeaponMarkers::WeaponRecord,void *> > >::destroy<WeaponMarkers::WeaponRecord>
	add	esp, 8

; 731  : 		_Node::_Freenode0(_Al, _Pnode);

	mov	edx, DWORD PTR __Pnode$[ebp]
	push	edx
	mov	eax, DWORD PTR __Al$[ebp]
	push	eax
	call	??$_Freenode0@V?$allocator@U?$_List_node@UWeaponRecord@WeaponMarkers@@PAX@std@@@std@@@?$_List_node@UWeaponRecord@WeaponMarkers@@PAX@std@@SAXAAV?$allocator@U?$_List_node@UWeaponRecord@WeaponMarkers@@PAX@std@@@1@PAU01@@Z ; std::_List_node<WeaponMarkers::WeaponRecord,void *>::_Freenode0<std::allocator<std::_List_node<WeaponMarkers::WeaponRecord,void *> > >
	add	esp, 8

; 732  : 		}

	add	esp, 8
	cmp	ebp, esp
	call	__RTC_CheckEsp
	mov	esp, ebp
	pop	ebp
	ret	4
?_Freenode@?$_List_buy@UWeaponRecord@WeaponMarkers@@V?$allocator@UWeaponRecord@WeaponMarkers@@@std@@@std@@QAEXPAU?$_List_node@UWeaponRecord@WeaponMarkers@@PAX@2@@Z ENDP ; std::_List_buy<WeaponMarkers::WeaponRecord,std::allocator<WeaponMarkers::WeaponRecord> >::_Freenode
_TEXT	ENDS
; Function compile flags: /Odtp /RTCsu
; File c:\program files (x86)\microsoft visual studio\2017\enterprise\vc\tools\msvc\14.15.26726\include\list
;	COMDAT ??0?$_List_buy@UWeaponRecord@WeaponMarkers@@V?$allocator@UWeaponRecord@WeaponMarkers@@@std@@@std@@QAE@XZ
_TEXT	SEGMENT
_this$ = -4						; size = 4
??0?$_List_buy@UWeaponRecord@WeaponMarkers@@V?$allocator@UWeaponRecord@WeaponMarkers@@@std@@@std@@QAE@XZ PROC ; std::_List_buy<WeaponMarkers::WeaponRecord,std::allocator<WeaponMarkers::WeaponRecord> >::_List_buy<WeaponMarkers::WeaponRecord,std::allocator<WeaponMarkers::WeaponRecord> >, COMDAT
; _this$ = ecx

; 699  : 		{	// default construct

	push	ebp
	mov	ebp, esp
	push	ecx
	mov	DWORD PTR [ebp-4], -858993460		; ccccccccH
	mov	DWORD PTR _this$[ebp], ecx

; 698  : 		: _Mybase()

	mov	ecx, DWORD PTR _this$[ebp]
	call	??0?$_List_alloc@U?$_List_base_types@UWeaponRecord@WeaponMarkers@@V?$allocator@UWeaponRecord@WeaponMarkers@@@std@@@std@@@std@@QAE@XZ ; std::_List_alloc<std::_List_base_types<WeaponMarkers::WeaponRecord,std::allocator<WeaponMarkers::WeaponRecord> > >::_List_alloc<std::_List_base_types<WeaponMarkers::WeaponRecord,std::allocator<WeaponMarkers::WeaponRecord> > >

; 700  : 		}

	mov	eax, DWORD PTR _this$[ebp]
	add	esp, 4
	cmp	ebp, esp
	call	__RTC_CheckEsp
	mov	esp, ebp
	pop	ebp
	ret	0
??0?$_List_buy@UWeaponRecord@WeaponMarkers@@V?$allocator@UWeaponRecord@WeaponMarkers@@@std@@@std@@QAE@XZ ENDP ; std::_List_buy<WeaponMarkers::WeaponRecord,std::allocator<WeaponMarkers::WeaponRecord> >::_List_buy<WeaponMarkers::WeaponRecord,std::allocator<WeaponMarkers::WeaponRecord> >
_TEXT	ENDS
; Function compile flags: /Odtp /RTCsu
; File c:\program files (x86)\microsoft visual studio\2017\enterprise\vc\tools\msvc\14.15.26726\include\xutility
;	COMDAT ?_Get_second@?$_Compressed_pair@V?$allocator@U?$_List_node@UWeaponRecord@WeaponMarkers@@PAX@std@@@std@@V?$_List_val@U?$_List_simple_types@UWeaponRecord@WeaponMarkers@@@std@@@2@$00@std@@QBEABV?$_List_val@U?$_List_simple_types@UWeaponRecord@WeaponMarkers@@@std@@@2@XZ
_TEXT	SEGMENT
_this$ = -4						; size = 4
?_Get_second@?$_Compressed_pair@V?$allocator@U?$_List_node@UWeaponRecord@WeaponMarkers@@PAX@std@@@std@@V?$_List_val@U?$_List_simple_types@UWeaponRecord@WeaponMarkers@@@std@@@2@$00@std@@QBEABV?$_List_val@U?$_List_simple_types@UWeaponRecord@WeaponMarkers@@@std@@@2@XZ PROC ; std::_Compressed_pair<std::allocator<std::_List_node<WeaponMarkers::WeaponRecord,void *> >,std::_List_val<std::_List_simple_types<WeaponMarkers::WeaponRecord> >,1>::_Get_second, COMDAT
; _this$ = ecx

; 306  : 		{	// return const reference to second

	push	ebp
	mov	ebp, esp
	push	ecx
	mov	DWORD PTR [ebp-4], -858993460		; ccccccccH
	mov	DWORD PTR _this$[ebp], ecx

; 307  : 		return (_Myval2);

	mov	eax, DWORD PTR _this$[ebp]

; 308  : 		}

	mov	esp, ebp
	pop	ebp
	ret	0
?_Get_second@?$_Compressed_pair@V?$allocator@U?$_List_node@UWeaponRecord@WeaponMarkers@@PAX@std@@@std@@V?$_List_val@U?$_List_simple_types@UWeaponRecord@WeaponMarkers@@@std@@@2@$00@std@@QBEABV?$_List_val@U?$_List_simple_types@UWeaponRecord@WeaponMarkers@@@std@@@2@XZ ENDP ; std::_Compressed_pair<std::allocator<std::_List_node<WeaponMarkers::WeaponRecord,void *> >,std::_List_val<std::_List_simple_types<WeaponMarkers::WeaponRecord> >,1>::_Get_second
_TEXT	ENDS
; Function compile flags: /Odtp /RTCsu
; File c:\program files (x86)\microsoft visual studio\2017\enterprise\vc\tools\msvc\14.15.26726\include\xutility
;	COMDAT ?_Get_second@?$_Compressed_pair@V?$allocator@U?$_List_node@UWeaponRecord@WeaponMarkers@@PAX@std@@@std@@V?$_List_val@U?$_List_simple_types@UWeaponRecord@WeaponMarkers@@@std@@@2@$00@std@@QAEAAV?$_List_val@U?$_List_simple_types@UWeaponRecord@WeaponMarkers@@@std@@@2@XZ
_TEXT	SEGMENT
_this$ = -4						; size = 4
?_Get_second@?$_Compressed_pair@V?$allocator@U?$_List_node@UWeaponRecord@WeaponMarkers@@PAX@std@@@std@@V?$_List_val@U?$_List_simple_types@UWeaponRecord@WeaponMarkers@@@std@@@2@$00@std@@QAEAAV?$_List_val@U?$_List_simple_types@UWeaponRecord@WeaponMarkers@@@std@@@2@XZ PROC ; std::_Compressed_pair<std::allocator<std::_List_node<WeaponMarkers::WeaponRecord,void *> >,std::_List_val<std::_List_simple_types<WeaponMarkers::WeaponRecord> >,1>::_Get_second, COMDAT
; _this$ = ecx

; 301  : 		{	// return reference to second

	push	ebp
	mov	ebp, esp
	push	ecx
	mov	DWORD PTR [ebp-4], -858993460		; ccccccccH
	mov	DWORD PTR _this$[ebp], ecx

; 302  : 		return (_Myval2);

	mov	eax, DWORD PTR _this$[ebp]

; 303  : 		}

	mov	esp, ebp
	pop	ebp
	ret	0
?_Get_second@?$_Compressed_pair@V?$allocator@U?$_List_node@UWeaponRecord@WeaponMarkers@@PAX@std@@@std@@V?$_List_val@U?$_List_simple_types@UWeaponRecord@WeaponMarkers@@@std@@@2@$00@std@@QAEAAV?$_List_val@U?$_List_simple_types@UWeaponRecord@WeaponMarkers@@@std@@@2@XZ ENDP ; std::_Compressed_pair<std::allocator<std::_List_node<WeaponMarkers::WeaponRecord,void *> >,std::_List_val<std::_List_simple_types<WeaponMarkers::WeaponRecord> >,1>::_Get_second
_TEXT	ENDS
; Function compile flags: /Odtp /RTCsu
; File c:\program files (x86)\microsoft visual studio\2017\enterprise\vc\tools\msvc\14.15.26726\include\xutility
;	COMDAT ?_Get_first@?$_Compressed_pair@V?$allocator@U?$_List_node@UWeaponRecord@WeaponMarkers@@PAX@std@@@std@@V?$_List_val@U?$_List_simple_types@UWeaponRecord@WeaponMarkers@@@std@@@2@$00@std@@QBEABV?$allocator@U?$_List_node@UWeaponRecord@WeaponMarkers@@PAX@std@@@2@XZ
_TEXT	SEGMENT
_this$ = -4						; size = 4
?_Get_first@?$_Compressed_pair@V?$allocator@U?$_List_node@UWeaponRecord@WeaponMarkers@@PAX@std@@@std@@V?$_List_val@U?$_List_simple_types@UWeaponRecord@WeaponMarkers@@@std@@@2@$00@std@@QBEABV?$allocator@U?$_List_node@UWeaponRecord@WeaponMarkers@@PAX@std@@@2@XZ PROC ; std::_Compressed_pair<std::allocator<std::_List_node<WeaponMarkers::WeaponRecord,void *> >,std::_List_val<std::_List_simple_types<WeaponMarkers::WeaponRecord> >,1>::_Get_first, COMDAT
; _this$ = ecx

; 296  : 		{	// return const reference to first

	push	ebp
	mov	ebp, esp
	push	ecx
	mov	DWORD PTR [ebp-4], -858993460		; ccccccccH
	mov	DWORD PTR _this$[ebp], ecx

; 297  : 		return (*this);

	mov	eax, DWORD PTR _this$[ebp]

; 298  : 		}

	mov	esp, ebp
	pop	ebp
	ret	0
?_Get_first@?$_Compressed_pair@V?$allocator@U?$_List_node@UWeaponRecord@WeaponMarkers@@PAX@std@@@std@@V?$_List_val@U?$_List_simple_types@UWeaponRecord@WeaponMarkers@@@std@@@2@$00@std@@QBEABV?$allocator@U?$_List_node@UWeaponRecord@WeaponMarkers@@PAX@std@@@2@XZ ENDP ; std::_Compressed_pair<std::allocator<std::_List_node<WeaponMarkers::WeaponRecord,void *> >,std::_List_val<std::_List_simple_types<WeaponMarkers::WeaponRecord> >,1>::_Get_first
_TEXT	ENDS
; Function compile flags: /Odtp /RTCsu
; File c:\program files (x86)\microsoft visual studio\2017\enterprise\vc\tools\msvc\14.15.26726\include\xutility
;	COMDAT ?_Get_first@?$_Compressed_pair@V?$allocator@U?$_List_node@UWeaponRecord@WeaponMarkers@@PAX@std@@@std@@V?$_List_val@U?$_List_simple_types@UWeaponRecord@WeaponMarkers@@@std@@@2@$00@std@@QAEAAV?$allocator@U?$_List_node@UWeaponRecord@WeaponMarkers@@PAX@std@@@2@XZ
_TEXT	SEGMENT
_this$ = -4						; size = 4
?_Get_first@?$_Compressed_pair@V?$allocator@U?$_List_node@UWeaponRecord@WeaponMarkers@@PAX@std@@@std@@V?$_List_val@U?$_List_simple_types@UWeaponRecord@WeaponMarkers@@@std@@@2@$00@std@@QAEAAV?$allocator@U?$_List_node@UWeaponRecord@WeaponMarkers@@PAX@std@@@2@XZ PROC ; std::_Compressed_pair<std::allocator<std::_List_node<WeaponMarkers::WeaponRecord,void *> >,std::_List_val<std::_List_simple_types<WeaponMarkers::WeaponRecord> >,1>::_Get_first, COMDAT
; _this$ = ecx

; 291  : 		{	// return reference to first

	push	ebp
	mov	ebp, esp
	push	ecx
	mov	DWORD PTR [ebp-4], -858993460		; ccccccccH
	mov	DWORD PTR _this$[ebp], ecx

; 292  : 		return (*this);

	mov	eax, DWORD PTR _this$[ebp]

; 293  : 		}

	mov	esp, ebp
	pop	ebp
	ret	0
?_Get_first@?$_Compressed_pair@V?$allocator@U?$_List_node@UWeaponRecord@WeaponMarkers@@PAX@std@@@std@@V?$_List_val@U?$_List_simple_types@UWeaponRecord@WeaponMarkers@@@std@@@2@$00@std@@QAEAAV?$allocator@U?$_List_node@UWeaponRecord@WeaponMarkers@@PAX@std@@@2@XZ ENDP ; std::_Compressed_pair<std::allocator<std::_List_node<WeaponMarkers::WeaponRecord,void *> >,std::_List_val<std::_List_simple_types<WeaponMarkers::WeaponRecord> >,1>::_Get_first
_TEXT	ENDS
; Function compile flags: /Odtp /RTCsu
; File c:\program files (x86)\microsoft visual studio\2017\enterprise\vc\tools\msvc\14.15.26726\include\list
;	COMDAT ??0?$_List_val@U?$_List_simple_types@UWeaponRecord@WeaponMarkers@@@std@@@std@@QAE@XZ
_TEXT	SEGMENT
_this$ = -4						; size = 4
??0?$_List_val@U?$_List_simple_types@UWeaponRecord@WeaponMarkers@@@std@@@std@@QAE@XZ PROC ; std::_List_val<std::_List_simple_types<WeaponMarkers::WeaponRecord> >::_List_val<std::_List_simple_types<WeaponMarkers::WeaponRecord> >, COMDAT
; _this$ = ecx

; 428  : 		{	// initialize data

	push	ebp
	mov	ebp, esp
	push	ecx
	mov	DWORD PTR [ebp-4], -858993460		; ccccccccH
	mov	DWORD PTR _this$[ebp], ecx
	mov	ecx, DWORD PTR _this$[ebp]
	call	??0_Container_base12@std@@QAE@XZ	; std::_Container_base12::_Container_base12

; 426  : 		: _Myhead(),

	mov	eax, DWORD PTR _this$[ebp]
	mov	DWORD PTR [eax+4], 0

; 427  : 		_Mysize(0)

	mov	ecx, DWORD PTR _this$[ebp]
	mov	DWORD PTR [ecx+8], 0

; 429  : 		}

	mov	eax, DWORD PTR _this$[ebp]
	add	esp, 4
	cmp	ebp, esp
	call	__RTC_CheckEsp
	mov	esp, ebp
	pop	ebp
	ret	0
??0?$_List_val@U?$_List_simple_types@UWeaponRecord@WeaponMarkers@@@std@@@std@@QAE@XZ ENDP ; std::_List_val<std::_List_simple_types<WeaponMarkers::WeaponRecord> >::_List_val<std::_List_simple_types<WeaponMarkers::WeaponRecord> >
_TEXT	ENDS
; Function compile flags: /Odtp /RTCsu
; File c:\program files (x86)\microsoft visual studio\2017\enterprise\vc\tools\msvc\14.15.26726\include\list
;	COMDAT ?_Mysize@?$_List_alloc@U?$_List_base_types@UWeaponRecord@WeaponMarkers@@V?$allocator@UWeaponRecord@WeaponMarkers@@@std@@@std@@@std@@QAEAAIXZ
_TEXT	SEGMENT
_this$ = -4						; size = 4
?_Mysize@?$_List_alloc@U?$_List_base_types@UWeaponRecord@WeaponMarkers@@V?$allocator@UWeaponRecord@WeaponMarkers@@@std@@@std@@@std@@QAEAAIXZ PROC ; std::_List_alloc<std::_List_base_types<WeaponMarkers::WeaponRecord,std::allocator<WeaponMarkers::WeaponRecord> > >::_Mysize, COMDAT
; _this$ = ecx

; 671  : 		{	// return reference to _Mysize

	push	ebp
	mov	ebp, esp
	push	ecx
	mov	DWORD PTR [ebp-4], -858993460		; ccccccccH
	mov	DWORD PTR _this$[ebp], ecx

; 672  : 		return (_Get_data()._Mysize);

	mov	ecx, DWORD PTR _this$[ebp]
	call	?_Get_data@?$_List_alloc@U?$_List_base_types@UWeaponRecord@WeaponMarkers@@V?$allocator@UWeaponRecord@WeaponMarkers@@@std@@@std@@@std@@QAEAAV?$_List_val@U?$_List_simple_types@UWeaponRecord@WeaponMarkers@@@std@@@2@XZ ; std::_List_alloc<std::_List_base_types<WeaponMarkers::WeaponRecord,std::allocator<WeaponMarkers::WeaponRecord> > >::_Get_data
	add	eax, 8

; 673  : 		}

	add	esp, 4
	cmp	ebp, esp
	call	__RTC_CheckEsp
	mov	esp, ebp
	pop	ebp
	ret	0
?_Mysize@?$_List_alloc@U?$_List_base_types@UWeaponRecord@WeaponMarkers@@V?$allocator@UWeaponRecord@WeaponMarkers@@@std@@@std@@@std@@QAEAAIXZ ENDP ; std::_List_alloc<std::_List_base_types<WeaponMarkers::WeaponRecord,std::allocator<WeaponMarkers::WeaponRecord> > >::_Mysize
_TEXT	ENDS
; Function compile flags: /Odtp /RTCsu
; File c:\program files (x86)\microsoft visual studio\2017\enterprise\vc\tools\msvc\14.15.26726\include\list
;	COMDAT ?_Myhead@?$_List_alloc@U?$_List_base_types@UWeaponRecord@WeaponMarkers@@V?$allocator@UWeaponRecord@WeaponMarkers@@@std@@@std@@@std@@QAEAAPAU?$_List_node@UWeaponRecord@WeaponMarkers@@PAX@2@XZ
_TEXT	SEGMENT
_this$ = -4						; size = 4
?_Myhead@?$_List_alloc@U?$_List_base_types@UWeaponRecord@WeaponMarkers@@V?$allocator@UWeaponRecord@WeaponMarkers@@@std@@@std@@@std@@QAEAAPAU?$_List_node@UWeaponRecord@WeaponMarkers@@PAX@2@XZ PROC ; std::_List_alloc<std::_List_base_types<WeaponMarkers::WeaponRecord,std::allocator<WeaponMarkers::WeaponRecord> > >::_Myhead, COMDAT
; _this$ = ecx

; 661  : 		{	// return reference to _Myhead

	push	ebp
	mov	ebp, esp
	push	ecx
	mov	DWORD PTR [ebp-4], -858993460		; ccccccccH
	mov	DWORD PTR _this$[ebp], ecx

; 662  : 		return (_Get_data()._Myhead);

	mov	ecx, DWORD PTR _this$[ebp]
	call	?_Get_data@?$_List_alloc@U?$_List_base_types@UWeaponRecord@WeaponMarkers@@V?$allocator@UWeaponRecord@WeaponMarkers@@@std@@@std@@@std@@QAEAAV?$_List_val@U?$_List_simple_types@UWeaponRecord@WeaponMarkers@@@std@@@2@XZ ; std::_List_alloc<std::_List_base_types<WeaponMarkers::WeaponRecord,std::allocator<WeaponMarkers::WeaponRecord> > >::_Get_data
	add	eax, 4

; 663  : 		}

	add	esp, 4
	cmp	ebp, esp
	call	__RTC_CheckEsp
	mov	esp, ebp
	pop	ebp
	ret	0
?_Myhead@?$_List_alloc@U?$_List_base_types@UWeaponRecord@WeaponMarkers@@V?$allocator@UWeaponRecord@WeaponMarkers@@@std@@@std@@@std@@QAEAAPAU?$_List_node@UWeaponRecord@WeaponMarkers@@PAX@2@XZ ENDP ; std::_List_alloc<std::_List_base_types<WeaponMarkers::WeaponRecord,std::allocator<WeaponMarkers::WeaponRecord> > >::_Myhead
_TEXT	ENDS
; Function compile flags: /Odtp /RTCsu
; File c:\program files (x86)\microsoft visual studio\2017\enterprise\vc\tools\msvc\14.15.26726\include\list
;	COMDAT ?_Get_data@?$_List_alloc@U?$_List_base_types@UWeaponRecord@WeaponMarkers@@V?$allocator@UWeaponRecord@WeaponMarkers@@@std@@@std@@@std@@QBEABV?$_List_val@U?$_List_simple_types@UWeaponRecord@WeaponMarkers@@@std@@@2@XZ
_TEXT	SEGMENT
_this$ = -4						; size = 4
?_Get_data@?$_List_alloc@U?$_List_base_types@UWeaponRecord@WeaponMarkers@@V?$allocator@UWeaponRecord@WeaponMarkers@@@std@@@std@@@std@@QBEABV?$_List_val@U?$_List_simple_types@UWeaponRecord@WeaponMarkers@@@std@@@2@XZ PROC ; std::_List_alloc<std::_List_base_types<WeaponMarkers::WeaponRecord,std::allocator<WeaponMarkers::WeaponRecord> > >::_Get_data, COMDAT
; _this$ = ecx

; 656  : 		{	// return const reference to _List_val

	push	ebp
	mov	ebp, esp
	push	ecx
	mov	DWORD PTR [ebp-4], -858993460		; ccccccccH
	mov	DWORD PTR _this$[ebp], ecx

; 657  : 		return (_Mypair._Get_second());

	mov	ecx, DWORD PTR _this$[ebp]
	call	?_Get_second@?$_Compressed_pair@V?$allocator@U?$_List_node@UWeaponRecord@WeaponMarkers@@PAX@std@@@std@@V?$_List_val@U?$_List_simple_types@UWeaponRecord@WeaponMarkers@@@std@@@2@$00@std@@QBEABV?$_List_val@U?$_List_simple_types@UWeaponRecord@WeaponMarkers@@@std@@@2@XZ ; std::_Compressed_pair<std::allocator<std::_List_node<WeaponMarkers::WeaponRecord,void *> >,std::_List_val<std::_List_simple_types<WeaponMarkers::WeaponRecord> >,1>::_Get_second

; 658  : 		}

	add	esp, 4
	cmp	ebp, esp
	call	__RTC_CheckEsp
	mov	esp, ebp
	pop	ebp
	ret	0
?_Get_data@?$_List_alloc@U?$_List_base_types@UWeaponRecord@WeaponMarkers@@V?$allocator@UWeaponRecord@WeaponMarkers@@@std@@@std@@@std@@QBEABV?$_List_val@U?$_List_simple_types@UWeaponRecord@WeaponMarkers@@@std@@@2@XZ ENDP ; std::_List_alloc<std::_List_base_types<WeaponMarkers::WeaponRecord,std::allocator<WeaponMarkers::WeaponRecord> > >::_Get_data
_TEXT	ENDS
; Function compile flags: /Odtp /RTCsu
; File c:\program files (x86)\microsoft visual studio\2017\enterprise\vc\tools\msvc\14.15.26726\include\list
;	COMDAT ?_Get_data@?$_List_alloc@U?$_List_base_types@UWeaponRecord@WeaponMarkers@@V?$allocator@UWeaponRecord@WeaponMarkers@@@std@@@std@@@std@@QAEAAV?$_List_val@U?$_List_simple_types@UWeaponRecord@WeaponMarkers@@@std@@@2@XZ
_TEXT	SEGMENT
_this$ = -4						; size = 4
?_Get_data@?$_List_alloc@U?$_List_base_types@UWeaponRecord@WeaponMarkers@@V?$allocator@UWeaponRecord@WeaponMarkers@@@std@@@std@@@std@@QAEAAV?$_List_val@U?$_List_simple_types@UWeaponRecord@WeaponMarkers@@@std@@@2@XZ PROC ; std::_List_alloc<std::_List_base_types<WeaponMarkers::WeaponRecord,std::allocator<WeaponMarkers::WeaponRecord> > >::_Get_data, COMDAT
; _this$ = ecx

; 651  : 		{	// return reference to _List_val

	push	ebp
	mov	ebp, esp
	push	ecx
	mov	DWORD PTR [ebp-4], -858993460		; ccccccccH
	mov	DWORD PTR _this$[ebp], ecx

; 652  : 		return (_Mypair._Get_second());

	mov	ecx, DWORD PTR _this$[ebp]
	call	?_Get_second@?$_Compressed_pair@V?$allocator@U?$_List_node@UWeaponRecord@WeaponMarkers@@PAX@std@@@std@@V?$_List_val@U?$_List_simple_types@UWeaponRecord@WeaponMarkers@@@std@@@2@$00@std@@QAEAAV?$_List_val@U?$_List_simple_types@UWeaponRecord@WeaponMarkers@@@std@@@2@XZ ; std::_Compressed_pair<std::allocator<std::_List_node<WeaponMarkers::WeaponRecord,void *> >,std::_List_val<std::_List_simple_types<WeaponMarkers::WeaponRecord> >,1>::_Get_second

; 653  : 		}

	add	esp, 4
	cmp	ebp, esp
	call	__RTC_CheckEsp
	mov	esp, ebp
	pop	ebp
	ret	0
?_Get_data@?$_List_alloc@U?$_List_base_types@UWeaponRecord@WeaponMarkers@@V?$allocator@UWeaponRecord@WeaponMarkers@@@std@@@std@@@std@@QAEAAV?$_List_val@U?$_List_simple_types@UWeaponRecord@WeaponMarkers@@@std@@@2@XZ ENDP ; std::_List_alloc<std::_List_base_types<WeaponMarkers::WeaponRecord,std::allocator<WeaponMarkers::WeaponRecord> > >::_Get_data
_TEXT	ENDS
; Function compile flags: /Odtp /RTCsu
; File c:\program files (x86)\microsoft visual studio\2017\enterprise\vc\tools\msvc\14.15.26726\include\list
;	COMDAT ?_Getal@?$_List_alloc@U?$_List_base_types@UWeaponRecord@WeaponMarkers@@V?$allocator@UWeaponRecord@WeaponMarkers@@@std@@@std@@@std@@QBEABV?$allocator@U?$_List_node@UWeaponRecord@WeaponMarkers@@PAX@std@@@2@XZ
_TEXT	SEGMENT
_this$ = -4						; size = 4
?_Getal@?$_List_alloc@U?$_List_base_types@UWeaponRecord@WeaponMarkers@@V?$allocator@UWeaponRecord@WeaponMarkers@@@std@@@std@@@std@@QBEABV?$allocator@U?$_List_node@UWeaponRecord@WeaponMarkers@@PAX@std@@@2@XZ PROC ; std::_List_alloc<std::_List_base_types<WeaponMarkers::WeaponRecord,std::allocator<WeaponMarkers::WeaponRecord> > >::_Getal, COMDAT
; _this$ = ecx

; 646  : 		{	// return const reference to allocator

	push	ebp
	mov	ebp, esp
	push	ecx
	mov	DWORD PTR [ebp-4], -858993460		; ccccccccH
	mov	DWORD PTR _this$[ebp], ecx

; 647  : 		return (_Mypair._Get_first());

	mov	ecx, DWORD PTR _this$[ebp]
	call	?_Get_first@?$_Compressed_pair@V?$allocator@U?$_List_node@UWeaponRecord@WeaponMarkers@@PAX@std@@@std@@V?$_List_val@U?$_List_simple_types@UWeaponRecord@WeaponMarkers@@@std@@@2@$00@std@@QBEABV?$allocator@U?$_List_node@UWeaponRecord@WeaponMarkers@@PAX@std@@@2@XZ ; std::_Compressed_pair<std::allocator<std::_List_node<WeaponMarkers::WeaponRecord,void *> >,std::_List_val<std::_List_simple_types<WeaponMarkers::WeaponRecord> >,1>::_Get_first

; 648  : 		}

	add	esp, 4
	cmp	ebp, esp
	call	__RTC_CheckEsp
	mov	esp, ebp
	pop	ebp
	ret	0
?_Getal@?$_List_alloc@U?$_List_base_types@UWeaponRecord@WeaponMarkers@@V?$allocator@UWeaponRecord@WeaponMarkers@@@std@@@std@@@std@@QBEABV?$allocator@U?$_List_node@UWeaponRecord@WeaponMarkers@@PAX@std@@@2@XZ ENDP ; std::_List_alloc<std::_List_base_types<WeaponMarkers::WeaponRecord,std::allocator<WeaponMarkers::WeaponRecord> > >::_Getal
_TEXT	ENDS
; Function compile flags: /Odtp /RTCsu
; File c:\program files (x86)\microsoft visual studio\2017\enterprise\vc\tools\msvc\14.15.26726\include\list
;	COMDAT ?_Getal@?$_List_alloc@U?$_List_base_types@UWeaponRecord@WeaponMarkers@@V?$allocator@UWeaponRecord@WeaponMarkers@@@std@@@std@@@std@@QAEAAV?$allocator@U?$_List_node@UWeaponRecord@WeaponMarkers@@PAX@std@@@2@XZ
_TEXT	SEGMENT
_this$ = -4						; size = 4
?_Getal@?$_List_alloc@U?$_List_base_types@UWeaponRecord@WeaponMarkers@@V?$allocator@UWeaponRecord@WeaponMarkers@@@std@@@std@@@std@@QAEAAV?$allocator@U?$_List_node@UWeaponRecord@WeaponMarkers@@PAX@std@@@2@XZ PROC ; std::_List_alloc<std::_List_base_types<WeaponMarkers::WeaponRecord,std::allocator<WeaponMarkers::WeaponRecord> > >::_Getal, COMDAT
; _this$ = ecx

; 641  : 		{	// return reference to allocator

	push	ebp
	mov	ebp, esp
	push	ecx
	mov	DWORD PTR [ebp-4], -858993460		; ccccccccH
	mov	DWORD PTR _this$[ebp], ecx

; 642  : 		return (_Mypair._Get_first());

	mov	ecx, DWORD PTR _this$[ebp]
	call	?_Get_first@?$_Compressed_pair@V?$allocator@U?$_List_node@UWeaponRecord@WeaponMarkers@@PAX@std@@@std@@V?$_List_val@U?$_List_simple_types@UWeaponRecord@WeaponMarkers@@@std@@@2@$00@std@@QAEAAV?$allocator@U?$_List_node@UWeaponRecord@WeaponMarkers@@PAX@std@@@2@XZ ; std::_Compressed_pair<std::allocator<std::_List_node<WeaponMarkers::WeaponRecord,void *> >,std::_List_val<std::_List_simple_types<WeaponMarkers::WeaponRecord> >,1>::_Get_first

; 643  : 		}

	add	esp, 4
	cmp	ebp, esp
	call	__RTC_CheckEsp
	mov	esp, ebp
	pop	ebp
	ret	0
?_Getal@?$_List_alloc@U?$_List_base_types@UWeaponRecord@WeaponMarkers@@V?$allocator@UWeaponRecord@WeaponMarkers@@@std@@@std@@@std@@QAEAAV?$allocator@U?$_List_node@UWeaponRecord@WeaponMarkers@@PAX@std@@@2@XZ ENDP ; std::_List_alloc<std::_List_base_types<WeaponMarkers::WeaponRecord,std::allocator<WeaponMarkers::WeaponRecord> > >::_Getal
_TEXT	ENDS
; Function compile flags: /Odtp /RTCsu
; File c:\program files (x86)\microsoft visual studio\2017\enterprise\vc\tools\msvc\14.15.26726\include\list
;	COMDAT ?_Orphan_all@?$_List_alloc@U?$_List_base_types@UWeaponRecord@WeaponMarkers@@V?$allocator@UWeaponRecord@WeaponMarkers@@@std@@@std@@@std@@QAEXXZ
_TEXT	SEGMENT
_this$ = -4						; size = 4
?_Orphan_all@?$_List_alloc@U?$_List_base_types@UWeaponRecord@WeaponMarkers@@V?$allocator@UWeaponRecord@WeaponMarkers@@@std@@@std@@@std@@QAEXXZ PROC ; std::_List_alloc<std::_List_base_types<WeaponMarkers::WeaponRecord,std::allocator<WeaponMarkers::WeaponRecord> > >::_Orphan_all, COMDAT
; _this$ = ecx

; 631  : 		{	// orphan all iterators

	push	ebp
	mov	ebp, esp
	push	ecx
	mov	DWORD PTR [ebp-4], -858993460		; ccccccccH
	mov	DWORD PTR _this$[ebp], ecx

; 632  : 		_Get_data()._Orphan_all();

	mov	ecx, DWORD PTR _this$[ebp]
	call	?_Get_data@?$_List_alloc@U?$_List_base_types@UWeaponRecord@WeaponMarkers@@V?$allocator@UWeaponRecord@WeaponMarkers@@@std@@@std@@@std@@QAEAAV?$_List_val@U?$_List_simple_types@UWeaponRecord@WeaponMarkers@@@std@@@2@XZ ; std::_List_alloc<std::_List_base_types<WeaponMarkers::WeaponRecord,std::allocator<WeaponMarkers::WeaponRecord> > >::_Get_data
	mov	ecx, eax
	call	?_Orphan_all@_Container_base12@std@@QAEXXZ ; std::_Container_base12::_Orphan_all

; 633  : 		}

	add	esp, 4
	cmp	ebp, esp
	call	__RTC_CheckEsp
	mov	esp, ebp
	pop	ebp
	ret	0
?_Orphan_all@?$_List_alloc@U?$_List_base_types@UWeaponRecord@WeaponMarkers@@V?$allocator@UWeaponRecord@WeaponMarkers@@@std@@@std@@@std@@QAEXXZ ENDP ; std::_List_alloc<std::_List_base_types<WeaponMarkers::WeaponRecord,std::allocator<WeaponMarkers::WeaponRecord> > >::_Orphan_all
_TEXT	ENDS
; Function compile flags: /Odtp /RTCsu
; File c:\program files (x86)\microsoft visual studio\2017\enterprise\vc\tools\msvc\14.15.26726\include\list
;	COMDAT ?_Buynode0@?$_List_alloc@U?$_List_base_types@UWeaponRecord@WeaponMarkers@@V?$allocator@UWeaponRecord@WeaponMarkers@@@std@@@std@@@std@@QAEPAU?$_List_node@UWeaponRecord@WeaponMarkers@@PAX@2@PAU32@0@Z
_TEXT	SEGMENT
__Al$ = -28						; size = 4
__Pnode$ = -24						; size = 4
_this$ = -20						; size = 4
__$EHRec$ = -16						; size = 16
__Next$ = 8						; size = 4
__Prev$ = 12						; size = 4
?_Buynode0@?$_List_alloc@U?$_List_base_types@UWeaponRecord@WeaponMarkers@@V?$allocator@UWeaponRecord@WeaponMarkers@@@std@@@std@@@std@@QAEPAU?$_List_node@UWeaponRecord@WeaponMarkers@@PAX@2@PAU32@0@Z PROC ; std::_List_alloc<std::_List_base_types<WeaponMarkers::WeaponRecord,std::allocator<WeaponMarkers::WeaponRecord> > >::_Buynode0, COMDAT
; _this$ = ecx

; 609  : 		{	// allocate a node and set links

	push	ebp
	mov	ebp, esp
	push	-1
	push	__ehhandler$?_Buynode0@?$_List_alloc@U?$_List_base_types@UWeaponRecord@WeaponMarkers@@V?$allocator@UWeaponRecord@WeaponMarkers@@@std@@@std@@@std@@QAEPAU?$_List_node@UWeaponRecord@WeaponMarkers@@PAX@2@PAU32@0@Z
	mov	eax, DWORD PTR fs:0
	push	eax
	push	ecx
	sub	esp, 12					; 0000000cH
	push	ebx
	push	esi
	push	edi
	mov	DWORD PTR [ebp-28], -858993460		; ccccccccH
	mov	DWORD PTR [ebp-24], -858993460		; ccccccccH
	mov	DWORD PTR [ebp-20], -858993460		; ccccccccH
	mov	eax, DWORD PTR ___security_cookie
	xor	eax, ebp
	push	eax
	lea	eax, DWORD PTR __$EHRec$[ebp+4]
	mov	DWORD PTR fs:0, eax
	mov	DWORD PTR __$EHRec$[ebp], esp
	mov	DWORD PTR _this$[ebp], ecx

; 610  : 		_Nodeptr _Pnode = _Getal().allocate(1);

	push	1
	mov	ecx, DWORD PTR _this$[ebp]
	call	?_Getal@?$_List_alloc@U?$_List_base_types@UWeaponRecord@WeaponMarkers@@V?$allocator@UWeaponRecord@WeaponMarkers@@@std@@@std@@@std@@QAEAAV?$allocator@U?$_List_node@UWeaponRecord@WeaponMarkers@@PAX@std@@@2@XZ ; std::_List_alloc<std::_List_base_types<WeaponMarkers::WeaponRecord,std::allocator<WeaponMarkers::WeaponRecord> > >::_Getal
	mov	ecx, eax
	call	?allocate@?$allocator@U?$_List_node@UWeaponRecord@WeaponMarkers@@PAX@std@@@std@@QAEPAU?$_List_node@UWeaponRecord@WeaponMarkers@@PAX@2@I@Z ; std::allocator<std::_List_node<WeaponMarkers::WeaponRecord,void *> >::allocate
	mov	DWORD PTR __Pnode$[ebp], eax

; 611  : 
; 612  : 		if (_Next == _Nodeptr())

	cmp	DWORD PTR __Next$[ebp], 0
	jne	SHORT $LN2@Buynode0

; 613  : 			{	// point at self
; 614  : 			_Next = _Pnode;

	mov	eax, DWORD PTR __Pnode$[ebp]
	mov	DWORD PTR __Next$[ebp], eax

; 615  : 			_Prev = _Pnode;

	mov	ecx, DWORD PTR __Pnode$[ebp]
	mov	DWORD PTR __Prev$[ebp], ecx
$LN2@Buynode0:

; 616  : 			}
; 617  : 
; 618  : 		_Alnode& _Al = _Getal();

	mov	ecx, DWORD PTR _this$[ebp]
	call	?_Getal@?$_List_alloc@U?$_List_base_types@UWeaponRecord@WeaponMarkers@@V?$allocator@UWeaponRecord@WeaponMarkers@@@std@@@std@@@std@@QAEAAV?$allocator@U?$_List_node@UWeaponRecord@WeaponMarkers@@PAX@std@@@2@XZ ; std::_List_alloc<std::_List_base_types<WeaponMarkers::WeaponRecord,std::allocator<WeaponMarkers::WeaponRecord> > >::_Getal
	mov	DWORD PTR __Al$[ebp], eax

; 619  : 		_TRY_BEGIN

	mov	DWORD PTR __$EHRec$[ebp+12], 0

; 620  : 		_Alnode_traits::construct(_Al, _STD addressof(_Pnode->_Next), _Next);

	lea	edx, DWORD PTR __Next$[ebp]
	push	edx
	mov	eax, DWORD PTR __Pnode$[ebp]
	push	eax
	call	??$addressof@PAU?$_List_node@UWeaponRecord@WeaponMarkers@@PAX@std@@@std@@YAPAPAU?$_List_node@UWeaponRecord@WeaponMarkers@@PAX@0@AAPAU10@@Z ; std::addressof<std::_List_node<WeaponMarkers::WeaponRecord,void *> *>
	add	esp, 4
	push	eax
	mov	ecx, DWORD PTR __Al$[ebp]
	push	ecx
	call	??$construct@PAU?$_List_node@UWeaponRecord@WeaponMarkers@@PAX@std@@AAPAU12@@?$_Default_allocator_traits@V?$allocator@U?$_List_node@UWeaponRecord@WeaponMarkers@@PAX@std@@@std@@@std@@SAXAAV?$allocator@U?$_List_node@UWeaponRecord@WeaponMarkers@@PAX@std@@@1@QAPAU?$_List_node@UWeaponRecord@WeaponMarkers@@PAX@1@AAPAU31@@Z ; std::_Default_allocator_traits<std::allocator<std::_List_node<WeaponMarkers::WeaponRecord,void *> > >::construct<std::_List_node<WeaponMarkers::WeaponRecord,void *> *,std::_List_node<WeaponMarkers::WeaponRecord,void *> * &>
	add	esp, 12					; 0000000cH

; 621  : 		_Alnode_traits::construct(_Al, _STD addressof(_Pnode->_Prev), _Prev);

	lea	edx, DWORD PTR __Prev$[ebp]
	push	edx
	mov	eax, DWORD PTR __Pnode$[ebp]
	add	eax, 4
	push	eax
	call	??$addressof@PAU?$_List_node@UWeaponRecord@WeaponMarkers@@PAX@std@@@std@@YAPAPAU?$_List_node@UWeaponRecord@WeaponMarkers@@PAX@0@AAPAU10@@Z ; std::addressof<std::_List_node<WeaponMarkers::WeaponRecord,void *> *>
	add	esp, 4
	push	eax
	mov	ecx, DWORD PTR __Al$[ebp]
	push	ecx
	call	??$construct@PAU?$_List_node@UWeaponRecord@WeaponMarkers@@PAX@std@@AAPAU12@@?$_Default_allocator_traits@V?$allocator@U?$_List_node@UWeaponRecord@WeaponMarkers@@PAX@std@@@std@@@std@@SAXAAV?$allocator@U?$_List_node@UWeaponRecord@WeaponMarkers@@PAX@std@@@1@QAPAU?$_List_node@UWeaponRecord@WeaponMarkers@@PAX@1@AAPAU31@@Z ; std::_Default_allocator_traits<std::allocator<std::_List_node<WeaponMarkers::WeaponRecord,void *> > >::construct<std::_List_node<WeaponMarkers::WeaponRecord,void *> *,std::_List_node<WeaponMarkers::WeaponRecord,void *> * &>
	add	esp, 12					; 0000000cH
	jmp	SHORT $LN5@Buynode0
__catch$?_Buynode0@?$_List_alloc@U?$_List_base_types@UWeaponRecord@WeaponMarkers@@V?$allocator@UWeaponRecord@WeaponMarkers@@@std@@@std@@@std@@QAEPAU?$_List_node@UWeaponRecord@WeaponMarkers@@PAX@2@PAU32@0@Z$0:

; 622  : 		_CATCH_ALL
; 623  : 		_Al.deallocate(_Pnode, 1);

	push	1
	mov	edx, DWORD PTR __Pnode$[ebp]
	push	edx
	mov	ecx, DWORD PTR __Al$[ebp]
	call	?deallocate@?$allocator@U?$_List_node@UWeaponRecord@WeaponMarkers@@PAX@std@@@std@@QAEXQAU?$_List_node@UWeaponRecord@WeaponMarkers@@PAX@2@I@Z ; std::allocator<std::_List_node<WeaponMarkers::WeaponRecord,void *> >::deallocate

; 624  : 		_RERAISE;

	push	0
	push	0
	call	__CxxThrowException@8

; 625  : 		_CATCH_END

	mov	eax, $LN8@Buynode0
	ret	0
$LN5@Buynode0:
	mov	DWORD PTR __$EHRec$[ebp+12], -1
	jmp	SHORT __tryend$?_Buynode0@?$_List_alloc@U?$_List_base_types@UWeaponRecord@WeaponMarkers@@V?$allocator@UWeaponRecord@WeaponMarkers@@@std@@@std@@@std@@QAEPAU?$_List_node@UWeaponRecord@WeaponMarkers@@PAX@2@PAU32@0@Z$1
$LN8@Buynode0:
	mov	DWORD PTR __$EHRec$[ebp+12], -1
__tryend$?_Buynode0@?$_List_alloc@U?$_List_base_types@UWeaponRecord@WeaponMarkers@@V?$allocator@UWeaponRecord@WeaponMarkers@@@std@@@std@@@std@@QAEPAU?$_List_node@UWeaponRecord@WeaponMarkers@@PAX@2@PAU32@0@Z$1:

; 626  : 
; 627  : 		return (_Pnode);

	mov	eax, DWORD PTR __Pnode$[ebp]
$LN4@Buynode0:

; 628  : 		}

	mov	ecx, DWORD PTR __$EHRec$[ebp+4]
	mov	DWORD PTR fs:0, ecx
	pop	ecx
	pop	edi
	pop	esi
	pop	ebx
	add	esp, 28					; 0000001cH
	cmp	ebp, esp
	call	__RTC_CheckEsp
	mov	esp, ebp
	pop	ebp
	ret	8
_TEXT	ENDS
;	COMDAT text$x
text$x	SEGMENT
__ehhandler$?_Buynode0@?$_List_alloc@U?$_List_base_types@UWeaponRecord@WeaponMarkers@@V?$allocator@UWeaponRecord@WeaponMarkers@@@std@@@std@@@std@@QAEPAU?$_List_node@UWeaponRecord@WeaponMarkers@@PAX@2@PAU32@0@Z:
	mov	edx, DWORD PTR [esp+8]
	lea	eax, DWORD PTR [edx+12]
	mov	ecx, DWORD PTR [edx-32]
	xor	ecx, eax
	call	@__security_check_cookie@4
	mov	eax, OFFSET __ehfuncinfo$?_Buynode0@?$_List_alloc@U?$_List_base_types@UWeaponRecord@WeaponMarkers@@V?$allocator@UWeaponRecord@WeaponMarkers@@@std@@@std@@@std@@QAEPAU?$_List_node@UWeaponRecord@WeaponMarkers@@PAX@2@PAU32@0@Z
	jmp	___CxxFrameHandler3
text$x	ENDS
?_Buynode0@?$_List_alloc@U?$_List_base_types@UWeaponRecord@WeaponMarkers@@V?$allocator@UWeaponRecord@WeaponMarkers@@@std@@@std@@@std@@QAEPAU?$_List_node@UWeaponRecord@WeaponMarkers@@PAX@2@PAU32@0@Z ENDP ; std::_List_alloc<std::_List_base_types<WeaponMarkers::WeaponRecord,std::allocator<WeaponMarkers::WeaponRecord> > >::_Buynode0
; Function compile flags: /Odtp /RTCsu
; File c:\program files (x86)\microsoft visual studio\2017\enterprise\vc\tools\msvc\14.15.26726\include\list
;	COMDAT ?_Freeheadnode@?$_List_alloc@U?$_List_base_types@UWeaponRecord@WeaponMarkers@@V?$allocator@UWeaponRecord@WeaponMarkers@@@std@@@std@@@std@@QAEXPAU?$_List_node@UWeaponRecord@WeaponMarkers@@PAX@2@@Z
_TEXT	SEGMENT
_this$ = -4						; size = 4
__Pnode$ = 8						; size = 4
?_Freeheadnode@?$_List_alloc@U?$_List_base_types@UWeaponRecord@WeaponMarkers@@V?$allocator@UWeaponRecord@WeaponMarkers@@@std@@@std@@@std@@QAEXPAU?$_List_node@UWeaponRecord@WeaponMarkers@@PAX@2@@Z PROC ; std::_List_alloc<std::_List_base_types<WeaponMarkers::WeaponRecord,std::allocator<WeaponMarkers::WeaponRecord> > >::_Freeheadnode, COMDAT
; _this$ = ecx

; 604  : 		{	// free head node using current allocator

	push	ebp
	mov	ebp, esp
	push	ecx
	mov	DWORD PTR [ebp-4], -858993460		; ccccccccH
	mov	DWORD PTR _this$[ebp], ecx

; 605  : 		_Node::_Freenode0(_Getal(), _Pnode);

	mov	eax, DWORD PTR __Pnode$[ebp]
	push	eax
	mov	ecx, DWORD PTR _this$[ebp]
	call	?_Getal@?$_List_alloc@U?$_List_base_types@UWeaponRecord@WeaponMarkers@@V?$allocator@UWeaponRecord@WeaponMarkers@@@std@@@std@@@std@@QAEAAV?$allocator@U?$_List_node@UWeaponRecord@WeaponMarkers@@PAX@std@@@2@XZ ; std::_List_alloc<std::_List_base_types<WeaponMarkers::WeaponRecord,std::allocator<WeaponMarkers::WeaponRecord> > >::_Getal
	push	eax
	call	??$_Freenode0@V?$allocator@U?$_List_node@UWeaponRecord@WeaponMarkers@@PAX@std@@@std@@@?$_List_node@UWeaponRecord@WeaponMarkers@@PAX@std@@SAXAAV?$allocator@U?$_List_node@UWeaponRecord@WeaponMarkers@@PAX@std@@@1@PAU01@@Z ; std::_List_node<WeaponMarkers::WeaponRecord,void *>::_Freenode0<std::allocator<std::_List_node<WeaponMarkers::WeaponRecord,void *> > >
	add	esp, 8

; 606  : 		}

	add	esp, 4
	cmp	ebp, esp
	call	__RTC_CheckEsp
	mov	esp, ebp
	pop	ebp
	ret	4
?_Freeheadnode@?$_List_alloc@U?$_List_base_types@UWeaponRecord@WeaponMarkers@@V?$allocator@UWeaponRecord@WeaponMarkers@@@std@@@std@@@std@@QAEXPAU?$_List_node@UWeaponRecord@WeaponMarkers@@PAX@2@@Z ENDP ; std::_List_alloc<std::_List_base_types<WeaponMarkers::WeaponRecord,std::allocator<WeaponMarkers::WeaponRecord> > >::_Freeheadnode
_TEXT	ENDS
; Function compile flags: /Odtp /RTCsu
; File c:\program files (x86)\microsoft visual studio\2017\enterprise\vc\tools\msvc\14.15.26726\include\list
;	COMDAT ?_Buyheadnode@?$_List_alloc@U?$_List_base_types@UWeaponRecord@WeaponMarkers@@V?$allocator@UWeaponRecord@WeaponMarkers@@@std@@@std@@@std@@QAEPAU?$_List_node@UWeaponRecord@WeaponMarkers@@PAX@2@XZ
_TEXT	SEGMENT
_this$ = -4						; size = 4
?_Buyheadnode@?$_List_alloc@U?$_List_base_types@UWeaponRecord@WeaponMarkers@@V?$allocator@UWeaponRecord@WeaponMarkers@@@std@@@std@@@std@@QAEPAU?$_List_node@UWeaponRecord@WeaponMarkers@@PAX@2@XZ PROC ; std::_List_alloc<std::_List_base_types<WeaponMarkers::WeaponRecord,std::allocator<WeaponMarkers::WeaponRecord> > >::_Buyheadnode, COMDAT
; _this$ = ecx

; 599  : 		{	// get head node using current allocator

	push	ebp
	mov	ebp, esp
	push	ecx
	mov	DWORD PTR [ebp-4], -858993460		; ccccccccH
	mov	DWORD PTR _this$[ebp], ecx

; 600  : 		return (_Buynode0(_Nodeptr(), _Nodeptr()));

	push	0
	push	0
	mov	ecx, DWORD PTR _this$[ebp]
	call	?_Buynode0@?$_List_alloc@U?$_List_base_types@UWeaponRecord@WeaponMarkers@@V?$allocator@UWeaponRecord@WeaponMarkers@@@std@@@std@@@std@@QAEPAU?$_List_node@UWeaponRecord@WeaponMarkers@@PAX@2@PAU32@0@Z ; std::_List_alloc<std::_List_base_types<WeaponMarkers::WeaponRecord,std::allocator<WeaponMarkers::WeaponRecord> > >::_Buynode0

; 601  : 		}

	add	esp, 4
	cmp	ebp, esp
	call	__RTC_CheckEsp
	mov	esp, ebp
	pop	ebp
	ret	0
?_Buyheadnode@?$_List_alloc@U?$_List_base_types@UWeaponRecord@WeaponMarkers@@V?$allocator@UWeaponRecord@WeaponMarkers@@@std@@@std@@@std@@QAEPAU?$_List_node@UWeaponRecord@WeaponMarkers@@PAX@2@XZ ENDP ; std::_List_alloc<std::_List_base_types<WeaponMarkers::WeaponRecord,std::allocator<WeaponMarkers::WeaponRecord> > >::_Buyheadnode
_TEXT	ENDS
; Function compile flags: /Odtp /RTCsu
; File c:\program files (x86)\microsoft visual studio\2017\enterprise\vc\tools\msvc\14.15.26726\include\list
;	COMDAT ?_Myproxy@?$_List_alloc@U?$_List_base_types@UWeaponRecord@WeaponMarkers@@V?$allocator@UWeaponRecord@WeaponMarkers@@@std@@@std@@@std@@QAEAAPAU_Container_proxy@2@XZ
_TEXT	SEGMENT
_this$ = -4						; size = 4
?_Myproxy@?$_List_alloc@U?$_List_base_types@UWeaponRecord@WeaponMarkers@@V?$allocator@UWeaponRecord@WeaponMarkers@@@std@@@std@@@std@@QAEAAPAU_Container_proxy@2@XZ PROC ; std::_List_alloc<std::_List_base_types<WeaponMarkers::WeaponRecord,std::allocator<WeaponMarkers::WeaponRecord> > >::_Myproxy, COMDAT
; _this$ = ecx

; 548  : 		{	// return reference to _Myproxy

	push	ebp
	mov	ebp, esp
	push	ecx
	mov	DWORD PTR [ebp-4], -858993460		; ccccccccH
	mov	DWORD PTR _this$[ebp], ecx

; 549  : 		return (_Get_data()._Myproxy);

	mov	ecx, DWORD PTR _this$[ebp]
	call	?_Get_data@?$_List_alloc@U?$_List_base_types@UWeaponRecord@WeaponMarkers@@V?$allocator@UWeaponRecord@WeaponMarkers@@@std@@@std@@@std@@QAEAAV?$_List_val@U?$_List_simple_types@UWeaponRecord@WeaponMarkers@@@std@@@2@XZ ; std::_List_alloc<std::_List_base_types<WeaponMarkers::WeaponRecord,std::allocator<WeaponMarkers::WeaponRecord> > >::_Get_data

; 550  : 		}

	add	esp, 4
	cmp	ebp, esp
	call	__RTC_CheckEsp
	mov	esp, ebp
	pop	ebp
	ret	0
?_Myproxy@?$_List_alloc@U?$_List_base_types@UWeaponRecord@WeaponMarkers@@V?$allocator@UWeaponRecord@WeaponMarkers@@@std@@@std@@@std@@QAEAAPAU_Container_proxy@2@XZ ENDP ; std::_List_alloc<std::_List_base_types<WeaponMarkers::WeaponRecord,std::allocator<WeaponMarkers::WeaponRecord> > >::_Myproxy
_TEXT	ENDS
; Function compile flags: /Odtp /RTCsu
; File c:\program files (x86)\microsoft visual studio\2017\enterprise\vc\tools\msvc\14.15.26726\include\list
;	COMDAT ?_Getpfirst@?$_List_alloc@U?$_List_base_types@UWeaponRecord@WeaponMarkers@@V?$allocator@UWeaponRecord@WeaponMarkers@@@std@@@std@@@std@@QBEPAPAU_Iterator_base12@2@XZ
_TEXT	SEGMENT
_this$ = -4						; size = 4
?_Getpfirst@?$_List_alloc@U?$_List_base_types@UWeaponRecord@WeaponMarkers@@V?$allocator@UWeaponRecord@WeaponMarkers@@@std@@@std@@@std@@QBEPAPAU_Iterator_base12@2@XZ PROC ; std::_List_alloc<std::_List_base_types<WeaponMarkers::WeaponRecord,std::allocator<WeaponMarkers::WeaponRecord> > >::_Getpfirst, COMDAT
; _this$ = ecx

; 543  : 		{	// get address of iterator chain

	push	ebp
	mov	ebp, esp
	push	ecx
	mov	DWORD PTR [ebp-4], -858993460		; ccccccccH
	mov	DWORD PTR _this$[ebp], ecx

; 544  : 		return (_Get_data()._Getpfirst());

	mov	ecx, DWORD PTR _this$[ebp]
	call	?_Get_data@?$_List_alloc@U?$_List_base_types@UWeaponRecord@WeaponMarkers@@V?$allocator@UWeaponRecord@WeaponMarkers@@@std@@@std@@@std@@QBEABV?$_List_val@U?$_List_simple_types@UWeaponRecord@WeaponMarkers@@@std@@@2@XZ ; std::_List_alloc<std::_List_base_types<WeaponMarkers::WeaponRecord,std::allocator<WeaponMarkers::WeaponRecord> > >::_Get_data
	mov	ecx, eax
	call	?_Getpfirst@_Container_base12@std@@QBEPAPAU_Iterator_base12@2@XZ ; std::_Container_base12::_Getpfirst

; 545  : 		}

	add	esp, 4
	cmp	ebp, esp
	call	__RTC_CheckEsp
	mov	esp, ebp
	pop	ebp
	ret	0
?_Getpfirst@?$_List_alloc@U?$_List_base_types@UWeaponRecord@WeaponMarkers@@V?$allocator@UWeaponRecord@WeaponMarkers@@@std@@@std@@@std@@QBEPAPAU_Iterator_base12@2@XZ ENDP ; std::_List_alloc<std::_List_base_types<WeaponMarkers::WeaponRecord,std::allocator<WeaponMarkers::WeaponRecord> > >::_Getpfirst
_TEXT	ENDS
; Function compile flags: /Odtp /RTCsu
; File c:\program files (x86)\microsoft visual studio\2017\enterprise\vc\tools\msvc\14.15.26726\include\list
;	COMDAT ?_Free_proxy@?$_List_alloc@U?$_List_base_types@UWeaponRecord@WeaponMarkers@@V?$allocator@UWeaponRecord@WeaponMarkers@@@std@@@std@@@std@@QAEXXZ
_TEXT	SEGMENT
__Proxy_allocator$ = -9					; size = 1
_this$ = -4						; size = 4
?_Free_proxy@?$_List_alloc@U?$_List_base_types@UWeaponRecord@WeaponMarkers@@V?$allocator@UWeaponRecord@WeaponMarkers@@@std@@@std@@@std@@QAEXXZ PROC ; std::_List_alloc<std::_List_base_types<WeaponMarkers::WeaponRecord,std::allocator<WeaponMarkers::WeaponRecord> > >::_Free_proxy, COMDAT
; _this$ = ecx

; 534  : 		{	// destroy proxy

	push	ebp
	mov	ebp, esp
	sub	esp, 16					; 00000010H
	mov	eax, -858993460				; ccccccccH
	mov	DWORD PTR [ebp-16], eax
	mov	DWORD PTR [ebp-12], eax
	mov	DWORD PTR [ebp-8], eax
	mov	DWORD PTR [ebp-4], eax
	mov	DWORD PTR _this$[ebp], ecx

; 535  : 		_Alproxy _Proxy_allocator(_Getal());

	mov	ecx, DWORD PTR _this$[ebp]
	call	?_Getal@?$_List_alloc@U?$_List_base_types@UWeaponRecord@WeaponMarkers@@V?$allocator@UWeaponRecord@WeaponMarkers@@@std@@@std@@@std@@QAEAAV?$allocator@U?$_List_node@UWeaponRecord@WeaponMarkers@@PAX@std@@@2@XZ ; std::_List_alloc<std::_List_base_types<WeaponMarkers::WeaponRecord,std::allocator<WeaponMarkers::WeaponRecord> > >::_Getal
	push	eax
	lea	ecx, DWORD PTR __Proxy_allocator$[ebp]
	call	??$?0U?$_List_node@UWeaponRecord@WeaponMarkers@@PAX@std@@@?$allocator@U_Container_proxy@std@@@std@@QAE@ABV?$allocator@U?$_List_node@UWeaponRecord@WeaponMarkers@@PAX@std@@@1@@Z ; std::allocator<std::_Container_proxy>::allocator<std::_Container_proxy><std::_List_node<WeaponMarkers::WeaponRecord,void *> >

; 536  : 		_Orphan_all();

	mov	ecx, DWORD PTR _this$[ebp]
	call	?_Orphan_all@?$_List_alloc@U?$_List_base_types@UWeaponRecord@WeaponMarkers@@V?$allocator@UWeaponRecord@WeaponMarkers@@@std@@@std@@@std@@QAEXXZ ; std::_List_alloc<std::_List_base_types<WeaponMarkers::WeaponRecord,std::allocator<WeaponMarkers::WeaponRecord> > >::_Orphan_all

; 537  : 		_Alproxy_traits::destroy(_Proxy_allocator, _Myproxy());

	mov	ecx, DWORD PTR _this$[ebp]
	call	?_Myproxy@?$_List_alloc@U?$_List_base_types@UWeaponRecord@WeaponMarkers@@V?$allocator@UWeaponRecord@WeaponMarkers@@@std@@@std@@@std@@QAEAAPAU_Container_proxy@2@XZ ; std::_List_alloc<std::_List_base_types<WeaponMarkers::WeaponRecord,std::allocator<WeaponMarkers::WeaponRecord> > >::_Myproxy
	mov	eax, DWORD PTR [eax]
	push	eax
	lea	ecx, DWORD PTR __Proxy_allocator$[ebp]
	push	ecx
	call	??$destroy@U_Container_proxy@std@@@?$_Default_allocator_traits@V?$allocator@U_Container_proxy@std@@@std@@@std@@SAXAAV?$allocator@U_Container_proxy@std@@@1@QAU_Container_proxy@1@@Z ; std::_Default_allocator_traits<std::allocator<std::_Container_proxy> >::destroy<std::_Container_proxy>
	add	esp, 8

; 538  : 		_Deallocate_plain(_Proxy_allocator, _Myproxy());

	mov	ecx, DWORD PTR _this$[ebp]
	call	?_Myproxy@?$_List_alloc@U?$_List_base_types@UWeaponRecord@WeaponMarkers@@V?$allocator@UWeaponRecord@WeaponMarkers@@@std@@@std@@@std@@QAEAAPAU_Container_proxy@2@XZ ; std::_List_alloc<std::_List_base_types<WeaponMarkers::WeaponRecord,std::allocator<WeaponMarkers::WeaponRecord> > >::_Myproxy
	mov	edx, DWORD PTR [eax]
	push	edx
	lea	eax, DWORD PTR __Proxy_allocator$[ebp]
	push	eax
	call	??$_Deallocate_plain@V?$allocator@U_Container_proxy@std@@@std@@$0A@@std@@YAXAAV?$allocator@U_Container_proxy@std@@@0@QAU_Container_proxy@0@@Z ; std::_Deallocate_plain<std::allocator<std::_Container_proxy>,0>
	add	esp, 8

; 539  : 		_Myproxy() = nullptr;

	mov	ecx, DWORD PTR _this$[ebp]
	call	?_Myproxy@?$_List_alloc@U?$_List_base_types@UWeaponRecord@WeaponMarkers@@V?$allocator@UWeaponRecord@WeaponMarkers@@@std@@@std@@@std@@QAEAAPAU_Container_proxy@2@XZ ; std::_List_alloc<std::_List_base_types<WeaponMarkers::WeaponRecord,std::allocator<WeaponMarkers::WeaponRecord> > >::_Myproxy
	mov	DWORD PTR [eax], 0

; 540  : 		}

	push	edx
	mov	ecx, ebp
	push	eax
	lea	edx, DWORD PTR $LN5@Free_proxy
	call	@_RTC_CheckStackVars@8
	pop	eax
	pop	edx
	add	esp, 16					; 00000010H
	cmp	ebp, esp
	call	__RTC_CheckEsp
	mov	esp, ebp
	pop	ebp
	ret	0
	npad	2
$LN5@Free_proxy:
	DD	1
	DD	$LN4@Free_proxy
$LN4@Free_proxy:
	DD	-9					; fffffff7H
	DD	1
	DD	$LN3@Free_proxy
$LN3@Free_proxy:
	DB	95					; 0000005fH
	DB	80					; 00000050H
	DB	114					; 00000072H
	DB	111					; 0000006fH
	DB	120					; 00000078H
	DB	121					; 00000079H
	DB	95					; 0000005fH
	DB	97					; 00000061H
	DB	108					; 0000006cH
	DB	108					; 0000006cH
	DB	111					; 0000006fH
	DB	99					; 00000063H
	DB	97					; 00000061H
	DB	116					; 00000074H
	DB	111					; 0000006fH
	DB	114					; 00000072H
	DB	0
?_Free_proxy@?$_List_alloc@U?$_List_base_types@UWeaponRecord@WeaponMarkers@@V?$allocator@UWeaponRecord@WeaponMarkers@@@std@@@std@@@std@@QAEXXZ ENDP ; std::_List_alloc<std::_List_base_types<WeaponMarkers::WeaponRecord,std::allocator<WeaponMarkers::WeaponRecord> > >::_Free_proxy
_TEXT	ENDS
; Function compile flags: /Odtp /RTCsu
; File c:\program files (x86)\microsoft visual studio\2017\enterprise\vc\tools\msvc\14.15.26726\include\list
;	COMDAT ?_Alloc_proxy@?$_List_alloc@U?$_List_base_types@UWeaponRecord@WeaponMarkers@@V?$allocator@UWeaponRecord@WeaponMarkers@@@std@@@std@@@std@@QAEXXZ
_TEXT	SEGMENT
$T1 = -24						; size = 8
__Proxy_allocator$ = -9					; size = 1
_this$ = -4						; size = 4
?_Alloc_proxy@?$_List_alloc@U?$_List_base_types@UWeaponRecord@WeaponMarkers@@V?$allocator@UWeaponRecord@WeaponMarkers@@@std@@@std@@@std@@QAEXXZ PROC ; std::_List_alloc<std::_List_base_types<WeaponMarkers::WeaponRecord,std::allocator<WeaponMarkers::WeaponRecord> > >::_Alloc_proxy, COMDAT
; _this$ = ecx

; 526  : 		{	// construct proxy

	push	ebp
	mov	ebp, esp
	sub	esp, 24					; 00000018H
	push	esi
	mov	eax, -858993460				; ccccccccH
	mov	DWORD PTR [ebp-24], eax
	mov	DWORD PTR [ebp-20], eax
	mov	DWORD PTR [ebp-16], eax
	mov	DWORD PTR [ebp-12], eax
	mov	DWORD PTR [ebp-8], eax
	mov	DWORD PTR [ebp-4], eax
	mov	DWORD PTR _this$[ebp], ecx

; 527  : 		_Alproxy _Proxy_allocator(_Getal());

	mov	ecx, DWORD PTR _this$[ebp]
	call	?_Getal@?$_List_alloc@U?$_List_base_types@UWeaponRecord@WeaponMarkers@@V?$allocator@UWeaponRecord@WeaponMarkers@@@std@@@std@@@std@@QAEAAV?$allocator@U?$_List_node@UWeaponRecord@WeaponMarkers@@PAX@std@@@2@XZ ; std::_List_alloc<std::_List_base_types<WeaponMarkers::WeaponRecord,std::allocator<WeaponMarkers::WeaponRecord> > >::_Getal
	push	eax
	lea	ecx, DWORD PTR __Proxy_allocator$[ebp]
	call	??$?0U?$_List_node@UWeaponRecord@WeaponMarkers@@PAX@std@@@?$allocator@U_Container_proxy@std@@@std@@QAE@ABV?$allocator@U?$_List_node@UWeaponRecord@WeaponMarkers@@PAX@std@@@1@@Z ; std::allocator<std::_Container_proxy>::allocator<std::_Container_proxy><std::_List_node<WeaponMarkers::WeaponRecord,void *> >

; 528  : 		_Myproxy() = _Unfancy(_Proxy_allocator.allocate(1));

	push	1
	lea	ecx, DWORD PTR __Proxy_allocator$[ebp]
	call	?allocate@?$allocator@U_Container_proxy@std@@@std@@QAEPAU_Container_proxy@2@I@Z ; std::allocator<std::_Container_proxy>::allocate
	push	eax
	call	??$_Unfancy@U_Container_proxy@std@@@std@@YAPAU_Container_proxy@0@PAU10@@Z ; std::_Unfancy<std::_Container_proxy>
	add	esp, 4
	mov	esi, eax
	mov	ecx, DWORD PTR _this$[ebp]
	call	?_Myproxy@?$_List_alloc@U?$_List_base_types@UWeaponRecord@WeaponMarkers@@V?$allocator@UWeaponRecord@WeaponMarkers@@@std@@@std@@@std@@QAEAAPAU_Container_proxy@2@XZ ; std::_List_alloc<std::_List_base_types<WeaponMarkers::WeaponRecord,std::allocator<WeaponMarkers::WeaponRecord> > >::_Myproxy
	mov	DWORD PTR [eax], esi

; 529  : 		_Alproxy_traits::construct(_Proxy_allocator, _Myproxy(), _Container_proxy());

	lea	ecx, DWORD PTR $T1[ebp]
	call	??0_Container_proxy@std@@QAE@XZ		; std::_Container_proxy::_Container_proxy
	push	eax
	mov	ecx, DWORD PTR _this$[ebp]
	call	?_Myproxy@?$_List_alloc@U?$_List_base_types@UWeaponRecord@WeaponMarkers@@V?$allocator@UWeaponRecord@WeaponMarkers@@@std@@@std@@@std@@QAEAAPAU_Container_proxy@2@XZ ; std::_List_alloc<std::_List_base_types<WeaponMarkers::WeaponRecord,std::allocator<WeaponMarkers::WeaponRecord> > >::_Myproxy
	mov	eax, DWORD PTR [eax]
	push	eax
	lea	ecx, DWORD PTR __Proxy_allocator$[ebp]
	push	ecx
	call	??$construct@U_Container_proxy@std@@U12@@?$_Default_allocator_traits@V?$allocator@U_Container_proxy@std@@@std@@@std@@SAXAAV?$allocator@U_Container_proxy@std@@@1@QAU_Container_proxy@1@$$QAU31@@Z ; std::_Default_allocator_traits<std::allocator<std::_Container_proxy> >::construct<std::_Container_proxy,std::_Container_proxy>
	add	esp, 12					; 0000000cH

; 530  : 		_Myproxy()->_Mycont = _STD addressof(_Get_data());

	mov	ecx, DWORD PTR _this$[ebp]
	call	?_Get_data@?$_List_alloc@U?$_List_base_types@UWeaponRecord@WeaponMarkers@@V?$allocator@UWeaponRecord@WeaponMarkers@@@std@@@std@@@std@@QAEAAV?$_List_val@U?$_List_simple_types@UWeaponRecord@WeaponMarkers@@@std@@@2@XZ ; std::_List_alloc<std::_List_base_types<WeaponMarkers::WeaponRecord,std::allocator<WeaponMarkers::WeaponRecord> > >::_Get_data
	push	eax
	call	??$addressof@V?$_List_val@U?$_List_simple_types@UWeaponRecord@WeaponMarkers@@@std@@@std@@@std@@YAPAV?$_List_val@U?$_List_simple_types@UWeaponRecord@WeaponMarkers@@@std@@@0@AAV10@@Z ; std::addressof<std::_List_val<std::_List_simple_types<WeaponMarkers::WeaponRecord> > >
	add	esp, 4
	mov	esi, eax
	mov	ecx, DWORD PTR _this$[ebp]
	call	?_Myproxy@?$_List_alloc@U?$_List_base_types@UWeaponRecord@WeaponMarkers@@V?$allocator@UWeaponRecord@WeaponMarkers@@@std@@@std@@@std@@QAEAAPAU_Container_proxy@2@XZ ; std::_List_alloc<std::_List_base_types<WeaponMarkers::WeaponRecord,std::allocator<WeaponMarkers::WeaponRecord> > >::_Myproxy
	mov	edx, DWORD PTR [eax]
	mov	DWORD PTR [edx], esi

; 531  : 		}

	push	edx
	mov	ecx, ebp
	push	eax
	lea	edx, DWORD PTR $LN5@Alloc_prox
	call	@_RTC_CheckStackVars@8
	pop	eax
	pop	edx
	pop	esi
	add	esp, 24					; 00000018H
	cmp	ebp, esp
	call	__RTC_CheckEsp
	mov	esp, ebp
	pop	ebp
	ret	0
$LN5@Alloc_prox:
	DD	1
	DD	$LN4@Alloc_prox
$LN4@Alloc_prox:
	DD	-9					; fffffff7H
	DD	1
	DD	$LN3@Alloc_prox
$LN3@Alloc_prox:
	DB	95					; 0000005fH
	DB	80					; 00000050H
	DB	114					; 00000072H
	DB	111					; 0000006fH
	DB	120					; 00000078H
	DB	121					; 00000079H
	DB	95					; 0000005fH
	DB	97					; 00000061H
	DB	108					; 0000006cH
	DB	108					; 0000006cH
	DB	111					; 0000006fH
	DB	99					; 00000063H
	DB	97					; 00000061H
	DB	116					; 00000074H
	DB	111					; 0000006fH
	DB	114					; 00000072H
	DB	0
?_Alloc_proxy@?$_List_alloc@U?$_List_base_types@UWeaponRecord@WeaponMarkers@@V?$allocator@UWeaponRecord@WeaponMarkers@@@std@@@std@@@std@@QAEXXZ ENDP ; std::_List_alloc<std::_List_base_types<WeaponMarkers::WeaponRecord,std::allocator<WeaponMarkers::WeaponRecord> > >::_Alloc_proxy
_TEXT	ENDS
; Function compile flags: /Odtp /RTCsu
; File c:\program files (x86)\microsoft visual studio\2017\enterprise\vc\tools\msvc\14.15.26726\include\list
;	COMDAT ??1?$_List_alloc@U?$_List_base_types@UWeaponRecord@WeaponMarkers@@V?$allocator@UWeaponRecord@WeaponMarkers@@@std@@@std@@@std@@QAE@XZ
_TEXT	SEGMENT
_this$ = -16						; size = 4
__$EHRec$ = -12						; size = 12
??1?$_List_alloc@U?$_List_base_types@UWeaponRecord@WeaponMarkers@@V?$allocator@UWeaponRecord@WeaponMarkers@@@std@@@std@@@std@@QAE@XZ PROC ; std::_List_alloc<std::_List_base_types<WeaponMarkers::WeaponRecord,std::allocator<WeaponMarkers::WeaponRecord> > >::~_List_alloc<std::_List_base_types<WeaponMarkers::WeaponRecord,std::allocator<WeaponMarkers::WeaponRecord> > >, COMDAT
; _this$ = ecx

; 520  : 		{	// destroy proxy

	push	ebp
	mov	ebp, esp
	push	-1
	push	__ehhandler$??1?$_List_alloc@U?$_List_base_types@UWeaponRecord@WeaponMarkers@@V?$allocator@UWeaponRecord@WeaponMarkers@@@std@@@std@@@std@@QAE@XZ
	mov	eax, DWORD PTR fs:0
	push	eax
	push	ecx
	mov	DWORD PTR [ebp-16], -858993460		; ccccccccH
	mov	eax, DWORD PTR ___security_cookie
	xor	eax, ebp
	push	eax
	lea	eax, DWORD PTR __$EHRec$[ebp]
	mov	DWORD PTR fs:0, eax
	mov	DWORD PTR _this$[ebp], ecx

; 521  : 		_Freeheadnode(_Myhead());

	mov	ecx, DWORD PTR _this$[ebp]
	call	?_Myhead@?$_List_alloc@U?$_List_base_types@UWeaponRecord@WeaponMarkers@@V?$allocator@UWeaponRecord@WeaponMarkers@@@std@@@std@@@std@@QAEAAPAU?$_List_node@UWeaponRecord@WeaponMarkers@@PAX@2@XZ ; std::_List_alloc<std::_List_base_types<WeaponMarkers::WeaponRecord,std::allocator<WeaponMarkers::WeaponRecord> > >::_Myhead
	mov	eax, DWORD PTR [eax]
	push	eax
	mov	ecx, DWORD PTR _this$[ebp]
	call	?_Freeheadnode@?$_List_alloc@U?$_List_base_types@UWeaponRecord@WeaponMarkers@@V?$allocator@UWeaponRecord@WeaponMarkers@@@std@@@std@@@std@@QAEXPAU?$_List_node@UWeaponRecord@WeaponMarkers@@PAX@2@@Z ; std::_List_alloc<std::_List_base_types<WeaponMarkers::WeaponRecord,std::allocator<WeaponMarkers::WeaponRecord> > >::_Freeheadnode

; 522  : 		_Free_proxy();

	mov	ecx, DWORD PTR _this$[ebp]
	call	?_Free_proxy@?$_List_alloc@U?$_List_base_types@UWeaponRecord@WeaponMarkers@@V?$allocator@UWeaponRecord@WeaponMarkers@@@std@@@std@@@std@@QAEXXZ ; std::_List_alloc<std::_List_base_types<WeaponMarkers::WeaponRecord,std::allocator<WeaponMarkers::WeaponRecord> > >::_Free_proxy

; 523  : 		}

	mov	ecx, DWORD PTR __$EHRec$[ebp]
	mov	DWORD PTR fs:0, ecx
	pop	ecx
	add	esp, 16					; 00000010H
	cmp	ebp, esp
	call	__RTC_CheckEsp
	mov	esp, ebp
	pop	ebp
	ret	0
_TEXT	ENDS
;	COMDAT text$x
text$x	SEGMENT
__ehhandler$??1?$_List_alloc@U?$_List_base_types@UWeaponRecord@WeaponMarkers@@V?$allocator@UWeaponRecord@WeaponMarkers@@@std@@@std@@@std@@QAE@XZ:
	mov	edx, DWORD PTR [esp+8]
	lea	eax, DWORD PTR [edx+12]
	mov	ecx, DWORD PTR [edx-8]
	xor	ecx, eax
	call	@__security_check_cookie@4
	mov	eax, OFFSET __ehfuncinfo$??1?$_List_alloc@U?$_List_base_types@UWeaponRecord@WeaponMarkers@@V?$allocator@UWeaponRecord@WeaponMarkers@@@std@@@std@@@std@@QAE@XZ
	jmp	___CxxFrameHandler3
text$x	ENDS
??1?$_List_alloc@U?$_List_base_types@UWeaponRecord@WeaponMarkers@@V?$allocator@UWeaponRecord@WeaponMarkers@@@std@@@std@@@std@@QAE@XZ ENDP ; std::_List_alloc<std::_List_base_types<WeaponMarkers::WeaponRecord,std::allocator<WeaponMarkers::WeaponRecord> > >::~_List_alloc<std::_List_base_types<WeaponMarkers::WeaponRecord,std::allocator<WeaponMarkers::WeaponRecord> > >
; Function compile flags: /Odtp /RTCsu
; File c:\program files (x86)\microsoft visual studio\2017\enterprise\vc\tools\msvc\14.15.26726\include\list
;	COMDAT ??0?$_List_alloc@U?$_List_base_types@UWeaponRecord@WeaponMarkers@@V?$allocator@UWeaponRecord@WeaponMarkers@@@std@@@std@@@std@@QAE@XZ
_TEXT	SEGMENT
$T2 = -21						; size = 1
_this$ = -20						; size = 4
__$EHRec$ = -16						; size = 16
??0?$_List_alloc@U?$_List_base_types@UWeaponRecord@WeaponMarkers@@V?$allocator@UWeaponRecord@WeaponMarkers@@@std@@@std@@@std@@QAE@XZ PROC ; std::_List_alloc<std::_List_base_types<WeaponMarkers::WeaponRecord,std::allocator<WeaponMarkers::WeaponRecord> > >::_List_alloc<std::_List_base_types<WeaponMarkers::WeaponRecord,std::allocator<WeaponMarkers::WeaponRecord> > >, COMDAT
; _this$ = ecx

; 494  : 		{	// default construct head node

	push	ebp
	mov	ebp, esp
	push	-1
	push	__ehhandler$??0?$_List_alloc@U?$_List_base_types@UWeaponRecord@WeaponMarkers@@V?$allocator@UWeaponRecord@WeaponMarkers@@@std@@@std@@@std@@QAE@XZ
	mov	eax, DWORD PTR fs:0
	push	eax
	push	ecx
	sub	esp, 8
	push	ebx
	push	esi
	push	edi
	mov	DWORD PTR [ebp-24], -858993460		; ccccccccH
	mov	DWORD PTR [ebp-20], -858993460		; ccccccccH
	mov	eax, DWORD PTR ___security_cookie
	xor	eax, ebp
	push	eax
	lea	eax, DWORD PTR __$EHRec$[ebp+4]
	mov	DWORD PTR fs:0, eax
	mov	DWORD PTR __$EHRec$[ebp], esp
	mov	DWORD PTR _this$[ebp], ecx

; 493  : 		: _Mypair(_Zero_then_variadic_args_t())

	movzx	eax, BYTE PTR $T2[ebp]
	push	eax
	mov	ecx, DWORD PTR _this$[ebp]
	call	??$?0$$V@?$_Compressed_pair@V?$allocator@U?$_List_node@UWeaponRecord@WeaponMarkers@@PAX@std@@@std@@V?$_List_val@U?$_List_simple_types@UWeaponRecord@WeaponMarkers@@@std@@@2@$00@std@@QAE@U_Zero_then_variadic_args_t@1@@Z ; std::_Compressed_pair<std::allocator<std::_List_node<WeaponMarkers::WeaponRecord,void *> >,std::_List_val<std::_List_simple_types<WeaponMarkers::WeaponRecord> >,1>::_Compressed_pair<std::allocator<std::_List_node<WeaponMarkers::WeaponRecord,void *> >,std::_List_val<std::_List_simple_types<WeaponMarkers::WeaponRecord> >,1><>

; 495  : 		_Myhead() = _Buyheadnode();

	mov	ecx, DWORD PTR _this$[ebp]
	call	?_Buyheadnode@?$_List_alloc@U?$_List_base_types@UWeaponRecord@WeaponMarkers@@V?$allocator@UWeaponRecord@WeaponMarkers@@@std@@@std@@@std@@QAEPAU?$_List_node@UWeaponRecord@WeaponMarkers@@PAX@2@XZ ; std::_List_alloc<std::_List_base_types<WeaponMarkers::WeaponRecord,std::allocator<WeaponMarkers::WeaponRecord> > >::_Buyheadnode
	mov	esi, eax
	mov	ecx, DWORD PTR _this$[ebp]
	call	?_Myhead@?$_List_alloc@U?$_List_base_types@UWeaponRecord@WeaponMarkers@@V?$allocator@UWeaponRecord@WeaponMarkers@@@std@@@std@@@std@@QAEAAPAU?$_List_node@UWeaponRecord@WeaponMarkers@@PAX@2@XZ ; std::_List_alloc<std::_List_base_types<WeaponMarkers::WeaponRecord,std::allocator<WeaponMarkers::WeaponRecord> > >::_Myhead
	mov	DWORD PTR [eax], esi

; 496  : 		_TRY_BEGIN

	mov	DWORD PTR __$EHRec$[ebp+12], 0

; 497  : 		_Alloc_proxy();

	mov	ecx, DWORD PTR _this$[ebp]
	call	?_Alloc_proxy@?$_List_alloc@U?$_List_base_types@UWeaponRecord@WeaponMarkers@@V?$allocator@UWeaponRecord@WeaponMarkers@@@std@@@std@@@std@@QAEXXZ ; std::_List_alloc<std::_List_base_types<WeaponMarkers::WeaponRecord,std::allocator<WeaponMarkers::WeaponRecord> > >::_Alloc_proxy
	jmp	SHORT $LN4@List_alloc
__catch$??0?$_List_alloc@U?$_List_base_types@UWeaponRecord@WeaponMarkers@@V?$allocator@UWeaponRecord@WeaponMarkers@@@std@@@std@@@std@@QAE@XZ$0:

; 498  : 		_CATCH_ALL
; 499  : 		_Freeheadnode(_Myhead());

	mov	ecx, DWORD PTR _this$[ebp]
	call	?_Myhead@?$_List_alloc@U?$_List_base_types@UWeaponRecord@WeaponMarkers@@V?$allocator@UWeaponRecord@WeaponMarkers@@@std@@@std@@@std@@QAEAAPAU?$_List_node@UWeaponRecord@WeaponMarkers@@PAX@2@XZ ; std::_List_alloc<std::_List_base_types<WeaponMarkers::WeaponRecord,std::allocator<WeaponMarkers::WeaponRecord> > >::_Myhead
	mov	ecx, DWORD PTR [eax]
	push	ecx
	mov	ecx, DWORD PTR _this$[ebp]
	call	?_Freeheadnode@?$_List_alloc@U?$_List_base_types@UWeaponRecord@WeaponMarkers@@V?$allocator@UWeaponRecord@WeaponMarkers@@@std@@@std@@@std@@QAEXPAU?$_List_node@UWeaponRecord@WeaponMarkers@@PAX@2@@Z ; std::_List_alloc<std::_List_base_types<WeaponMarkers::WeaponRecord,std::allocator<WeaponMarkers::WeaponRecord> > >::_Freeheadnode

; 500  : 		_RERAISE;

	push	0
	push	0
	call	__CxxThrowException@8

; 501  : 		_CATCH_END

	mov	eax, $LN7@List_alloc
	ret	0
$LN4@List_alloc:
	mov	DWORD PTR __$EHRec$[ebp+12], -1
	jmp	SHORT $LN1@List_alloc
$LN7@List_alloc:
	mov	DWORD PTR __$EHRec$[ebp+12], -1
$LN1@List_alloc:

; 502  : 		}

	mov	eax, DWORD PTR _this$[ebp]
$LN3@List_alloc:
	mov	ecx, DWORD PTR __$EHRec$[ebp+4]
	mov	DWORD PTR fs:0, ecx
	pop	ecx
	pop	edi
	pop	esi
	pop	ebx
	add	esp, 24					; 00000018H
	cmp	ebp, esp
	call	__RTC_CheckEsp
	mov	esp, ebp
	pop	ebp
	ret	0
_TEXT	ENDS
;	COMDAT text$x
text$x	SEGMENT
__ehhandler$??0?$_List_alloc@U?$_List_base_types@UWeaponRecord@WeaponMarkers@@V?$allocator@UWeaponRecord@WeaponMarkers@@@std@@@std@@@std@@QAE@XZ:
	mov	edx, DWORD PTR [esp+8]
	lea	eax, DWORD PTR [edx+12]
	mov	ecx, DWORD PTR [edx-28]
	xor	ecx, eax
	call	@__security_check_cookie@4
	mov	eax, OFFSET __ehfuncinfo$??0?$_List_alloc@U?$_List_base_types@UWeaponRecord@WeaponMarkers@@V?$allocator@UWeaponRecord@WeaponMarkers@@@std@@@std@@@std@@QAE@XZ
	jmp	___CxxFrameHandler3
text$x	ENDS
??0?$_List_alloc@U?$_List_base_types@UWeaponRecord@WeaponMarkers@@V?$allocator@UWeaponRecord@WeaponMarkers@@@std@@@std@@@std@@QAE@XZ ENDP ; std::_List_alloc<std::_List_base_types<WeaponMarkers::WeaponRecord,std::allocator<WeaponMarkers::WeaponRecord> > >::_List_alloc<std::_List_base_types<WeaponMarkers::WeaponRecord,std::allocator<WeaponMarkers::WeaponRecord> > >
; Function compile flags: /Odtp /RTCsu
; File c:\program files (x86)\microsoft visual studio\2017\enterprise\vc\tools\msvc\14.15.26726\include\xmemory0
;	COMDAT ?max_size@?$_Default_allocator_traits@V?$allocator@U?$_List_node@UWeaponRecord@WeaponMarkers@@PAX@std@@@std@@@std@@SAIABV?$allocator@U?$_List_node@UWeaponRecord@WeaponMarkers@@PAX@std@@@2@@Z
_TEXT	SEGMENT
___formal$ = 8						; size = 4
?max_size@?$_Default_allocator_traits@V?$allocator@U?$_List_node@UWeaponRecord@WeaponMarkers@@PAX@std@@@std@@@std@@SAIABV?$allocator@U?$_List_node@UWeaponRecord@WeaponMarkers@@PAX@std@@@2@@Z PROC ; std::_Default_allocator_traits<std::allocator<std::_List_node<WeaponMarkers::WeaponRecord,void *> > >::max_size, COMDAT

; 891  : 		{	// get maximum size

	push	ebp
	mov	ebp, esp

; 892  : 		return (static_cast<size_t>(-1) / sizeof(value_type));

	mov	eax, 134217727				; 07ffffffH

; 893  : 		}

	pop	ebp
	ret	0
?max_size@?$_Default_allocator_traits@V?$allocator@U?$_List_node@UWeaponRecord@WeaponMarkers@@PAX@std@@@std@@@std@@SAIABV?$allocator@U?$_List_node@UWeaponRecord@WeaponMarkers@@PAX@std@@@2@@Z ENDP ; std::_Default_allocator_traits<std::allocator<std::_List_node<WeaponMarkers::WeaponRecord,void *> > >::max_size
_TEXT	ENDS
; Function compile flags: /Odtp /RTCsu
; File c:\program files (x86)\microsoft visual studio\2017\enterprise\vc\tools\msvc\14.15.26726\include\xmemory0
;	COMDAT ?deallocate@?$_Default_allocator_traits@V?$allocator@U?$_List_node@UWeaponRecord@WeaponMarkers@@PAX@std@@@std@@@std@@SAXAAV?$allocator@U?$_List_node@UWeaponRecord@WeaponMarkers@@PAX@std@@@2@QAU?$_List_node@UWeaponRecord@WeaponMarkers@@PAX@2@I@Z
_TEXT	SEGMENT
___formal$ = 8						; size = 4
__Ptr$ = 12						; size = 4
__Count$ = 16						; size = 4
?deallocate@?$_Default_allocator_traits@V?$allocator@U?$_List_node@UWeaponRecord@WeaponMarkers@@PAX@std@@@std@@@std@@SAXAAV?$allocator@U?$_List_node@UWeaponRecord@WeaponMarkers@@PAX@std@@@2@QAU?$_List_node@UWeaponRecord@WeaponMarkers@@PAX@2@I@Z PROC ; std::_Default_allocator_traits<std::allocator<std::_List_node<WeaponMarkers::WeaponRecord,void *> > >::deallocate, COMDAT

; 871  : 		{	// deallocate _Count elements at _Ptr

	push	ebp
	mov	ebp, esp

; 872  : 		// no overflow check on the following multiply; we assume _Allocate did that check
; 873  : 		_Deallocate<_New_alignof<value_type>>(_Ptr, sizeof(value_type) * _Count);

	mov	eax, DWORD PTR __Count$[ebp]
	shl	eax, 5
	push	eax
	mov	ecx, DWORD PTR __Ptr$[ebp]
	push	ecx
	call	??$_Deallocate@$07$0A@@std@@YAXPAXI@Z	; std::_Deallocate<8,0>
	add	esp, 8

; 874  : 		}

	cmp	ebp, esp
	call	__RTC_CheckEsp
	pop	ebp
	ret	0
?deallocate@?$_Default_allocator_traits@V?$allocator@U?$_List_node@UWeaponRecord@WeaponMarkers@@PAX@std@@@std@@@std@@SAXAAV?$allocator@U?$_List_node@UWeaponRecord@WeaponMarkers@@PAX@std@@@2@QAU?$_List_node@UWeaponRecord@WeaponMarkers@@PAX@2@I@Z ENDP ; std::_Default_allocator_traits<std::allocator<std::_List_node<WeaponMarkers::WeaponRecord,void *> > >::deallocate
_TEXT	ENDS
; Function compile flags: /Odtp /RTCsu
; File c:\program files (x86)\microsoft visual studio\2017\enterprise\vc\tools\msvc\14.15.26726\include\xmemory0
;	COMDAT ?allocate@?$allocator@U?$_List_node@UWeaponRecord@WeaponMarkers@@PAX@std@@@std@@QAEPAU?$_List_node@UWeaponRecord@WeaponMarkers@@PAX@2@I@Z
_TEXT	SEGMENT
_this$ = -4						; size = 4
__Count$ = 8						; size = 4
?allocate@?$allocator@U?$_List_node@UWeaponRecord@WeaponMarkers@@PAX@std@@@std@@QAEPAU?$_List_node@UWeaponRecord@WeaponMarkers@@PAX@2@I@Z PROC ; std::allocator<std::_List_node<WeaponMarkers::WeaponRecord,void *> >::allocate, COMDAT
; _this$ = ecx

; 996  : 		{	// allocate array of _Count elements

	push	ebp
	mov	ebp, esp
	push	ecx
	mov	DWORD PTR [ebp-4], -858993460		; ccccccccH
	mov	DWORD PTR _this$[ebp], ecx

; 997  : 		return (static_cast<_Ty *>(_Allocate<_New_alignof<_Ty>>(_Get_size_of_n<sizeof(_Ty)>(_Count))));

	mov	eax, DWORD PTR __Count$[ebp]
	push	eax
	call	??$_Get_size_of_n@$0CA@@std@@YAII@Z	; std::_Get_size_of_n<32>
	add	esp, 4
	push	eax
	call	??$_Allocate@$07U_Default_allocate_traits@std@@$0A@@std@@YAPAXI@Z ; std::_Allocate<8,std::_Default_allocate_traits,0>
	add	esp, 4

; 998  : 		}

	add	esp, 4
	cmp	ebp, esp
	call	__RTC_CheckEsp
	mov	esp, ebp
	pop	ebp
	ret	4
?allocate@?$allocator@U?$_List_node@UWeaponRecord@WeaponMarkers@@PAX@std@@@std@@QAEPAU?$_List_node@UWeaponRecord@WeaponMarkers@@PAX@2@I@Z ENDP ; std::allocator<std::_List_node<WeaponMarkers::WeaponRecord,void *> >::allocate
_TEXT	ENDS
; Function compile flags: /Odtp /RTCsu
; File c:\program files (x86)\microsoft visual studio\2017\enterprise\vc\tools\msvc\14.15.26726\include\xmemory0
;	COMDAT ?deallocate@?$allocator@U?$_List_node@UWeaponRecord@WeaponMarkers@@PAX@std@@@std@@QAEXQAU?$_List_node@UWeaponRecord@WeaponMarkers@@PAX@2@I@Z
_TEXT	SEGMENT
_this$ = -4						; size = 4
__Ptr$ = 8						; size = 4
__Count$ = 12						; size = 4
?deallocate@?$allocator@U?$_List_node@UWeaponRecord@WeaponMarkers@@PAX@std@@@std@@QAEXQAU?$_List_node@UWeaponRecord@WeaponMarkers@@PAX@2@I@Z PROC ; std::allocator<std::_List_node<WeaponMarkers::WeaponRecord,void *> >::deallocate, COMDAT
; _this$ = ecx

; 990  : 		{	// deallocate object at _Ptr

	push	ebp
	mov	ebp, esp
	push	ecx
	mov	DWORD PTR [ebp-4], -858993460		; ccccccccH
	mov	DWORD PTR _this$[ebp], ecx

; 991  : 		// no overflow check on the following multiply; we assume _Allocate did that check
; 992  : 		_Deallocate<_New_alignof<_Ty>>(_Ptr, sizeof(_Ty) * _Count);

	mov	eax, DWORD PTR __Count$[ebp]
	shl	eax, 5
	push	eax
	mov	ecx, DWORD PTR __Ptr$[ebp]
	push	ecx
	call	??$_Deallocate@$07$0A@@std@@YAXPAXI@Z	; std::_Deallocate<8,0>
	add	esp, 8

; 993  : 		}

	add	esp, 4
	cmp	ebp, esp
	call	__RTC_CheckEsp
	mov	esp, ebp
	pop	ebp
	ret	8
?deallocate@?$allocator@U?$_List_node@UWeaponRecord@WeaponMarkers@@PAX@std@@@std@@QAEXQAU?$_List_node@UWeaponRecord@WeaponMarkers@@PAX@2@I@Z ENDP ; std::allocator<std::_List_node<WeaponMarkers::WeaponRecord,void *> >::deallocate
_TEXT	ENDS
; Function compile flags: /Odtp /RTCsu
; File c:\program files (x86)\microsoft visual studio\2017\enterprise\vc\tools\msvc\14.15.26726\include\xmemory0
;	COMDAT ??0?$allocator@U?$_List_node@UWeaponRecord@WeaponMarkers@@PAX@std@@@std@@QAE@XZ
_TEXT	SEGMENT
_this$ = -4						; size = 4
??0?$allocator@U?$_List_node@UWeaponRecord@WeaponMarkers@@PAX@std@@@std@@QAE@XZ PROC ; std::allocator<std::_List_node<WeaponMarkers::WeaponRecord,void *> >::allocator<std::_List_node<WeaponMarkers::WeaponRecord,void *> >, COMDAT
; _this$ = ecx

; 979  : 	constexpr allocator() noexcept

	push	ebp
	mov	ebp, esp
	push	ecx
	mov	DWORD PTR [ebp-4], -858993460		; ccccccccH
	mov	DWORD PTR _this$[ebp], ecx

; 980  : 		{	// construct default allocator (do nothing)
; 981  : 		}

	mov	eax, DWORD PTR _this$[ebp]
	mov	esp, ebp
	pop	ebp
	ret	0
??0?$allocator@U?$_List_node@UWeaponRecord@WeaponMarkers@@PAX@std@@@std@@QAE@XZ ENDP ; std::allocator<std::_List_node<WeaponMarkers::WeaponRecord,void *> >::allocator<std::_List_node<WeaponMarkers::WeaponRecord,void *> >
_TEXT	ENDS
; Function compile flags: /Odtp /RTCsu
; File d:\utilisateurs\samuel\mes documents\cours\uqac\ia\ravenproject\sources\weaponmarkers.h
;	COMDAT ??0WeaponRecord@WeaponMarkers@@QAE@UVector2D@@H@Z
_TEXT	SEGMENT
_this$ = -4						; size = 4
_pos$ = 8						; size = 16
_newWeaponType$ = 24					; size = 4
??0WeaponRecord@WeaponMarkers@@QAE@UVector2D@@H@Z PROC	; WeaponMarkers::WeaponRecord::WeaponRecord, COMDAT
; _this$ = ecx

; 36   : 			weaponType(newWeaponType){}

	push	ebp
	mov	ebp, esp
	push	ecx
	mov	DWORD PTR [ebp-4], -858993460		; ccccccccH
	mov	DWORD PTR _this$[ebp], ecx

; 35   : 			Position(pos),

	mov	eax, DWORD PTR _this$[ebp]
	mov	ecx, DWORD PTR _pos$[ebp]
	mov	DWORD PTR [eax], ecx
	mov	edx, DWORD PTR _pos$[ebp+4]
	mov	DWORD PTR [eax+4], edx
	mov	ecx, DWORD PTR _pos$[ebp+8]
	mov	DWORD PTR [eax+8], ecx
	mov	edx, DWORD PTR _pos$[ebp+12]
	mov	DWORD PTR [eax+12], edx

; 36   : 			weaponType(newWeaponType){}

	mov	eax, DWORD PTR _this$[ebp]
	mov	ecx, DWORD PTR _newWeaponType$[ebp]
	mov	DWORD PTR [eax+16], ecx
	mov	eax, DWORD PTR _this$[ebp]
	mov	esp, ebp
	pop	ebp
	ret	20					; 00000014H
??0WeaponRecord@WeaponMarkers@@QAE@UVector2D@@H@Z ENDP	; WeaponMarkers::WeaponRecord::WeaponRecord
_TEXT	ENDS
; Function compile flags: /Odtp /RTCsu
; File d:\utilisateurs\samuel\mes documents\cours\uqac\ia\ravenproject\common\2d\transformations.h
;	COMDAT ?WorldTransform@@YA?AV?$vector@UVector2D@@V?$allocator@UVector2D@@@std@@@std@@AAV12@ABUVector2D@@111@Z
_TEXT	SEGMENT
$T2 = -120						; size = 4
_matTransform$ = -112					; size = 72
_TranVector2Ds$ = -32					; size = 16
__$EHRec$ = -12						; size = 12
___$ReturnUdt$ = 8					; size = 4
_points$ = 12						; size = 4
_pos$ = 16						; size = 4
_forward$ = 20						; size = 4
_side$ = 24						; size = 4
_scale$ = 28						; size = 4
?WorldTransform@@YA?AV?$vector@UVector2D@@V?$allocator@UVector2D@@@std@@@std@@AAV12@ABUVector2D@@111@Z PROC ; WorldTransform, COMDAT

; 29   : {

	push	ebp
	mov	ebp, esp
	push	-1
	push	__ehhandler$?WorldTransform@@YA?AV?$vector@UVector2D@@V?$allocator@UVector2D@@@std@@@std@@AAV12@ABUVector2D@@111@Z
	mov	eax, DWORD PTR fs:0
	push	eax
	sub	esp, 108				; 0000006cH
	push	edi
	lea	edi, DWORD PTR [ebp-120]
	mov	ecx, 27					; 0000001bH
	mov	eax, -858993460				; ccccccccH
	rep stosd
	mov	eax, DWORD PTR ___security_cookie
	xor	eax, ebp
	push	eax
	lea	eax, DWORD PTR __$EHRec$[ebp]
	mov	DWORD PTR fs:0, eax
	mov	DWORD PTR $T2[ebp], 0

; 30   : 	//copy the original vertices into the buffer about to be transformed
; 31   : 	std::vector<Vector2D> TranVector2Ds = points;

	mov	eax, DWORD PTR _points$[ebp]
	push	eax
	lea	ecx, DWORD PTR _TranVector2Ds$[ebp]
	call	??0?$vector@UVector2D@@V?$allocator@UVector2D@@@std@@@std@@QAE@ABV01@@Z ; std::vector<Vector2D,std::allocator<Vector2D> >::vector<Vector2D,std::allocator<Vector2D> >
	mov	DWORD PTR __$EHRec$[ebp+8], 0

; 32   : 
; 33   : 	//create a transformation matrix
; 34   : 	C2DMatrix matTransform;

	lea	ecx, DWORD PTR _matTransform$[ebp]
	call	??0C2DMatrix@@QAE@XZ			; C2DMatrix::C2DMatrix

; 35   : 
; 36   : 	//scale
; 37   : 	if ((scale.x != 1.0) || (scale.y != 1.0))

	mov	ecx, DWORD PTR _scale$[ebp]
	movsd	xmm0, QWORD PTR [ecx]
	ucomisd	xmm0, QWORD PTR __real@3ff0000000000000
	lahf
	test	ah, 68					; 00000044H
	jp	SHORT $LN3@WorldTrans
	mov	edx, DWORD PTR _scale$[ebp]
	movsd	xmm0, QWORD PTR [edx+8]
	ucomisd	xmm0, QWORD PTR __real@3ff0000000000000
	lahf
	test	ah, 68					; 00000044H
	jnp	SHORT $LN2@WorldTrans
$LN3@WorldTrans:

; 38   : 	{
; 39   : 		matTransform.Scale(scale.x, scale.y);

	mov	eax, DWORD PTR _scale$[ebp]
	sub	esp, 8
	movsd	xmm0, QWORD PTR [eax+8]
	movsd	QWORD PTR [esp], xmm0
	mov	ecx, DWORD PTR _scale$[ebp]
	sub	esp, 8
	movsd	xmm0, QWORD PTR [ecx]
	movsd	QWORD PTR [esp], xmm0
	lea	ecx, DWORD PTR _matTransform$[ebp]
	call	?Scale@C2DMatrix@@QAEXNN@Z		; C2DMatrix::Scale
$LN2@WorldTrans:

; 40   : 	}
; 41   : 
; 42   : 	//rotate
; 43   : 	matTransform.Rotate(forward, side);

	mov	edx, DWORD PTR _side$[ebp]
	push	edx
	mov	eax, DWORD PTR _forward$[ebp]
	push	eax
	lea	ecx, DWORD PTR _matTransform$[ebp]
	call	?Rotate@C2DMatrix@@QAEXABUVector2D@@0@Z	; C2DMatrix::Rotate

; 44   : 
; 45   : 	//and translate
; 46   : 	matTransform.Translate(pos.x, pos.y);

	mov	ecx, DWORD PTR _pos$[ebp]
	sub	esp, 8
	movsd	xmm0, QWORD PTR [ecx+8]
	movsd	QWORD PTR [esp], xmm0
	mov	edx, DWORD PTR _pos$[ebp]
	sub	esp, 8
	movsd	xmm0, QWORD PTR [edx]
	movsd	QWORD PTR [esp], xmm0
	lea	ecx, DWORD PTR _matTransform$[ebp]
	call	?Translate@C2DMatrix@@QAEXNN@Z		; C2DMatrix::Translate

; 47   : 
; 48   : 	//now transform the object's vertices
; 49   : 	matTransform.TransformVector2Ds(TranVector2Ds);

	lea	eax, DWORD PTR _TranVector2Ds$[ebp]
	push	eax
	lea	ecx, DWORD PTR _matTransform$[ebp]
	call	?TransformVector2Ds@C2DMatrix@@QAEXAAV?$vector@UVector2D@@V?$allocator@UVector2D@@@std@@@std@@@Z ; C2DMatrix::TransformVector2Ds

; 50   : 
; 51   : 	return TranVector2Ds;

	lea	ecx, DWORD PTR _TranVector2Ds$[ebp]
	push	ecx
	mov	ecx, DWORD PTR ___$ReturnUdt$[ebp]
	call	??0?$vector@UVector2D@@V?$allocator@UVector2D@@@std@@@std@@QAE@$$QAV01@@Z ; std::vector<Vector2D,std::allocator<Vector2D> >::vector<Vector2D,std::allocator<Vector2D> >
	mov	edx, DWORD PTR $T2[ebp]
	or	edx, 1
	mov	DWORD PTR $T2[ebp], edx
	mov	DWORD PTR __$EHRec$[ebp+8], -1
	lea	ecx, DWORD PTR _TranVector2Ds$[ebp]
	call	??1?$vector@UVector2D@@V?$allocator@UVector2D@@@std@@@std@@QAE@XZ ; std::vector<Vector2D,std::allocator<Vector2D> >::~vector<Vector2D,std::allocator<Vector2D> >
	mov	eax, DWORD PTR ___$ReturnUdt$[ebp]

; 52   : }

	push	edx
	mov	ecx, ebp
	push	eax
	lea	edx, DWORD PTR $LN12@WorldTrans
	call	@_RTC_CheckStackVars@8
	pop	eax
	pop	edx
	mov	ecx, DWORD PTR __$EHRec$[ebp]
	mov	DWORD PTR fs:0, ecx
	pop	ecx
	pop	edi
	add	esp, 120				; 00000078H
	cmp	ebp, esp
	call	__RTC_CheckEsp
	mov	esp, ebp
	pop	ebp
	ret	0
	npad	2
$LN12@WorldTrans:
	DD	2
	DD	$LN11@WorldTrans
$LN11@WorldTrans:
	DD	-32					; ffffffe0H
	DD	16					; 00000010H
	DD	$LN8@WorldTrans
	DD	-112					; ffffff90H
	DD	72					; 00000048H
	DD	$LN9@WorldTrans
$LN9@WorldTrans:
	DB	109					; 0000006dH
	DB	97					; 00000061H
	DB	116					; 00000074H
	DB	84					; 00000054H
	DB	114					; 00000072H
	DB	97					; 00000061H
	DB	110					; 0000006eH
	DB	115					; 00000073H
	DB	102					; 00000066H
	DB	111					; 0000006fH
	DB	114					; 00000072H
	DB	109					; 0000006dH
	DB	0
$LN8@WorldTrans:
	DB	84					; 00000054H
	DB	114					; 00000072H
	DB	97					; 00000061H
	DB	110					; 0000006eH
	DB	86					; 00000056H
	DB	101					; 00000065H
	DB	99					; 00000063H
	DB	116					; 00000074H
	DB	111					; 0000006fH
	DB	114					; 00000072H
	DB	50					; 00000032H
	DB	68					; 00000044H
	DB	115					; 00000073H
	DB	0
_TEXT	ENDS
;	COMDAT text$x
text$x	SEGMENT
__unwindfunclet$?WorldTransform@@YA?AV?$vector@UVector2D@@V?$allocator@UVector2D@@@std@@@std@@AAV12@ABUVector2D@@111@Z$0:
	lea	ecx, DWORD PTR _TranVector2Ds$[ebp]
	jmp	??1?$vector@UVector2D@@V?$allocator@UVector2D@@@std@@@std@@QAE@XZ ; std::vector<Vector2D,std::allocator<Vector2D> >::~vector<Vector2D,std::allocator<Vector2D> >
__ehhandler$?WorldTransform@@YA?AV?$vector@UVector2D@@V?$allocator@UVector2D@@@std@@@std@@AAV12@ABUVector2D@@111@Z:
	mov	edx, DWORD PTR [esp+8]
	lea	eax, DWORD PTR [edx+12]
	mov	ecx, DWORD PTR [edx-116]
	xor	ecx, eax
	call	@__security_check_cookie@4
	mov	eax, OFFSET __ehfuncinfo$?WorldTransform@@YA?AV?$vector@UVector2D@@V?$allocator@UVector2D@@@std@@@std@@AAV12@ABUVector2D@@111@Z
	jmp	___CxxFrameHandler3
text$x	ENDS
?WorldTransform@@YA?AV?$vector@UVector2D@@V?$allocator@UVector2D@@@std@@@std@@AAV12@ABUVector2D@@111@Z ENDP ; WorldTransform
; Function compile flags: /Odtp /RTCsu
; File c:\program files (x86)\microsoft visual studio\2017\enterprise\vc\tools\msvc\14.15.26726\include\vector
;	COMDAT ?_Orphan_range@?$vector@UVector2D@@V?$allocator@UVector2D@@@std@@@std@@ABEXPAUVector2D@@0@Z
_TEXT	SEGMENT
__Pnext$ = -32						; size = 4
__Lock$ = -24						; size = 4
_this$ = -16						; size = 4
__$EHRec$ = -12						; size = 12
__First$ = 8						; size = 4
__Last$ = 12						; size = 4
?_Orphan_range@?$vector@UVector2D@@V?$allocator@UVector2D@@@std@@@std@@ABEXPAUVector2D@@0@Z PROC ; std::vector<Vector2D,std::allocator<Vector2D> >::_Orphan_range, COMDAT
; _this$ = ecx

; 1936 : 		{	// orphan iterators within specified (inclusive) range

	push	ebp
	mov	ebp, esp
	push	-1
	push	__ehhandler$?_Orphan_range@?$vector@UVector2D@@V?$allocator@UVector2D@@@std@@@std@@ABEXPAUVector2D@@0@Z
	mov	eax, DWORD PTR fs:0
	push	eax
	sub	esp, 20					; 00000014H
	mov	eax, -858993460				; ccccccccH
	mov	DWORD PTR [ebp-32], eax
	mov	DWORD PTR [ebp-28], eax
	mov	DWORD PTR [ebp-24], eax
	mov	DWORD PTR [ebp-20], eax
	mov	DWORD PTR [ebp-16], eax
	mov	eax, DWORD PTR ___security_cookie
	xor	eax, ebp
	push	eax
	lea	eax, DWORD PTR __$EHRec$[ebp]
	mov	DWORD PTR fs:0, eax
	mov	DWORD PTR _this$[ebp], ecx

; 1937 : 		_Lockit _Lock(_LOCK_DEBUG);

	push	3
	lea	ecx, DWORD PTR __Lock$[ebp]
	call	??0_Lockit@std@@QAE@H@Z			; std::_Lockit::_Lockit
	mov	DWORD PTR __$EHRec$[ebp+8], 0

; 1938 : 
; 1939 : 		const_iterator ** _Pnext = reinterpret_cast<const_iterator **>(this->_Getpfirst());

	mov	ecx, DWORD PTR _this$[ebp]
	call	?_Getpfirst@?$_Vector_alloc@U?$_Vec_base_types@UVector2D@@V?$allocator@UVector2D@@@std@@@std@@@std@@QBEPAPAU_Iterator_base12@2@XZ ; std::_Vector_alloc<std::_Vec_base_types<Vector2D,std::allocator<Vector2D> > >::_Getpfirst
	mov	DWORD PTR __Pnext$[ebp], eax

; 1940 : 
; 1941 : 		if (_Pnext)

	cmp	DWORD PTR __Pnext$[ebp], 0
	je	SHORT $LN4@Orphan_ran
$LN2@Orphan_ran:

; 1942 : 			{
; 1943 : 			while (*_Pnext)

	mov	eax, DWORD PTR __Pnext$[ebp]
	cmp	DWORD PTR [eax], 0
	je	SHORT $LN4@Orphan_ran

; 1944 : 				{
; 1945 : 				if ((*_Pnext)->_Ptr < _First || _Last < (*_Pnext)->_Ptr)

	mov	ecx, DWORD PTR __Pnext$[ebp]
	mov	edx, DWORD PTR [ecx]
	mov	eax, DWORD PTR [edx+8]
	cmp	eax, DWORD PTR __First$[ebp]
	jb	SHORT $LN7@Orphan_ran
	mov	ecx, DWORD PTR __Pnext$[ebp]
	mov	edx, DWORD PTR [ecx]
	mov	eax, DWORD PTR __Last$[ebp]
	cmp	eax, DWORD PTR [edx+8]
	jae	SHORT $LN5@Orphan_ran
$LN7@Orphan_ran:

; 1946 : 					{	// skip the iterator
; 1947 : 					_Pnext = reinterpret_cast<const_iterator **>((*_Pnext)->_Getpnext());

	mov	ecx, DWORD PTR __Pnext$[ebp]
	mov	ecx, DWORD PTR [ecx]
	call	?_Getpnext@_Iterator_base12@std@@QAEPAPAU12@XZ ; std::_Iterator_base12::_Getpnext
	mov	DWORD PTR __Pnext$[ebp], eax

; 1948 : 					}
; 1949 : 				else

	jmp	SHORT $LN6@Orphan_ran
$LN5@Orphan_ran:

; 1950 : 					{	// orphan the iterator
; 1951 : 					(*_Pnext)->_Clrcont();

	mov	edx, DWORD PTR __Pnext$[ebp]
	mov	ecx, DWORD PTR [edx]
	call	?_Clrcont@_Iterator_base12@std@@QAEXXZ	; std::_Iterator_base12::_Clrcont

; 1952 : 					*_Pnext = *reinterpret_cast<const_iterator **>((*_Pnext)->_Getpnext());

	mov	eax, DWORD PTR __Pnext$[ebp]
	mov	ecx, DWORD PTR [eax]
	call	?_Getpnext@_Iterator_base12@std@@QAEPAPAU12@XZ ; std::_Iterator_base12::_Getpnext
	mov	ecx, DWORD PTR __Pnext$[ebp]
	mov	edx, DWORD PTR [eax]
	mov	DWORD PTR [ecx], edx
$LN6@Orphan_ran:

; 1953 : 					}
; 1954 : 				}

	jmp	SHORT $LN2@Orphan_ran
$LN4@Orphan_ran:

; 1955 : 			}
; 1956 : 		}

	mov	DWORD PTR __$EHRec$[ebp+8], -1
	lea	ecx, DWORD PTR __Lock$[ebp]
	call	??1_Lockit@std@@QAE@XZ			; std::_Lockit::~_Lockit
	push	edx
	mov	ecx, ebp
	push	eax
	lea	edx, DWORD PTR $LN13@Orphan_ran
	call	@_RTC_CheckStackVars@8
	pop	eax
	pop	edx
	mov	ecx, DWORD PTR __$EHRec$[ebp]
	mov	DWORD PTR fs:0, ecx
	pop	ecx
	add	esp, 32					; 00000020H
	cmp	ebp, esp
	call	__RTC_CheckEsp
	mov	esp, ebp
	pop	ebp
	ret	8
	npad	1
$LN13@Orphan_ran:
	DD	1
	DD	$LN12@Orphan_ran
$LN12@Orphan_ran:
	DD	-24					; ffffffe8H
	DD	4
	DD	$LN10@Orphan_ran
$LN10@Orphan_ran:
	DB	95					; 0000005fH
	DB	76					; 0000004cH
	DB	111					; 0000006fH
	DB	99					; 00000063H
	DB	107					; 0000006bH
	DB	0
_TEXT	ENDS
;	COMDAT text$x
text$x	SEGMENT
__unwindfunclet$?_Orphan_range@?$vector@UVector2D@@V?$allocator@UVector2D@@@std@@@std@@ABEXPAUVector2D@@0@Z$0:
	lea	ecx, DWORD PTR __Lock$[ebp]
	jmp	??1_Lockit@std@@QAE@XZ			; std::_Lockit::~_Lockit
__ehhandler$?_Orphan_range@?$vector@UVector2D@@V?$allocator@UVector2D@@@std@@@std@@ABEXPAUVector2D@@0@Z:
	mov	edx, DWORD PTR [esp+8]
	lea	eax, DWORD PTR [edx+12]
	mov	ecx, DWORD PTR [edx-24]
	xor	ecx, eax
	call	@__security_check_cookie@4
	mov	eax, OFFSET __ehfuncinfo$?_Orphan_range@?$vector@UVector2D@@V?$allocator@UVector2D@@@std@@@std@@ABEXPAUVector2D@@0@Z
	jmp	___CxxFrameHandler3
text$x	ENDS
?_Orphan_range@?$vector@UVector2D@@V?$allocator@UVector2D@@@std@@@std@@ABEXPAUVector2D@@0@Z ENDP ; std::vector<Vector2D,std::allocator<Vector2D> >::_Orphan_range
; Function compile flags: /Odtp /RTCsu
; File c:\program files (x86)\microsoft visual studio\2017\enterprise\vc\tools\msvc\14.15.26726\include\vector
;	COMDAT ?_Xlength@?$vector@UVector2D@@V?$allocator@UVector2D@@@std@@@std@@CAXXZ
_TEXT	SEGMENT
?_Xlength@?$vector@UVector2D@@V?$allocator@UVector2D@@@std@@@std@@CAXXZ PROC ; std::vector<Vector2D,std::allocator<Vector2D> >::_Xlength, COMDAT

; 1925 : 		{	// report a length_error

	push	ebp
	mov	ebp, esp

; 1926 : 		_Xlength_error("vector<T> too long");

	push	OFFSET ??_C@_0BD@OLBABOEK@vector?$DMT?$DO?5too?5long@
	call	?_Xlength_error@std@@YAXPBD@Z		; std::_Xlength_error
$LN2@Xlength:

; 1927 : 		}

	cmp	ebp, esp
	call	__RTC_CheckEsp
	pop	ebp
	ret	0
?_Xlength@?$vector@UVector2D@@V?$allocator@UVector2D@@@std@@@std@@CAXXZ ENDP ; std::vector<Vector2D,std::allocator<Vector2D> >::_Xlength
_TEXT	ENDS
; Function compile flags: /Odtp /RTCsu
; File c:\program files (x86)\microsoft visual studio\2017\enterprise\vc\tools\msvc\14.15.26726\include\vector
;	COMDAT ?_Tidy@?$vector@UVector2D@@V?$allocator@UVector2D@@@std@@@std@@AAEXXZ
_TEXT	SEGMENT
_this$ = -4						; size = 4
?_Tidy@?$vector@UVector2D@@V?$allocator@UVector2D@@@std@@@std@@AAEXXZ PROC ; std::vector<Vector2D,std::allocator<Vector2D> >::_Tidy, COMDAT
; _this$ = ecx

; 1910 : 		{	// free all storage

	push	ebp
	mov	ebp, esp
	push	ecx
	mov	DWORD PTR [ebp-4], -858993460		; ccccccccH
	mov	DWORD PTR _this$[ebp], ecx

; 1911 : 		this->_Orphan_all();

	mov	ecx, DWORD PTR _this$[ebp]
	call	?_Orphan_all@?$_Vector_alloc@U?$_Vec_base_types@UVector2D@@V?$allocator@UVector2D@@@std@@@std@@@std@@QAEXXZ ; std::_Vector_alloc<std::_Vec_base_types<Vector2D,std::allocator<Vector2D> > >::_Orphan_all

; 1912 : 
; 1913 : 		if (this->_Myfirst() != pointer())

	mov	ecx, DWORD PTR _this$[ebp]
	call	?_Myfirst@?$_Vector_alloc@U?$_Vec_base_types@UVector2D@@V?$allocator@UVector2D@@@std@@@std@@@std@@QAEAAPAUVector2D@@XZ ; std::_Vector_alloc<std::_Vec_base_types<Vector2D,std::allocator<Vector2D> > >::_Myfirst
	cmp	DWORD PTR [eax], 0
	je	SHORT $LN1@Tidy

; 1914 : 			{	// destroy and deallocate old array
; 1915 : 			_Destroy(this->_Myfirst(), this->_Mylast());

	mov	ecx, DWORD PTR _this$[ebp]
	call	?_Mylast@?$_Vector_alloc@U?$_Vec_base_types@UVector2D@@V?$allocator@UVector2D@@@std@@@std@@@std@@QAEAAPAUVector2D@@XZ ; std::_Vector_alloc<std::_Vec_base_types<Vector2D,std::allocator<Vector2D> > >::_Mylast
	mov	eax, DWORD PTR [eax]
	push	eax
	mov	ecx, DWORD PTR _this$[ebp]
	call	?_Myfirst@?$_Vector_alloc@U?$_Vec_base_types@UVector2D@@V?$allocator@UVector2D@@@std@@@std@@@std@@QAEAAPAUVector2D@@XZ ; std::_Vector_alloc<std::_Vec_base_types<Vector2D,std::allocator<Vector2D> > >::_Myfirst
	mov	ecx, DWORD PTR [eax]
	push	ecx
	mov	ecx, DWORD PTR _this$[ebp]
	call	?_Destroy@?$vector@UVector2D@@V?$allocator@UVector2D@@@std@@@std@@AAEXPAUVector2D@@0@Z ; std::vector<Vector2D,std::allocator<Vector2D> >::_Destroy

; 1916 : 			this->_Getal().deallocate(this->_Myfirst(), capacity());

	mov	ecx, DWORD PTR _this$[ebp]
	call	?capacity@?$vector@UVector2D@@V?$allocator@UVector2D@@@std@@@std@@QBEIXZ ; std::vector<Vector2D,std::allocator<Vector2D> >::capacity
	push	eax
	mov	ecx, DWORD PTR _this$[ebp]
	call	?_Myfirst@?$_Vector_alloc@U?$_Vec_base_types@UVector2D@@V?$allocator@UVector2D@@@std@@@std@@@std@@QAEAAPAUVector2D@@XZ ; std::_Vector_alloc<std::_Vec_base_types<Vector2D,std::allocator<Vector2D> > >::_Myfirst
	mov	edx, DWORD PTR [eax]
	push	edx
	mov	ecx, DWORD PTR _this$[ebp]
	call	?_Getal@?$_Vector_alloc@U?$_Vec_base_types@UVector2D@@V?$allocator@UVector2D@@@std@@@std@@@std@@QAEAAV?$allocator@UVector2D@@@2@XZ ; std::_Vector_alloc<std::_Vec_base_types<Vector2D,std::allocator<Vector2D> > >::_Getal
	mov	ecx, eax
	call	?deallocate@?$allocator@UVector2D@@@std@@QAEXQAUVector2D@@I@Z ; std::allocator<Vector2D>::deallocate

; 1917 : 
; 1918 : 			this->_Myfirst() = pointer();

	mov	ecx, DWORD PTR _this$[ebp]
	call	?_Myfirst@?$_Vector_alloc@U?$_Vec_base_types@UVector2D@@V?$allocator@UVector2D@@@std@@@std@@@std@@QAEAAPAUVector2D@@XZ ; std::_Vector_alloc<std::_Vec_base_types<Vector2D,std::allocator<Vector2D> > >::_Myfirst
	mov	DWORD PTR [eax], 0

; 1919 : 			this->_Mylast() = pointer();

	mov	ecx, DWORD PTR _this$[ebp]
	call	?_Mylast@?$_Vector_alloc@U?$_Vec_base_types@UVector2D@@V?$allocator@UVector2D@@@std@@@std@@@std@@QAEAAPAUVector2D@@XZ ; std::_Vector_alloc<std::_Vec_base_types<Vector2D,std::allocator<Vector2D> > >::_Mylast
	mov	DWORD PTR [eax], 0

; 1920 : 			this->_Myend() = pointer();

	mov	ecx, DWORD PTR _this$[ebp]
	call	?_Myend@?$_Vector_alloc@U?$_Vec_base_types@UVector2D@@V?$allocator@UVector2D@@@std@@@std@@@std@@QAEAAPAUVector2D@@XZ ; std::_Vector_alloc<std::_Vec_base_types<Vector2D,std::allocator<Vector2D> > >::_Myend
	mov	DWORD PTR [eax], 0
$LN1@Tidy:

; 1921 : 			}
; 1922 : 		}

	add	esp, 4
	cmp	ebp, esp
	call	__RTC_CheckEsp
	mov	esp, ebp
	pop	ebp
	ret	0
?_Tidy@?$vector@UVector2D@@V?$allocator@UVector2D@@@std@@@std@@AAEXXZ ENDP ; std::vector<Vector2D,std::allocator<Vector2D> >::_Tidy
_TEXT	ENDS
; Function compile flags: /Odtp /RTCsu
; File c:\program files (x86)\microsoft visual studio\2017\enterprise\vc\tools\msvc\14.15.26726\include\vector
;	COMDAT ?_Change_array@?$vector@UVector2D@@V?$allocator@UVector2D@@@std@@@std@@AAEXQAUVector2D@@II@Z
_TEXT	SEGMENT
_this$ = -4						; size = 4
__Newvec$ = 8						; size = 4
__Newsize$ = 12						; size = 4
__Newcapacity$ = 16					; size = 4
?_Change_array@?$vector@UVector2D@@V?$allocator@UVector2D@@@std@@@std@@AAEXQAUVector2D@@II@Z PROC ; std::vector<Vector2D,std::allocator<Vector2D> >::_Change_array, COMDAT
; _this$ = ecx

; 1895 : 		{	// orphan all iterators, discard old array, acquire new array

	push	ebp
	mov	ebp, esp
	push	ecx
	push	esi
	mov	DWORD PTR [ebp-4], -858993460		; ccccccccH
	mov	DWORD PTR _this$[ebp], ecx

; 1896 : 		this->_Orphan_all();

	mov	ecx, DWORD PTR _this$[ebp]
	call	?_Orphan_all@?$_Vector_alloc@U?$_Vec_base_types@UVector2D@@V?$allocator@UVector2D@@@std@@@std@@@std@@QAEXXZ ; std::_Vector_alloc<std::_Vec_base_types<Vector2D,std::allocator<Vector2D> > >::_Orphan_all

; 1897 : 
; 1898 : 		if (this->_Myfirst() != pointer())

	mov	ecx, DWORD PTR _this$[ebp]
	call	?_Myfirst@?$_Vector_alloc@U?$_Vec_base_types@UVector2D@@V?$allocator@UVector2D@@@std@@@std@@@std@@QAEAAPAUVector2D@@XZ ; std::_Vector_alloc<std::_Vec_base_types<Vector2D,std::allocator<Vector2D> > >::_Myfirst
	cmp	DWORD PTR [eax], 0
	je	SHORT $LN2@Change_arr

; 1899 : 			{	// destroy and deallocate old array
; 1900 : 			_Destroy(this->_Myfirst(), this->_Mylast());

	mov	ecx, DWORD PTR _this$[ebp]
	call	?_Mylast@?$_Vector_alloc@U?$_Vec_base_types@UVector2D@@V?$allocator@UVector2D@@@std@@@std@@@std@@QAEAAPAUVector2D@@XZ ; std::_Vector_alloc<std::_Vec_base_types<Vector2D,std::allocator<Vector2D> > >::_Mylast
	mov	eax, DWORD PTR [eax]
	push	eax
	mov	ecx, DWORD PTR _this$[ebp]
	call	?_Myfirst@?$_Vector_alloc@U?$_Vec_base_types@UVector2D@@V?$allocator@UVector2D@@@std@@@std@@@std@@QAEAAPAUVector2D@@XZ ; std::_Vector_alloc<std::_Vec_base_types<Vector2D,std::allocator<Vector2D> > >::_Myfirst
	mov	ecx, DWORD PTR [eax]
	push	ecx
	mov	ecx, DWORD PTR _this$[ebp]
	call	?_Destroy@?$vector@UVector2D@@V?$allocator@UVector2D@@@std@@@std@@AAEXPAUVector2D@@0@Z ; std::vector<Vector2D,std::allocator<Vector2D> >::_Destroy

; 1901 : 			this->_Getal().deallocate(this->_Myfirst(), capacity());

	mov	ecx, DWORD PTR _this$[ebp]
	call	?capacity@?$vector@UVector2D@@V?$allocator@UVector2D@@@std@@@std@@QBEIXZ ; std::vector<Vector2D,std::allocator<Vector2D> >::capacity
	push	eax
	mov	ecx, DWORD PTR _this$[ebp]
	call	?_Myfirst@?$_Vector_alloc@U?$_Vec_base_types@UVector2D@@V?$allocator@UVector2D@@@std@@@std@@@std@@QAEAAPAUVector2D@@XZ ; std::_Vector_alloc<std::_Vec_base_types<Vector2D,std::allocator<Vector2D> > >::_Myfirst
	mov	edx, DWORD PTR [eax]
	push	edx
	mov	ecx, DWORD PTR _this$[ebp]
	call	?_Getal@?$_Vector_alloc@U?$_Vec_base_types@UVector2D@@V?$allocator@UVector2D@@@std@@@std@@@std@@QAEAAV?$allocator@UVector2D@@@2@XZ ; std::_Vector_alloc<std::_Vec_base_types<Vector2D,std::allocator<Vector2D> > >::_Getal
	mov	ecx, eax
	call	?deallocate@?$allocator@UVector2D@@@std@@QAEXQAUVector2D@@I@Z ; std::allocator<Vector2D>::deallocate
$LN2@Change_arr:

; 1902 : 			}
; 1903 : 
; 1904 : 		this->_Myfirst() = _Newvec;

	mov	ecx, DWORD PTR _this$[ebp]
	call	?_Myfirst@?$_Vector_alloc@U?$_Vec_base_types@UVector2D@@V?$allocator@UVector2D@@@std@@@std@@@std@@QAEAAPAUVector2D@@XZ ; std::_Vector_alloc<std::_Vec_base_types<Vector2D,std::allocator<Vector2D> > >::_Myfirst
	mov	ecx, DWORD PTR __Newvec$[ebp]
	mov	DWORD PTR [eax], ecx

; 1905 : 		this->_Mylast() = _Newvec + _Newsize;

	mov	esi, DWORD PTR __Newsize$[ebp]
	shl	esi, 4
	add	esi, DWORD PTR __Newvec$[ebp]
	mov	ecx, DWORD PTR _this$[ebp]
	call	?_Mylast@?$_Vector_alloc@U?$_Vec_base_types@UVector2D@@V?$allocator@UVector2D@@@std@@@std@@@std@@QAEAAPAUVector2D@@XZ ; std::_Vector_alloc<std::_Vec_base_types<Vector2D,std::allocator<Vector2D> > >::_Mylast
	mov	DWORD PTR [eax], esi

; 1906 : 		this->_Myend() = _Newvec + _Newcapacity;

	mov	esi, DWORD PTR __Newcapacity$[ebp]
	shl	esi, 4
	add	esi, DWORD PTR __Newvec$[ebp]
	mov	ecx, DWORD PTR _this$[ebp]
	call	?_Myend@?$_Vector_alloc@U?$_Vec_base_types@UVector2D@@V?$allocator@UVector2D@@@std@@@std@@@std@@QAEAAPAUVector2D@@XZ ; std::_Vector_alloc<std::_Vec_base_types<Vector2D,std::allocator<Vector2D> > >::_Myend
	mov	DWORD PTR [eax], esi

; 1907 : 		}

	pop	esi
	add	esp, 4
	cmp	ebp, esp
	call	__RTC_CheckEsp
	mov	esp, ebp
	pop	ebp
	ret	12					; 0000000cH
?_Change_array@?$vector@UVector2D@@V?$allocator@UVector2D@@@std@@@std@@AAEXQAUVector2D@@II@Z ENDP ; std::vector<Vector2D,std::allocator<Vector2D> >::_Change_array
_TEXT	ENDS
; Function compile flags: /Odtp /RTCsu
; File c:\program files (x86)\microsoft visual studio\2017\enterprise\vc\tools\msvc\14.15.26726\include\vector
;	COMDAT ?_Buy@?$vector@UVector2D@@V?$allocator@UVector2D@@@std@@@std@@AAE_NI@Z
_TEXT	SEGMENT
_this$ = -4						; size = 4
__Newcapacity$ = 8					; size = 4
?_Buy@?$vector@UVector2D@@V?$allocator@UVector2D@@@std@@@std@@AAE_NI@Z PROC ; std::vector<Vector2D,std::allocator<Vector2D> >::_Buy, COMDAT
; _this$ = ecx

; 1872 : 		{	// allocate array with _Newcapacity elements

	push	ebp
	mov	ebp, esp
	push	ecx
	push	esi
	mov	DWORD PTR [ebp-4], -858993460		; ccccccccH
	mov	DWORD PTR _this$[ebp], ecx

; 1873 : 		this->_Myfirst() = pointer();

	mov	ecx, DWORD PTR _this$[ebp]
	call	?_Myfirst@?$_Vector_alloc@U?$_Vec_base_types@UVector2D@@V?$allocator@UVector2D@@@std@@@std@@@std@@QAEAAPAUVector2D@@XZ ; std::_Vector_alloc<std::_Vec_base_types<Vector2D,std::allocator<Vector2D> > >::_Myfirst
	mov	DWORD PTR [eax], 0

; 1874 : 		this->_Mylast() = pointer();

	mov	ecx, DWORD PTR _this$[ebp]
	call	?_Mylast@?$_Vector_alloc@U?$_Vec_base_types@UVector2D@@V?$allocator@UVector2D@@@std@@@std@@@std@@QAEAAPAUVector2D@@XZ ; std::_Vector_alloc<std::_Vec_base_types<Vector2D,std::allocator<Vector2D> > >::_Mylast
	mov	DWORD PTR [eax], 0

; 1875 : 		this->_Myend() = pointer();

	mov	ecx, DWORD PTR _this$[ebp]
	call	?_Myend@?$_Vector_alloc@U?$_Vec_base_types@UVector2D@@V?$allocator@UVector2D@@@std@@@std@@@std@@QAEAAPAUVector2D@@XZ ; std::_Vector_alloc<std::_Vec_base_types<Vector2D,std::allocator<Vector2D> > >::_Myend
	mov	DWORD PTR [eax], 0

; 1876 : 
; 1877 : 		if (_Newcapacity == 0)

	cmp	DWORD PTR __Newcapacity$[ebp], 0
	jne	SHORT $LN2@Buy

; 1878 : 			{
; 1879 : 			return (false);

	xor	al, al
	jmp	SHORT $LN4@Buy
$LN2@Buy:

; 1880 : 			}
; 1881 : 
; 1882 : 		if (_Newcapacity > max_size())

	mov	ecx, DWORD PTR _this$[ebp]
	call	?max_size@?$vector@UVector2D@@V?$allocator@UVector2D@@@std@@@std@@QBEIXZ ; std::vector<Vector2D,std::allocator<Vector2D> >::max_size
	cmp	DWORD PTR __Newcapacity$[ebp], eax
	jbe	SHORT $LN3@Buy

; 1883 : 			{
; 1884 : 			_Xlength();

	call	?_Xlength@?$vector@UVector2D@@V?$allocator@UVector2D@@@std@@@std@@CAXXZ ; std::vector<Vector2D,std::allocator<Vector2D> >::_Xlength
$LN3@Buy:

; 1885 : 			}
; 1886 : 
; 1887 : 		this->_Myfirst() = this->_Getal().allocate(_Newcapacity);

	mov	eax, DWORD PTR __Newcapacity$[ebp]
	push	eax
	mov	ecx, DWORD PTR _this$[ebp]
	call	?_Getal@?$_Vector_alloc@U?$_Vec_base_types@UVector2D@@V?$allocator@UVector2D@@@std@@@std@@@std@@QAEAAV?$allocator@UVector2D@@@2@XZ ; std::_Vector_alloc<std::_Vec_base_types<Vector2D,std::allocator<Vector2D> > >::_Getal
	mov	ecx, eax
	call	?allocate@?$allocator@UVector2D@@@std@@QAEPAUVector2D@@I@Z ; std::allocator<Vector2D>::allocate
	mov	esi, eax
	mov	ecx, DWORD PTR _this$[ebp]
	call	?_Myfirst@?$_Vector_alloc@U?$_Vec_base_types@UVector2D@@V?$allocator@UVector2D@@@std@@@std@@@std@@QAEAAPAUVector2D@@XZ ; std::_Vector_alloc<std::_Vec_base_types<Vector2D,std::allocator<Vector2D> > >::_Myfirst
	mov	DWORD PTR [eax], esi

; 1888 : 		this->_Mylast() = this->_Myfirst();

	mov	ecx, DWORD PTR _this$[ebp]
	call	?_Myfirst@?$_Vector_alloc@U?$_Vec_base_types@UVector2D@@V?$allocator@UVector2D@@@std@@@std@@@std@@QAEAAPAUVector2D@@XZ ; std::_Vector_alloc<std::_Vec_base_types<Vector2D,std::allocator<Vector2D> > >::_Myfirst
	mov	esi, eax
	mov	ecx, DWORD PTR _this$[ebp]
	call	?_Mylast@?$_Vector_alloc@U?$_Vec_base_types@UVector2D@@V?$allocator@UVector2D@@@std@@@std@@@std@@QAEAAPAUVector2D@@XZ ; std::_Vector_alloc<std::_Vec_base_types<Vector2D,std::allocator<Vector2D> > >::_Mylast
	mov	ecx, DWORD PTR [esi]
	mov	DWORD PTR [eax], ecx

; 1889 : 		this->_Myend() = this->_Myfirst() + _Newcapacity;

	mov	ecx, DWORD PTR _this$[ebp]
	call	?_Myfirst@?$_Vector_alloc@U?$_Vec_base_types@UVector2D@@V?$allocator@UVector2D@@@std@@@std@@@std@@QAEAAPAUVector2D@@XZ ; std::_Vector_alloc<std::_Vec_base_types<Vector2D,std::allocator<Vector2D> > >::_Myfirst
	mov	esi, DWORD PTR __Newcapacity$[ebp]
	shl	esi, 4
	add	esi, DWORD PTR [eax]
	mov	ecx, DWORD PTR _this$[ebp]
	call	?_Myend@?$_Vector_alloc@U?$_Vec_base_types@UVector2D@@V?$allocator@UVector2D@@@std@@@std@@@std@@QAEAAPAUVector2D@@XZ ; std::_Vector_alloc<std::_Vec_base_types<Vector2D,std::allocator<Vector2D> > >::_Myend
	mov	DWORD PTR [eax], esi

; 1890 : 
; 1891 : 		return (true);

	mov	al, 1
$LN4@Buy:

; 1892 : 		}

	pop	esi
	add	esp, 4
	cmp	ebp, esp
	call	__RTC_CheckEsp
	mov	esp, ebp
	pop	ebp
	ret	4
?_Buy@?$vector@UVector2D@@V?$allocator@UVector2D@@@std@@@std@@AAE_NI@Z ENDP ; std::vector<Vector2D,std::allocator<Vector2D> >::_Buy
_TEXT	ENDS
; Function compile flags: /Odtp /RTCsu
; File c:\program files (x86)\microsoft visual studio\2017\enterprise\vc\tools\msvc\14.15.26726\include\vector
;	COMDAT ?_Calculate_growth@?$vector@UVector2D@@V?$allocator@UVector2D@@@std@@@std@@ABEII@Z
_TEXT	SEGMENT
__Geometric$ = -12					; size = 4
__Oldcapacity$ = -8					; size = 4
_this$ = -4						; size = 4
__Newsize$ = 8						; size = 4
?_Calculate_growth@?$vector@UVector2D@@V?$allocator@UVector2D@@@std@@@std@@ABEII@Z PROC ; std::vector<Vector2D,std::allocator<Vector2D> >::_Calculate_growth, COMDAT
; _this$ = ecx

; 1853 : 		{	// given _Oldcapacity and _Newsize, calculate geometric growth

	push	ebp
	mov	ebp, esp
	sub	esp, 12					; 0000000cH
	mov	DWORD PTR [ebp-12], -858993460		; ccccccccH
	mov	DWORD PTR [ebp-8], -858993460		; ccccccccH
	mov	DWORD PTR [ebp-4], -858993460		; ccccccccH
	mov	DWORD PTR _this$[ebp], ecx

; 1854 : 		const size_type _Oldcapacity = capacity();

	mov	ecx, DWORD PTR _this$[ebp]
	call	?capacity@?$vector@UVector2D@@V?$allocator@UVector2D@@@std@@@std@@QBEIXZ ; std::vector<Vector2D,std::allocator<Vector2D> >::capacity
	mov	DWORD PTR __Oldcapacity$[ebp], eax

; 1855 : 
; 1856 : 		if (_Oldcapacity > max_size() - _Oldcapacity / 2)

	mov	ecx, DWORD PTR _this$[ebp]
	call	?max_size@?$vector@UVector2D@@V?$allocator@UVector2D@@@std@@@std@@QBEIXZ ; std::vector<Vector2D,std::allocator<Vector2D> >::max_size
	mov	ecx, DWORD PTR __Oldcapacity$[ebp]
	shr	ecx, 1
	sub	eax, ecx
	cmp	DWORD PTR __Oldcapacity$[ebp], eax
	jbe	SHORT $LN2@Calculate_

; 1857 : 			{
; 1858 : 			return (_Newsize);	// geometric growth would overflow

	mov	eax, DWORD PTR __Newsize$[ebp]
	jmp	SHORT $LN1@Calculate_
$LN2@Calculate_:

; 1859 : 			}
; 1860 : 
; 1861 : 		const size_type _Geometric = _Oldcapacity + _Oldcapacity / 2;

	mov	edx, DWORD PTR __Oldcapacity$[ebp]
	shr	edx, 1
	add	edx, DWORD PTR __Oldcapacity$[ebp]
	mov	DWORD PTR __Geometric$[ebp], edx

; 1862 : 
; 1863 : 		if (_Geometric < _Newsize)

	mov	eax, DWORD PTR __Geometric$[ebp]
	cmp	eax, DWORD PTR __Newsize$[ebp]
	jae	SHORT $LN3@Calculate_

; 1864 : 			{
; 1865 : 			return (_Newsize);	// geometric growth would be insufficient

	mov	eax, DWORD PTR __Newsize$[ebp]
	jmp	SHORT $LN1@Calculate_
$LN3@Calculate_:

; 1866 : 			}
; 1867 : 
; 1868 : 		return (_Geometric);	// geometric growth is sufficient

	mov	eax, DWORD PTR __Geometric$[ebp]
$LN1@Calculate_:

; 1869 : 		}

	add	esp, 12					; 0000000cH
	cmp	ebp, esp
	call	__RTC_CheckEsp
	mov	esp, ebp
	pop	ebp
	ret	4
?_Calculate_growth@?$vector@UVector2D@@V?$allocator@UVector2D@@@std@@@std@@ABEII@Z ENDP ; std::vector<Vector2D,std::allocator<Vector2D> >::_Calculate_growth
_TEXT	ENDS
; Function compile flags: /Odtp /RTCsu
; File c:\program files (x86)\microsoft visual studio\2017\enterprise\vc\tools\msvc\14.15.26726\include\vector
;	COMDAT ?_Destroy@?$vector@UVector2D@@V?$allocator@UVector2D@@@std@@@std@@AAEXPAUVector2D@@0@Z
_TEXT	SEGMENT
_this$ = -4						; size = 4
__First$ = 8						; size = 4
__Last$ = 12						; size = 4
?_Destroy@?$vector@UVector2D@@V?$allocator@UVector2D@@@std@@@std@@AAEXPAUVector2D@@0@Z PROC ; std::vector<Vector2D,std::allocator<Vector2D> >::_Destroy, COMDAT
; _this$ = ecx

; 1848 : 		{	// destroy [_First, _Last) using allocator

	push	ebp
	mov	ebp, esp
	push	ecx
	mov	DWORD PTR [ebp-4], -858993460		; ccccccccH
	mov	DWORD PTR _this$[ebp], ecx

; 1849 : 		_Destroy_range(_First, _Last, this->_Getal());

	mov	ecx, DWORD PTR _this$[ebp]
	call	?_Getal@?$_Vector_alloc@U?$_Vec_base_types@UVector2D@@V?$allocator@UVector2D@@@std@@@std@@@std@@QAEAAV?$allocator@UVector2D@@@2@XZ ; std::_Vector_alloc<std::_Vec_base_types<Vector2D,std::allocator<Vector2D> > >::_Getal
	push	eax
	mov	eax, DWORD PTR __Last$[ebp]
	push	eax
	mov	ecx, DWORD PTR __First$[ebp]
	push	ecx
	call	??$_Destroy_range@V?$allocator@UVector2D@@@std@@@std@@YAXPAUVector2D@@0AAV?$allocator@UVector2D@@@0@@Z ; std::_Destroy_range<std::allocator<Vector2D> >
	add	esp, 12					; 0000000cH

; 1850 : 		}

	add	esp, 4
	cmp	ebp, esp
	call	__RTC_CheckEsp
	mov	esp, ebp
	pop	ebp
	ret	8
?_Destroy@?$vector@UVector2D@@V?$allocator@UVector2D@@@std@@@std@@AAEXPAUVector2D@@0@Z ENDP ; std::vector<Vector2D,std::allocator<Vector2D> >::_Destroy
_TEXT	ENDS
; Function compile flags: /Odtp /RTCsu
; File c:\program files (x86)\microsoft visual studio\2017\enterprise\vc\tools\msvc\14.15.26726\include\vector
;	COMDAT ?_Umove_if_noexcept@?$vector@UVector2D@@V?$allocator@UVector2D@@@std@@@std@@AAEXPAUVector2D@@00@Z
_TEXT	SEGMENT
$T1 = -5						; size = 1
_this$ = -4						; size = 4
__First$ = 8						; size = 4
__Last$ = 12						; size = 4
__Dest$ = 16						; size = 4
?_Umove_if_noexcept@?$vector@UVector2D@@V?$allocator@UVector2D@@@std@@@std@@AAEXPAUVector2D@@00@Z PROC ; std::vector<Vector2D,std::allocator<Vector2D> >::_Umove_if_noexcept, COMDAT
; _this$ = ecx

; 1842 : 		{	// move_if_noexcept [_First, _Last) to raw _Dest, using allocator

	push	ebp
	mov	ebp, esp
	sub	esp, 8
	mov	DWORD PTR [ebp-8], -858993460		; ccccccccH
	mov	DWORD PTR [ebp-4], -858993460		; ccccccccH
	mov	DWORD PTR _this$[ebp], ecx

; 1843 : 		_Umove_if_noexcept1(_First, _Last, _Dest,

	xor	eax, eax
	mov	BYTE PTR $T1[ebp], al
	movzx	ecx, BYTE PTR $T1[ebp]
	push	ecx
	mov	edx, DWORD PTR __Dest$[ebp]
	push	edx
	mov	eax, DWORD PTR __Last$[ebp]
	push	eax
	mov	ecx, DWORD PTR __First$[ebp]
	push	ecx
	mov	ecx, DWORD PTR _this$[ebp]
	call	?_Umove_if_noexcept1@?$vector@UVector2D@@V?$allocator@UVector2D@@@std@@@std@@AAEXPAUVector2D@@00U?$integral_constant@_N$00@2@@Z ; std::vector<Vector2D,std::allocator<Vector2D> >::_Umove_if_noexcept1

; 1844 : 			bool_constant<disjunction_v<is_nothrow_move_constructible<_Ty>, negation<is_copy_constructible<_Ty>>>>{});
; 1845 : 		}

	add	esp, 8
	cmp	ebp, esp
	call	__RTC_CheckEsp
	mov	esp, ebp
	pop	ebp
	ret	12					; 0000000cH
?_Umove_if_noexcept@?$vector@UVector2D@@V?$allocator@UVector2D@@@std@@@std@@AAEXPAUVector2D@@00@Z ENDP ; std::vector<Vector2D,std::allocator<Vector2D> >::_Umove_if_noexcept
_TEXT	ENDS
; Function compile flags: /Odtp /RTCsu
; File c:\program files (x86)\microsoft visual studio\2017\enterprise\vc\tools\msvc\14.15.26726\include\vector
;	COMDAT ?_Umove_if_noexcept1@?$vector@UVector2D@@V?$allocator@UVector2D@@@std@@@std@@AAEXPAUVector2D@@00U?$integral_constant@_N$00@2@@Z
_TEXT	SEGMENT
_this$ = -4						; size = 4
__First$ = 8						; size = 4
__Last$ = 12						; size = 4
__Dest$ = 16						; size = 4
___formal$ = 20						; size = 1
?_Umove_if_noexcept1@?$vector@UVector2D@@V?$allocator@UVector2D@@@std@@@std@@AAEXPAUVector2D@@00U?$integral_constant@_N$00@2@@Z PROC ; std::vector<Vector2D,std::allocator<Vector2D> >::_Umove_if_noexcept1, COMDAT
; _this$ = ecx

; 1832 : 		{	// move [_First, _Last) to raw _Dest, using allocator

	push	ebp
	mov	ebp, esp
	push	ecx
	mov	DWORD PTR [ebp-4], -858993460		; ccccccccH
	mov	DWORD PTR _this$[ebp], ecx

; 1833 : 		_Uninitialized_move(_First, _Last, _Dest, this->_Getal());

	mov	ecx, DWORD PTR _this$[ebp]
	call	?_Getal@?$_Vector_alloc@U?$_Vec_base_types@UVector2D@@V?$allocator@UVector2D@@@std@@@std@@@std@@QAEAAV?$allocator@UVector2D@@@2@XZ ; std::_Vector_alloc<std::_Vec_base_types<Vector2D,std::allocator<Vector2D> > >::_Getal
	push	eax
	mov	eax, DWORD PTR __Dest$[ebp]
	push	eax
	mov	ecx, DWORD PTR __Last$[ebp]
	push	ecx
	mov	edx, DWORD PTR __First$[ebp]
	push	edx
	call	??$_Uninitialized_move@PAUVector2D@@PAU1@V?$allocator@UVector2D@@@std@@@std@@YAPAUVector2D@@QAU1@0PAU1@AAV?$allocator@UVector2D@@@0@@Z ; std::_Uninitialized_move<Vector2D *,Vector2D *,std::allocator<Vector2D> >
	add	esp, 16					; 00000010H

; 1834 : 		}

	add	esp, 4
	cmp	ebp, esp
	call	__RTC_CheckEsp
	mov	esp, ebp
	pop	ebp
	ret	16					; 00000010H
?_Umove_if_noexcept1@?$vector@UVector2D@@V?$allocator@UVector2D@@@std@@@std@@AAEXPAUVector2D@@00U?$integral_constant@_N$00@2@@Z ENDP ; std::vector<Vector2D,std::allocator<Vector2D> >::_Umove_if_noexcept1
_TEXT	ENDS
; Function compile flags: /Odtp /RTCsu
; File c:\program files (x86)\microsoft visual studio\2017\enterprise\vc\tools\msvc\14.15.26726\include\vector
;	COMDAT ?_Umove@?$vector@UVector2D@@V?$allocator@UVector2D@@@std@@@std@@AAEPAUVector2D@@PAU3@00@Z
_TEXT	SEGMENT
_this$ = -4						; size = 4
__First$ = 8						; size = 4
__Last$ = 12						; size = 4
__Dest$ = 16						; size = 4
?_Umove@?$vector@UVector2D@@V?$allocator@UVector2D@@@std@@@std@@AAEPAUVector2D@@PAU3@00@Z PROC ; std::vector<Vector2D,std::allocator<Vector2D> >::_Umove, COMDAT
; _this$ = ecx

; 1827 : 		{	// move [_First, _Last) to raw _Dest, using allocator

	push	ebp
	mov	ebp, esp
	push	ecx
	mov	DWORD PTR [ebp-4], -858993460		; ccccccccH
	mov	DWORD PTR _this$[ebp], ecx

; 1828 : 		return (_Uninitialized_move(_First, _Last, _Dest, this->_Getal()));

	mov	ecx, DWORD PTR _this$[ebp]
	call	?_Getal@?$_Vector_alloc@U?$_Vec_base_types@UVector2D@@V?$allocator@UVector2D@@@std@@@std@@@std@@QAEAAV?$allocator@UVector2D@@@2@XZ ; std::_Vector_alloc<std::_Vec_base_types<Vector2D,std::allocator<Vector2D> > >::_Getal
	push	eax
	mov	eax, DWORD PTR __Dest$[ebp]
	push	eax
	mov	ecx, DWORD PTR __Last$[ebp]
	push	ecx
	mov	edx, DWORD PTR __First$[ebp]
	push	edx
	call	??$_Uninitialized_move@PAUVector2D@@PAU1@V?$allocator@UVector2D@@@std@@@std@@YAPAUVector2D@@QAU1@0PAU1@AAV?$allocator@UVector2D@@@0@@Z ; std::_Uninitialized_move<Vector2D *,Vector2D *,std::allocator<Vector2D> >
	add	esp, 16					; 00000010H

; 1829 : 		}

	add	esp, 4
	cmp	ebp, esp
	call	__RTC_CheckEsp
	mov	esp, ebp
	pop	ebp
	ret	12					; 0000000cH
?_Umove@?$vector@UVector2D@@V?$allocator@UVector2D@@@std@@@std@@AAEPAUVector2D@@PAU3@00@Z ENDP ; std::vector<Vector2D,std::allocator<Vector2D> >::_Umove
_TEXT	ENDS
; Function compile flags: /Odtp /RTCsu
; File c:\program files (x86)\microsoft visual studio\2017\enterprise\vc\tools\msvc\14.15.26726\include\vector
;	COMDAT ??A?$vector@UVector2D@@V?$allocator@UVector2D@@@std@@@std@@QBEABUVector2D@@I@Z
_TEXT	SEGMENT
_this$ = -4						; size = 4
__Pos$ = 8						; size = 4
??A?$vector@UVector2D@@V?$allocator@UVector2D@@@std@@@std@@QBEABUVector2D@@I@Z PROC ; std::vector<Vector2D,std::allocator<Vector2D> >::operator[], COMDAT
; _this$ = ecx

; 1740 : 		{	// subscript nonmutable sequence

	push	ebp
	mov	ebp, esp
	push	ecx
	mov	DWORD PTR [ebp-4], -858993460		; ccccccccH
	mov	DWORD PTR _this$[ebp], ecx
$LN4@operator:

; 1741 :  #if _ITERATOR_DEBUG_LEVEL != 0
; 1742 : 		_STL_VERIFY(_Pos < size(), "vector subscript out of range");

	mov	ecx, DWORD PTR _this$[ebp]
	call	?size@?$vector@UVector2D@@V?$allocator@UVector2D@@@std@@@std@@QBEIXZ ; std::vector<Vector2D,std::allocator<Vector2D> >::size
	cmp	DWORD PTR __Pos$[ebp], eax
	jae	SHORT $LN7@operator
	jmp	SHORT $LN2@operator
$LN7@operator:
	push	OFFSET ??_C@_0BO@PFKOHNJC@vector?5subscript?5out?5of?5range@
	push	OFFSET ??_C@_02DKCKIIND@?$CFs@
	push	0
	push	1742					; 000006ceH
	push	OFFSET ??_C@_0GI@LCGNDFBO@c?3?2program?5files?5?$CIx86?$CJ?2microsof@
	push	2
	call	__CrtDbgReport
	add	esp, 24					; 00000018H
	cmp	eax, 1
	jne	SHORT $LN11@operator
	int	3
$LN11@operator:
	push	0
	push	1742					; 000006ceH
	push	OFFSET ??_C@_1NA@LINFDFEH@?$AAc?$AA?3?$AA?2?$AAp?$AAr?$AAo?$AAg?$AAr?$AAa?$AAm?$AA?5?$AAf?$AAi?$AAl?$AAe@
	push	OFFSET ??_C@_1KC@ILGGEGM@?$AAs?$AAt?$AAd?$AA?3?$AA?3?$AAv?$AAe?$AAc?$AAt?$AAo?$AAr?$AA?$DM?$AAs?$AAt?$AAr@
	push	OFFSET ??_C@_1EA@LEKOKFNB@?$AA?$CC?$AAv?$AAe?$AAc?$AAt?$AAo?$AAr?$AA?5?$AAs?$AAu?$AAb?$AAs?$AAc?$AAr?$AAi@
	call	__invalid_parameter
	add	esp, 20					; 00000014H
	xor	ecx, ecx
	jne	SHORT $LN7@operator
$LN2@operator:
	xor	edx, edx
	jne	SHORT $LN4@operator

; 1743 :  #endif /* _ITERATOR_DEBUG_LEVEL != 0 */
; 1744 : 
; 1745 : 		return (this->_Myfirst()[_Pos]);

	mov	ecx, DWORD PTR _this$[ebp]
	call	?_Myfirst@?$_Vector_alloc@U?$_Vec_base_types@UVector2D@@V?$allocator@UVector2D@@@std@@@std@@@std@@QBEABQAUVector2D@@XZ ; std::_Vector_alloc<std::_Vec_base_types<Vector2D,std::allocator<Vector2D> > >::_Myfirst
	mov	ecx, DWORD PTR __Pos$[ebp]
	shl	ecx, 4
	add	ecx, DWORD PTR [eax]
	mov	eax, ecx

; 1746 : 		}

	add	esp, 4
	cmp	ebp, esp
	call	__RTC_CheckEsp
	mov	esp, ebp
	pop	ebp
	ret	4
??A?$vector@UVector2D@@V?$allocator@UVector2D@@@std@@@std@@QBEABUVector2D@@I@Z ENDP ; std::vector<Vector2D,std::allocator<Vector2D> >::operator[]
_TEXT	ENDS
; Function compile flags: /Odtp /RTCsu
; File c:\program files (x86)\microsoft visual studio\2017\enterprise\vc\tools\msvc\14.15.26726\include\vector
;	COMDAT ??A?$vector@UVector2D@@V?$allocator@UVector2D@@@std@@@std@@QAEAAUVector2D@@I@Z
_TEXT	SEGMENT
_this$ = -4						; size = 4
__Pos$ = 8						; size = 4
??A?$vector@UVector2D@@V?$allocator@UVector2D@@@std@@@std@@QAEAAUVector2D@@I@Z PROC ; std::vector<Vector2D,std::allocator<Vector2D> >::operator[], COMDAT
; _this$ = ecx

; 1731 : 		{	// subscript mutable sequence

	push	ebp
	mov	ebp, esp
	push	ecx
	mov	DWORD PTR [ebp-4], -858993460		; ccccccccH
	mov	DWORD PTR _this$[ebp], ecx
$LN4@operator:

; 1732 :  #if _ITERATOR_DEBUG_LEVEL != 0
; 1733 : 		_STL_VERIFY(_Pos < size(), "vector subscript out of range");

	mov	ecx, DWORD PTR _this$[ebp]
	call	?size@?$vector@UVector2D@@V?$allocator@UVector2D@@@std@@@std@@QBEIXZ ; std::vector<Vector2D,std::allocator<Vector2D> >::size
	cmp	DWORD PTR __Pos$[ebp], eax
	jae	SHORT $LN7@operator
	jmp	SHORT $LN2@operator
$LN7@operator:
	push	OFFSET ??_C@_0BO@PFKOHNJC@vector?5subscript?5out?5of?5range@
	push	OFFSET ??_C@_02DKCKIIND@?$CFs@
	push	0
	push	1733					; 000006c5H
	push	OFFSET ??_C@_0GI@LCGNDFBO@c?3?2program?5files?5?$CIx86?$CJ?2microsof@
	push	2
	call	__CrtDbgReport
	add	esp, 24					; 00000018H
	cmp	eax, 1
	jne	SHORT $LN11@operator
	int	3
$LN11@operator:
	push	0
	push	1733					; 000006c5H
	push	OFFSET ??_C@_1NA@LINFDFEH@?$AAc?$AA?3?$AA?2?$AAp?$AAr?$AAo?$AAg?$AAr?$AAa?$AAm?$AA?5?$AAf?$AAi?$AAl?$AAe@
	push	OFFSET ??_C@_1KC@ILGGEGM@?$AAs?$AAt?$AAd?$AA?3?$AA?3?$AAv?$AAe?$AAc?$AAt?$AAo?$AAr?$AA?$DM?$AAs?$AAt?$AAr@
	push	OFFSET ??_C@_1EA@LEKOKFNB@?$AA?$CC?$AAv?$AAe?$AAc?$AAt?$AAo?$AAr?$AA?5?$AAs?$AAu?$AAb?$AAs?$AAc?$AAr?$AAi@
	call	__invalid_parameter
	add	esp, 20					; 00000014H
	xor	ecx, ecx
	jne	SHORT $LN7@operator
$LN2@operator:
	xor	edx, edx
	jne	SHORT $LN4@operator

; 1734 :  #endif /* _ITERATOR_DEBUG_LEVEL != 0 */
; 1735 : 
; 1736 : 		return (this->_Myfirst()[_Pos]);

	mov	ecx, DWORD PTR _this$[ebp]
	call	?_Myfirst@?$_Vector_alloc@U?$_Vec_base_types@UVector2D@@V?$allocator@UVector2D@@@std@@@std@@@std@@QAEAAPAUVector2D@@XZ ; std::_Vector_alloc<std::_Vec_base_types<Vector2D,std::allocator<Vector2D> > >::_Myfirst
	mov	ecx, DWORD PTR __Pos$[ebp]
	shl	ecx, 4
	add	ecx, DWORD PTR [eax]
	mov	eax, ecx

; 1737 : 		}

	add	esp, 4
	cmp	ebp, esp
	call	__RTC_CheckEsp
	mov	esp, ebp
	pop	ebp
	ret	4
??A?$vector@UVector2D@@V?$allocator@UVector2D@@@std@@@std@@QAEAAUVector2D@@I@Z ENDP ; std::vector<Vector2D,std::allocator<Vector2D> >::operator[]
_TEXT	ENDS
; Function compile flags: /Odtp /RTCsu
; File c:\program files (x86)\microsoft visual studio\2017\enterprise\vc\tools\msvc\14.15.26726\include\vector
;	COMDAT ?_Has_unused_capacity@?$vector@UVector2D@@V?$allocator@UVector2D@@@std@@@std@@ABE_NXZ
_TEXT	SEGMENT
tv77 = -8						; size = 4
_this$ = -4						; size = 4
?_Has_unused_capacity@?$vector@UVector2D@@V?$allocator@UVector2D@@@std@@@std@@ABE_NXZ PROC ; std::vector<Vector2D,std::allocator<Vector2D> >::_Has_unused_capacity, COMDAT
; _this$ = ecx

; 1725 : 		{	// micro-optimization for capacity() != size()

	push	ebp
	mov	ebp, esp
	sub	esp, 8
	push	esi
	mov	DWORD PTR [ebp-8], -858993460		; ccccccccH
	mov	DWORD PTR [ebp-4], -858993460		; ccccccccH
	mov	DWORD PTR _this$[ebp], ecx

; 1726 : 		return (this->_Myend() != this->_Mylast());

	mov	ecx, DWORD PTR _this$[ebp]
	call	?_Myend@?$_Vector_alloc@U?$_Vec_base_types@UVector2D@@V?$allocator@UVector2D@@@std@@@std@@@std@@QBEABQAUVector2D@@XZ ; std::_Vector_alloc<std::_Vec_base_types<Vector2D,std::allocator<Vector2D> > >::_Myend
	mov	esi, eax
	mov	ecx, DWORD PTR _this$[ebp]
	call	?_Mylast@?$_Vector_alloc@U?$_Vec_base_types@UVector2D@@V?$allocator@UVector2D@@@std@@@std@@@std@@QBEABQAUVector2D@@XZ ; std::_Vector_alloc<std::_Vec_base_types<Vector2D,std::allocator<Vector2D> > >::_Mylast
	mov	ecx, DWORD PTR [esi]
	cmp	ecx, DWORD PTR [eax]
	je	SHORT $LN3@Has_unused
	mov	DWORD PTR tv77[ebp], 1
	jmp	SHORT $LN4@Has_unused
$LN3@Has_unused:
	mov	DWORD PTR tv77[ebp], 0
$LN4@Has_unused:
	mov	al, BYTE PTR tv77[ebp]

; 1727 : 		}

	pop	esi
	add	esp, 8
	cmp	ebp, esp
	call	__RTC_CheckEsp
	mov	esp, ebp
	pop	ebp
	ret	0
?_Has_unused_capacity@?$vector@UVector2D@@V?$allocator@UVector2D@@@std@@@std@@ABE_NXZ ENDP ; std::vector<Vector2D,std::allocator<Vector2D> >::_Has_unused_capacity
_TEXT	ENDS
; Function compile flags: /Odtp /RTCsu
; File c:\program files (x86)\microsoft visual studio\2017\enterprise\vc\tools\msvc\14.15.26726\include\vector
;	COMDAT ?capacity@?$vector@UVector2D@@V?$allocator@UVector2D@@@std@@@std@@QBEIXZ
_TEXT	SEGMENT
_this$ = -4						; size = 4
?capacity@?$vector@UVector2D@@V?$allocator@UVector2D@@@std@@@std@@QBEIXZ PROC ; std::vector<Vector2D,std::allocator<Vector2D> >::capacity, COMDAT
; _this$ = ecx

; 1714 : 		{	// return current length of allocated storage

	push	ebp
	mov	ebp, esp
	push	ecx
	push	esi
	mov	DWORD PTR [ebp-4], -858993460		; ccccccccH
	mov	DWORD PTR _this$[ebp], ecx

; 1715 : 		return (static_cast<size_type>(this->_Myend() - this->_Myfirst()));

	mov	ecx, DWORD PTR _this$[ebp]
	call	?_Myend@?$_Vector_alloc@U?$_Vec_base_types@UVector2D@@V?$allocator@UVector2D@@@std@@@std@@@std@@QBEABQAUVector2D@@XZ ; std::_Vector_alloc<std::_Vec_base_types<Vector2D,std::allocator<Vector2D> > >::_Myend
	mov	esi, eax
	mov	ecx, DWORD PTR _this$[ebp]
	call	?_Myfirst@?$_Vector_alloc@U?$_Vec_base_types@UVector2D@@V?$allocator@UVector2D@@@std@@@std@@@std@@QBEABQAUVector2D@@XZ ; std::_Vector_alloc<std::_Vec_base_types<Vector2D,std::allocator<Vector2D> > >::_Myfirst
	mov	ecx, DWORD PTR [esi]
	sub	ecx, DWORD PTR [eax]
	sar	ecx, 4
	mov	eax, ecx

; 1716 : 		}

	pop	esi
	add	esp, 4
	cmp	ebp, esp
	call	__RTC_CheckEsp
	mov	esp, ebp
	pop	ebp
	ret	0
?capacity@?$vector@UVector2D@@V?$allocator@UVector2D@@@std@@@std@@QBEIXZ ENDP ; std::vector<Vector2D,std::allocator<Vector2D> >::capacity
_TEXT	ENDS
; Function compile flags: /Odtp /RTCsu
; File c:\program files (x86)\microsoft visual studio\2017\enterprise\vc\tools\msvc\14.15.26726\include\vector
;	COMDAT ?max_size@?$vector@UVector2D@@V?$allocator@UVector2D@@@std@@@std@@QBEIXZ
_TEXT	SEGMENT
$T1 = -12						; size = 4
$T2 = -8						; size = 4
_this$ = -4						; size = 4
?max_size@?$vector@UVector2D@@V?$allocator@UVector2D@@@std@@@std@@QBEIXZ PROC ; std::vector<Vector2D,std::allocator<Vector2D> >::max_size, COMDAT
; _this$ = ecx

; 1708 : 		{	// return maximum possible length of sequence

	push	ebp
	mov	ebp, esp
	sub	esp, 12					; 0000000cH
	mov	DWORD PTR [ebp-12], -858993460		; ccccccccH
	mov	DWORD PTR [ebp-8], -858993460		; ccccccccH
	mov	DWORD PTR [ebp-4], -858993460		; ccccccccH
	mov	DWORD PTR _this$[ebp], ecx

; 1709 : 		return (_Min_value(static_cast<size_type>((numeric_limits<difference_type>::max)()),

	mov	ecx, DWORD PTR _this$[ebp]
	call	?_Getal@?$_Vector_alloc@U?$_Vec_base_types@UVector2D@@V?$allocator@UVector2D@@@std@@@std@@@std@@QBEABV?$allocator@UVector2D@@@2@XZ ; std::_Vector_alloc<std::_Vec_base_types<Vector2D,std::allocator<Vector2D> > >::_Getal
	push	eax
	call	?max_size@?$_Default_allocator_traits@V?$allocator@UVector2D@@@std@@@std@@SAIABV?$allocator@UVector2D@@@2@@Z ; std::_Default_allocator_traits<std::allocator<Vector2D> >::max_size
	add	esp, 4
	mov	DWORD PTR $T2[ebp], eax
	call	?max@?$numeric_limits@H@std@@SAHXZ	; std::numeric_limits<int>::max
	mov	DWORD PTR $T1[ebp], eax
	lea	eax, DWORD PTR $T2[ebp]
	push	eax
	lea	ecx, DWORD PTR $T1[ebp]
	push	ecx
	call	??$_Min_value@I@std@@YAABIABI0@Z	; std::_Min_value<unsigned int>
	add	esp, 8
	mov	eax, DWORD PTR [eax]

; 1710 : 			_Alty_traits::max_size(this->_Getal())));
; 1711 : 		}

	add	esp, 12					; 0000000cH
	cmp	ebp, esp
	call	__RTC_CheckEsp
	mov	esp, ebp
	pop	ebp
	ret	0
?max_size@?$vector@UVector2D@@V?$allocator@UVector2D@@@std@@@std@@QBEIXZ ENDP ; std::vector<Vector2D,std::allocator<Vector2D> >::max_size
_TEXT	ENDS
; Function compile flags: /Odtp /RTCsu
; File c:\program files (x86)\microsoft visual studio\2017\enterprise\vc\tools\msvc\14.15.26726\include\vector
;	COMDAT ?size@?$vector@UVector2D@@V?$allocator@UVector2D@@@std@@@std@@QBEIXZ
_TEXT	SEGMENT
_this$ = -4						; size = 4
?size@?$vector@UVector2D@@V?$allocator@UVector2D@@@std@@@std@@QBEIXZ PROC ; std::vector<Vector2D,std::allocator<Vector2D> >::size, COMDAT
; _this$ = ecx

; 1703 : 		{	// return length of sequence

	push	ebp
	mov	ebp, esp
	push	ecx
	push	esi
	mov	DWORD PTR [ebp-4], -858993460		; ccccccccH
	mov	DWORD PTR _this$[ebp], ecx

; 1704 : 		return (static_cast<size_type>(this->_Mylast() - this->_Myfirst()));

	mov	ecx, DWORD PTR _this$[ebp]
	call	?_Mylast@?$_Vector_alloc@U?$_Vec_base_types@UVector2D@@V?$allocator@UVector2D@@@std@@@std@@@std@@QBEABQAUVector2D@@XZ ; std::_Vector_alloc<std::_Vec_base_types<Vector2D,std::allocator<Vector2D> > >::_Mylast
	mov	esi, eax
	mov	ecx, DWORD PTR _this$[ebp]
	call	?_Myfirst@?$_Vector_alloc@U?$_Vec_base_types@UVector2D@@V?$allocator@UVector2D@@@std@@@std@@@std@@QBEABQAUVector2D@@XZ ; std::_Vector_alloc<std::_Vec_base_types<Vector2D,std::allocator<Vector2D> > >::_Myfirst
	mov	ecx, DWORD PTR [esi]
	sub	ecx, DWORD PTR [eax]
	sar	ecx, 4
	mov	eax, ecx

; 1705 : 		}

	pop	esi
	add	esp, 4
	cmp	ebp, esp
	call	__RTC_CheckEsp
	mov	esp, ebp
	pop	ebp
	ret	0
?size@?$vector@UVector2D@@V?$allocator@UVector2D@@@std@@@std@@QBEIXZ ENDP ; std::vector<Vector2D,std::allocator<Vector2D> >::size
_TEXT	ENDS
; Function compile flags: /Odtp /RTCsu
; File c:\program files (x86)\microsoft visual studio\2017\enterprise\vc\tools\msvc\14.15.26726\include\vector
;	COMDAT ?push_back@?$vector@UVector2D@@V?$allocator@UVector2D@@@std@@@std@@QAEXABUVector2D@@@Z
_TEXT	SEGMENT
_this$ = -4						; size = 4
__Val$ = 8						; size = 4
?push_back@?$vector@UVector2D@@V?$allocator@UVector2D@@@std@@@std@@QAEXABUVector2D@@@Z PROC ; std::vector<Vector2D,std::allocator<Vector2D> >::push_back, COMDAT
; _this$ = ecx

; 931  : 		{	// insert element at end, provide strong guarantee

	push	ebp
	mov	ebp, esp
	push	ecx
	mov	DWORD PTR [ebp-4], -858993460		; ccccccccH
	mov	DWORD PTR _this$[ebp], ecx

; 932  : 		emplace_back(_Val);

	mov	eax, DWORD PTR __Val$[ebp]
	push	eax
	mov	ecx, DWORD PTR _this$[ebp]
	call	??$emplace_back@ABUVector2D@@@?$vector@UVector2D@@V?$allocator@UVector2D@@@std@@@std@@QAE@ABUVector2D@@@Z ; std::vector<Vector2D,std::allocator<Vector2D> >::emplace_back<Vector2D const &>

; 933  : 		}

	add	esp, 4
	cmp	ebp, esp
	call	__RTC_CheckEsp
	mov	esp, ebp
	pop	ebp
	ret	4
?push_back@?$vector@UVector2D@@V?$allocator@UVector2D@@@std@@@std@@QAEXABUVector2D@@@Z ENDP ; std::vector<Vector2D,std::allocator<Vector2D> >::push_back
_TEXT	ENDS
; Function compile flags: /Odtp /RTCsu
; File c:\program files (x86)\microsoft visual studio\2017\enterprise\vc\tools\msvc\14.15.26726\include\vector
;	COMDAT ??1?$vector@UVector2D@@V?$allocator@UVector2D@@@std@@@std@@QAE@XZ
_TEXT	SEGMENT
_this$ = -16						; size = 4
__$EHRec$ = -12						; size = 12
??1?$vector@UVector2D@@V?$allocator@UVector2D@@@std@@@std@@QAE@XZ PROC ; std::vector<Vector2D,std::allocator<Vector2D> >::~vector<Vector2D,std::allocator<Vector2D> >, COMDAT
; _this$ = ecx

; 893  : 		{	// destroy the object

	push	ebp
	mov	ebp, esp
	push	-1
	push	__ehhandler$??1?$vector@UVector2D@@V?$allocator@UVector2D@@@std@@@std@@QAE@XZ
	mov	eax, DWORD PTR fs:0
	push	eax
	push	ecx
	mov	DWORD PTR [ebp-16], -858993460		; ccccccccH
	mov	eax, DWORD PTR ___security_cookie
	xor	eax, ebp
	push	eax
	lea	eax, DWORD PTR __$EHRec$[ebp]
	mov	DWORD PTR fs:0, eax
	mov	DWORD PTR _this$[ebp], ecx

; 894  : 		_Tidy();

	mov	ecx, DWORD PTR _this$[ebp]
	call	?_Tidy@?$vector@UVector2D@@V?$allocator@UVector2D@@@std@@@std@@AAEXXZ ; std::vector<Vector2D,std::allocator<Vector2D> >::_Tidy

; 895  : 		}

	mov	ecx, DWORD PTR _this$[ebp]
	call	??1?$_Vector_alloc@U?$_Vec_base_types@UVector2D@@V?$allocator@UVector2D@@@std@@@std@@@std@@QAE@XZ ; std::_Vector_alloc<std::_Vec_base_types<Vector2D,std::allocator<Vector2D> > >::~_Vector_alloc<std::_Vec_base_types<Vector2D,std::allocator<Vector2D> > >
	mov	ecx, DWORD PTR __$EHRec$[ebp]
	mov	DWORD PTR fs:0, ecx
	pop	ecx
	add	esp, 16					; 00000010H
	cmp	ebp, esp
	call	__RTC_CheckEsp
	mov	esp, ebp
	pop	ebp
	ret	0
_TEXT	ENDS
;	COMDAT text$x
text$x	SEGMENT
__ehhandler$??1?$vector@UVector2D@@V?$allocator@UVector2D@@@std@@@std@@QAE@XZ:
	mov	edx, DWORD PTR [esp+8]
	lea	eax, DWORD PTR [edx+12]
	mov	ecx, DWORD PTR [edx-8]
	xor	ecx, eax
	call	@__security_check_cookie@4
	mov	eax, OFFSET __ehfuncinfo$??1?$vector@UVector2D@@V?$allocator@UVector2D@@@std@@@std@@QAE@XZ
	jmp	___CxxFrameHandler3
text$x	ENDS
??1?$vector@UVector2D@@V?$allocator@UVector2D@@@std@@@std@@QAE@XZ ENDP ; std::vector<Vector2D,std::allocator<Vector2D> >::~vector<Vector2D,std::allocator<Vector2D> >
; Function compile flags: /Odtp /RTCsu
; File c:\program files (x86)\microsoft visual studio\2017\enterprise\vc\tools\msvc\14.15.26726\include\vector
;	COMDAT ??4?$vector@UVector2D@@V?$allocator@UVector2D@@@std@@@std@@QAEAAV01@$$QAV01@@Z
_TEXT	SEGMENT
$T2 = -17						; size = 1
_this$ = -16						; size = 4
__$EHRec$ = -12						; size = 12
__Right$ = 8						; size = 4
??4?$vector@UVector2D@@V?$allocator@UVector2D@@@std@@@std@@QAEAAV01@$$QAV01@@Z PROC ; std::vector<Vector2D,std::allocator<Vector2D> >::operator=, COMDAT
; _this$ = ecx

; 875  : 		{	// assign by moving _Right

	push	ebp
	mov	ebp, esp
	push	-1
	push	__ehhandler$??4?$vector@UVector2D@@V?$allocator@UVector2D@@@std@@@std@@QAEAAV01@$$QAV01@@Z
	mov	eax, DWORD PTR fs:0
	push	eax
	sub	esp, 8
	mov	DWORD PTR [ebp-20], -858993460		; ccccccccH
	mov	DWORD PTR [ebp-16], -858993460		; ccccccccH
	mov	eax, DWORD PTR ___security_cookie
	xor	eax, ebp
	push	eax
	lea	eax, DWORD PTR __$EHRec$[ebp]
	mov	DWORD PTR fs:0, eax
	mov	DWORD PTR _this$[ebp], ecx

; 876  : 		if (this != _STD addressof(_Right))

	mov	eax, DWORD PTR __Right$[ebp]
	push	eax
	call	??$addressof@V?$vector@UVector2D@@V?$allocator@UVector2D@@@std@@@std@@@std@@YAPAV?$vector@UVector2D@@V?$allocator@UVector2D@@@std@@@0@AAV10@@Z ; std::addressof<std::vector<Vector2D,std::allocator<Vector2D> > >
	add	esp, 4
	cmp	DWORD PTR _this$[ebp], eax
	je	SHORT $LN2@operator

; 877  : 			{	// different, assign it
; 878  : #pragma warning(push)
; 879  : #pragma warning(disable: 4127)	// conditional expression is constant
; 880  : 			if (_Always_equal_after_move<_Alty>
; 881  : 				|| this->_Getal() == _Right._Getal())

	mov	ecx, 1
	test	ecx, ecx
	je	SHORT $LN3@operator

; 882  : 				{	// will steal _Right's contents (also, POCMA non-equal must reload array)
; 883  : 				_Tidy();

	mov	ecx, DWORD PTR _this$[ebp]
	call	?_Tidy@?$vector@UVector2D@@V?$allocator@UVector2D@@@std@@@std@@AAEXXZ ; std::vector<Vector2D,std::allocator<Vector2D> >::_Tidy
$LN3@operator:

; 884  : 				}
; 885  : #pragma warning(pop)
; 886  : 			this->_Move_alloc(_Right._Getal());

	mov	ecx, DWORD PTR __Right$[ebp]
	call	?_Getal@?$_Vector_alloc@U?$_Vec_base_types@UVector2D@@V?$allocator@UVector2D@@@std@@@std@@@std@@QAEAAV?$allocator@UVector2D@@@2@XZ ; std::_Vector_alloc<std::_Vec_base_types<Vector2D,std::allocator<Vector2D> > >::_Getal
	push	eax
	mov	ecx, DWORD PTR _this$[ebp]
	call	?_Move_alloc@?$_Vector_alloc@U?$_Vec_base_types@UVector2D@@V?$allocator@UVector2D@@@std@@@std@@@std@@QAEXAAV?$allocator@UVector2D@@@2@@Z ; std::_Vector_alloc<std::_Vec_base_types<Vector2D,std::allocator<Vector2D> > >::_Move_alloc

; 887  : 			_Move_assign_from(_STD move(_Right), bool_constant<_Always_equal_after_move<_Alty>>{});

	xor	edx, edx
	mov	BYTE PTR $T2[ebp], dl
	movzx	eax, BYTE PTR $T2[ebp]
	push	eax
	mov	ecx, DWORD PTR __Right$[ebp]
	push	ecx
	call	??$move@AAV?$vector@UVector2D@@V?$allocator@UVector2D@@@std@@@std@@@std@@YA$$QAV?$vector@UVector2D@@V?$allocator@UVector2D@@@std@@@0@AAV10@@Z ; std::move<std::vector<Vector2D,std::allocator<Vector2D> > &>
	add	esp, 4
	push	eax
	mov	ecx, DWORD PTR _this$[ebp]
	call	?_Move_assign_from@?$vector@UVector2D@@V?$allocator@UVector2D@@@std@@@std@@AAEX$$QAV12@U?$integral_constant@_N$00@2@@Z ; std::vector<Vector2D,std::allocator<Vector2D> >::_Move_assign_from
$LN2@operator:

; 888  : 			}
; 889  : 		return (*this);

	mov	eax, DWORD PTR _this$[ebp]

; 890  : 		}

	mov	ecx, DWORD PTR __$EHRec$[ebp]
	mov	DWORD PTR fs:0, ecx
	pop	ecx
	add	esp, 20					; 00000014H
	cmp	ebp, esp
	call	__RTC_CheckEsp
	mov	esp, ebp
	pop	ebp
	ret	4
_TEXT	ENDS
;	COMDAT text$x
text$x	SEGMENT
__ehhandler$??4?$vector@UVector2D@@V?$allocator@UVector2D@@@std@@@std@@QAEAAV01@$$QAV01@@Z:
	mov	edx, DWORD PTR [esp+8]
	lea	eax, DWORD PTR [edx+12]
	mov	ecx, DWORD PTR [edx-12]
	xor	ecx, eax
	call	@__security_check_cookie@4
	mov	eax, OFFSET __ehfuncinfo$??4?$vector@UVector2D@@V?$allocator@UVector2D@@@std@@@std@@QAEAAV01@$$QAV01@@Z
	jmp	___CxxFrameHandler3
text$x	ENDS
??4?$vector@UVector2D@@V?$allocator@UVector2D@@@std@@@std@@QAEAAV01@$$QAV01@@Z ENDP ; std::vector<Vector2D,std::allocator<Vector2D> >::operator=
; Function compile flags: /Odtp /RTCsu
; File c:\program files (x86)\microsoft visual studio\2017\enterprise\vc\tools\msvc\14.15.26726\include\vector
;	COMDAT ?_Move_assign_from@?$vector@UVector2D@@V?$allocator@UVector2D@@@std@@@std@@AAEX$$QAV12@U?$integral_constant@_N$00@2@@Z
_TEXT	SEGMENT
$T1 = -5						; size = 1
_this$ = -4						; size = 4
__Right$ = 8						; size = 4
___formal$ = 12						; size = 1
?_Move_assign_from@?$vector@UVector2D@@V?$allocator@UVector2D@@@std@@@std@@AAEX$$QAV12@U?$integral_constant@_N$00@2@@Z PROC ; std::vector<Vector2D,std::allocator<Vector2D> >::_Move_assign_from, COMDAT
; _this$ = ecx

; 817  : 		{	// move from _Right, stealing its contents

	push	ebp
	mov	ebp, esp
	sub	esp, 8
	mov	DWORD PTR [ebp-8], -858993460		; ccccccccH
	mov	DWORD PTR [ebp-4], -858993460		; ccccccccH
	mov	DWORD PTR _this$[ebp], ecx

; 818  : 		_Move_from(_STD move(_Right), true_type{});

	xor	eax, eax
	mov	BYTE PTR $T1[ebp], al
	movzx	ecx, BYTE PTR $T1[ebp]
	push	ecx
	mov	edx, DWORD PTR __Right$[ebp]
	push	edx
	call	??$move@AAV?$vector@UVector2D@@V?$allocator@UVector2D@@@std@@@std@@@std@@YA$$QAV?$vector@UVector2D@@V?$allocator@UVector2D@@@std@@@0@AAV10@@Z ; std::move<std::vector<Vector2D,std::allocator<Vector2D> > &>
	add	esp, 4
	push	eax
	mov	ecx, DWORD PTR _this$[ebp]
	call	?_Move_from@?$vector@UVector2D@@V?$allocator@UVector2D@@@std@@@std@@AAEX$$QAV12@U?$integral_constant@_N$00@2@@Z ; std::vector<Vector2D,std::allocator<Vector2D> >::_Move_from

; 819  : 		}

	add	esp, 8
	cmp	ebp, esp
	call	__RTC_CheckEsp
	mov	esp, ebp
	pop	ebp
	ret	8
?_Move_assign_from@?$vector@UVector2D@@V?$allocator@UVector2D@@@std@@@std@@AAEX$$QAV12@U?$integral_constant@_N$00@2@@Z ENDP ; std::vector<Vector2D,std::allocator<Vector2D> >::_Move_assign_from
_TEXT	ENDS
; Function compile flags: /Odtp /RTCsu
; File c:\program files (x86)\microsoft visual studio\2017\enterprise\vc\tools\msvc\14.15.26726\include\vector
;	COMDAT ??0?$vector@UVector2D@@V?$allocator@UVector2D@@@std@@@std@@QAE@$$QAV01@@Z
_TEXT	SEGMENT
$T2 = -17						; size = 1
_this$ = -16						; size = 4
__$EHRec$ = -12						; size = 12
__Right$ = 8						; size = 4
??0?$vector@UVector2D@@V?$allocator@UVector2D@@@std@@@std@@QAE@$$QAV01@@Z PROC ; std::vector<Vector2D,std::allocator<Vector2D> >::vector<Vector2D,std::allocator<Vector2D> >, COMDAT
; _this$ = ecx

; 789  : 		{	// construct by moving _Right

	push	ebp
	mov	ebp, esp
	push	-1
	push	__ehhandler$??0?$vector@UVector2D@@V?$allocator@UVector2D@@@std@@@std@@QAE@$$QAV01@@Z
	mov	eax, DWORD PTR fs:0
	push	eax
	sub	esp, 8
	mov	DWORD PTR [ebp-20], -858993460		; ccccccccH
	mov	DWORD PTR [ebp-16], -858993460		; ccccccccH
	mov	eax, DWORD PTR ___security_cookie
	xor	eax, ebp
	push	eax
	lea	eax, DWORD PTR __$EHRec$[ebp]
	mov	DWORD PTR fs:0, eax
	mov	DWORD PTR _this$[ebp], ecx

; 788  : 		: _Mybase(_STD move(_Right._Getal()))

	mov	ecx, DWORD PTR __Right$[ebp]
	call	?_Getal@?$_Vector_alloc@U?$_Vec_base_types@UVector2D@@V?$allocator@UVector2D@@@std@@@std@@@std@@QAEAAV?$allocator@UVector2D@@@2@XZ ; std::_Vector_alloc<std::_Vec_base_types<Vector2D,std::allocator<Vector2D> > >::_Getal
	push	eax
	call	??$move@AAV?$allocator@UVector2D@@@std@@@std@@YA$$QAV?$allocator@UVector2D@@@0@AAV10@@Z ; std::move<std::allocator<Vector2D> &>
	add	esp, 4
	push	eax
	mov	ecx, DWORD PTR _this$[ebp]
	call	??$?0V?$allocator@UVector2D@@@std@@X@?$_Vector_alloc@U?$_Vec_base_types@UVector2D@@V?$allocator@UVector2D@@@std@@@std@@@std@@QAE@$$QAV?$allocator@UVector2D@@@1@@Z ; std::_Vector_alloc<std::_Vec_base_types<Vector2D,std::allocator<Vector2D> > >::_Vector_alloc<std::_Vec_base_types<Vector2D,std::allocator<Vector2D> > ><std::allocator<Vector2D>,void>

; 790  : 		_Move_from(_STD move(_Right), true_type{});

	xor	eax, eax
	mov	BYTE PTR $T2[ebp], al
	movzx	ecx, BYTE PTR $T2[ebp]
	push	ecx
	mov	edx, DWORD PTR __Right$[ebp]
	push	edx
	call	??$move@AAV?$vector@UVector2D@@V?$allocator@UVector2D@@@std@@@std@@@std@@YA$$QAV?$vector@UVector2D@@V?$allocator@UVector2D@@@std@@@0@AAV10@@Z ; std::move<std::vector<Vector2D,std::allocator<Vector2D> > &>
	add	esp, 4
	push	eax
	mov	ecx, DWORD PTR _this$[ebp]
	call	?_Move_from@?$vector@UVector2D@@V?$allocator@UVector2D@@@std@@@std@@AAEX$$QAV12@U?$integral_constant@_N$00@2@@Z ; std::vector<Vector2D,std::allocator<Vector2D> >::_Move_from

; 791  : 		}

	mov	eax, DWORD PTR _this$[ebp]
	mov	ecx, DWORD PTR __$EHRec$[ebp]
	mov	DWORD PTR fs:0, ecx
	pop	ecx
	add	esp, 20					; 00000014H
	cmp	ebp, esp
	call	__RTC_CheckEsp
	mov	esp, ebp
	pop	ebp
	ret	4
_TEXT	ENDS
;	COMDAT text$x
text$x	SEGMENT
__ehhandler$??0?$vector@UVector2D@@V?$allocator@UVector2D@@@std@@@std@@QAE@$$QAV01@@Z:
	mov	edx, DWORD PTR [esp+8]
	lea	eax, DWORD PTR [edx+12]
	mov	ecx, DWORD PTR [edx-12]
	xor	ecx, eax
	call	@__security_check_cookie@4
	mov	eax, OFFSET __ehfuncinfo$??0?$vector@UVector2D@@V?$allocator@UVector2D@@@std@@@std@@QAE@$$QAV01@@Z
	jmp	___CxxFrameHandler3
text$x	ENDS
??0?$vector@UVector2D@@V?$allocator@UVector2D@@@std@@@std@@QAE@$$QAV01@@Z ENDP ; std::vector<Vector2D,std::allocator<Vector2D> >::vector<Vector2D,std::allocator<Vector2D> >
; Function compile flags: /Odtp /RTCsu
; File c:\program files (x86)\microsoft visual studio\2017\enterprise\vc\tools\msvc\14.15.26726\include\vector
;	COMDAT ?_Move_from@?$vector@UVector2D@@V?$allocator@UVector2D@@@std@@@std@@AAEX$$QAV12@U?$integral_constant@_N$00@2@@Z
_TEXT	SEGMENT
_this$ = -16						; size = 4
__$EHRec$ = -12						; size = 12
__Right$ = 8						; size = 4
___formal$ = 12						; size = 1
?_Move_from@?$vector@UVector2D@@V?$allocator@UVector2D@@@std@@@std@@AAEX$$QAV12@U?$integral_constant@_N$00@2@@Z PROC ; std::vector<Vector2D,std::allocator<Vector2D> >::_Move_from, COMDAT
; _this$ = ecx

; 762  : 		{	// move from _Right, stealing its contents

	push	ebp
	mov	ebp, esp
	push	-1
	push	__ehhandler$?_Move_from@?$vector@UVector2D@@V?$allocator@UVector2D@@@std@@@std@@AAEX$$QAV12@U?$integral_constant@_N$00@2@@Z
	mov	eax, DWORD PTR fs:0
	push	eax
	push	ecx
	push	esi
	mov	DWORD PTR [ebp-16], -858993460		; ccccccccH
	mov	eax, DWORD PTR ___security_cookie
	xor	eax, ebp
	push	eax
	lea	eax, DWORD PTR __$EHRec$[ebp]
	mov	DWORD PTR fs:0, eax
	mov	DWORD PTR _this$[ebp], ecx

; 763  : 		this->_Swap_all(_Right);

	mov	eax, DWORD PTR __Right$[ebp]
	push	eax
	mov	ecx, DWORD PTR _this$[ebp]
	call	?_Swap_all@?$_Vector_alloc@U?$_Vec_base_types@UVector2D@@V?$allocator@UVector2D@@@std@@@std@@@std@@QAEXAAV12@@Z ; std::_Vector_alloc<std::_Vec_base_types<Vector2D,std::allocator<Vector2D> > >::_Swap_all

; 764  : 
; 765  : 		this->_Myfirst() = _Right._Myfirst();

	mov	ecx, DWORD PTR __Right$[ebp]
	call	?_Myfirst@?$_Vector_alloc@U?$_Vec_base_types@UVector2D@@V?$allocator@UVector2D@@@std@@@std@@@std@@QAEAAPAUVector2D@@XZ ; std::_Vector_alloc<std::_Vec_base_types<Vector2D,std::allocator<Vector2D> > >::_Myfirst
	mov	esi, eax
	mov	ecx, DWORD PTR _this$[ebp]
	call	?_Myfirst@?$_Vector_alloc@U?$_Vec_base_types@UVector2D@@V?$allocator@UVector2D@@@std@@@std@@@std@@QAEAAPAUVector2D@@XZ ; std::_Vector_alloc<std::_Vec_base_types<Vector2D,std::allocator<Vector2D> > >::_Myfirst
	mov	ecx, DWORD PTR [esi]
	mov	DWORD PTR [eax], ecx

; 766  : 		this->_Mylast() = _Right._Mylast();

	mov	ecx, DWORD PTR __Right$[ebp]
	call	?_Mylast@?$_Vector_alloc@U?$_Vec_base_types@UVector2D@@V?$allocator@UVector2D@@@std@@@std@@@std@@QAEAAPAUVector2D@@XZ ; std::_Vector_alloc<std::_Vec_base_types<Vector2D,std::allocator<Vector2D> > >::_Mylast
	mov	esi, eax
	mov	ecx, DWORD PTR _this$[ebp]
	call	?_Mylast@?$_Vector_alloc@U?$_Vec_base_types@UVector2D@@V?$allocator@UVector2D@@@std@@@std@@@std@@QAEAAPAUVector2D@@XZ ; std::_Vector_alloc<std::_Vec_base_types<Vector2D,std::allocator<Vector2D> > >::_Mylast
	mov	edx, DWORD PTR [esi]
	mov	DWORD PTR [eax], edx

; 767  : 		this->_Myend() = _Right._Myend();

	mov	ecx, DWORD PTR __Right$[ebp]
	call	?_Myend@?$_Vector_alloc@U?$_Vec_base_types@UVector2D@@V?$allocator@UVector2D@@@std@@@std@@@std@@QAEAAPAUVector2D@@XZ ; std::_Vector_alloc<std::_Vec_base_types<Vector2D,std::allocator<Vector2D> > >::_Myend
	mov	esi, eax
	mov	ecx, DWORD PTR _this$[ebp]
	call	?_Myend@?$_Vector_alloc@U?$_Vec_base_types@UVector2D@@V?$allocator@UVector2D@@@std@@@std@@@std@@QAEAAPAUVector2D@@XZ ; std::_Vector_alloc<std::_Vec_base_types<Vector2D,std::allocator<Vector2D> > >::_Myend
	mov	ecx, DWORD PTR [esi]
	mov	DWORD PTR [eax], ecx

; 768  : 
; 769  : 		_Right._Myfirst() = pointer();

	mov	ecx, DWORD PTR __Right$[ebp]
	call	?_Myfirst@?$_Vector_alloc@U?$_Vec_base_types@UVector2D@@V?$allocator@UVector2D@@@std@@@std@@@std@@QAEAAPAUVector2D@@XZ ; std::_Vector_alloc<std::_Vec_base_types<Vector2D,std::allocator<Vector2D> > >::_Myfirst
	mov	DWORD PTR [eax], 0

; 770  : 		_Right._Mylast() = pointer();

	mov	ecx, DWORD PTR __Right$[ebp]
	call	?_Mylast@?$_Vector_alloc@U?$_Vec_base_types@UVector2D@@V?$allocator@UVector2D@@@std@@@std@@@std@@QAEAAPAUVector2D@@XZ ; std::_Vector_alloc<std::_Vec_base_types<Vector2D,std::allocator<Vector2D> > >::_Mylast
	mov	DWORD PTR [eax], 0

; 771  : 		_Right._Myend() = pointer();

	mov	ecx, DWORD PTR __Right$[ebp]
	call	?_Myend@?$_Vector_alloc@U?$_Vec_base_types@UVector2D@@V?$allocator@UVector2D@@@std@@@std@@@std@@QAEAAPAUVector2D@@XZ ; std::_Vector_alloc<std::_Vec_base_types<Vector2D,std::allocator<Vector2D> > >::_Myend
	mov	DWORD PTR [eax], 0

; 772  : 		}

	mov	ecx, DWORD PTR __$EHRec$[ebp]
	mov	DWORD PTR fs:0, ecx
	pop	ecx
	pop	esi
	add	esp, 16					; 00000010H
	cmp	ebp, esp
	call	__RTC_CheckEsp
	mov	esp, ebp
	pop	ebp
	ret	8
_TEXT	ENDS
;	COMDAT text$x
text$x	SEGMENT
__ehhandler$?_Move_from@?$vector@UVector2D@@V?$allocator@UVector2D@@@std@@@std@@AAEX$$QAV12@U?$integral_constant@_N$00@2@@Z:
	mov	edx, DWORD PTR [esp+8]
	lea	eax, DWORD PTR [edx+12]
	mov	ecx, DWORD PTR [edx-12]
	xor	ecx, eax
	call	@__security_check_cookie@4
	mov	eax, OFFSET __ehfuncinfo$?_Move_from@?$vector@UVector2D@@V?$allocator@UVector2D@@@std@@@std@@AAEX$$QAV12@U?$integral_constant@_N$00@2@@Z
	jmp	___CxxFrameHandler3
text$x	ENDS
?_Move_from@?$vector@UVector2D@@V?$allocator@UVector2D@@@std@@@std@@AAEX$$QAV12@U?$integral_constant@_N$00@2@@Z ENDP ; std::vector<Vector2D,std::allocator<Vector2D> >::_Move_from
; Function compile flags: /Odtp /RTCsu
; File c:\program files (x86)\microsoft visual studio\2017\enterprise\vc\tools\msvc\14.15.26726\include\vector
;	COMDAT ??0?$vector@UVector2D@@V?$allocator@UVector2D@@@std@@@std@@QAE@ABV01@@Z
_TEXT	SEGMENT
tv69 = -28						; size = 4
$T2 = -21						; size = 1
_this$ = -20						; size = 4
__$EHRec$ = -16						; size = 16
__Right$ = 8						; size = 4
??0?$vector@UVector2D@@V?$allocator@UVector2D@@@std@@@std@@QAE@ABV01@@Z PROC ; std::vector<Vector2D,std::allocator<Vector2D> >::vector<Vector2D,std::allocator<Vector2D> >, COMDAT
; _this$ = ecx

; 734  : 		{	// construct by copying _Right

	push	ebp
	mov	ebp, esp
	push	-1
	push	__ehhandler$??0?$vector@UVector2D@@V?$allocator@UVector2D@@@std@@@std@@QAE@ABV01@@Z
	mov	eax, DWORD PTR fs:0
	push	eax
	push	ecx
	sub	esp, 12					; 0000000cH
	push	ebx
	push	esi
	push	edi
	mov	DWORD PTR [ebp-28], -858993460		; ccccccccH
	mov	DWORD PTR [ebp-24], -858993460		; ccccccccH
	mov	DWORD PTR [ebp-20], -858993460		; ccccccccH
	mov	eax, DWORD PTR ___security_cookie
	xor	eax, ebp
	push	eax
	lea	eax, DWORD PTR __$EHRec$[ebp+4]
	mov	DWORD PTR fs:0, eax
	mov	DWORD PTR __$EHRec$[ebp], esp
	mov	DWORD PTR _this$[ebp], ecx

; 733  : 		: _Mybase(_Alty_traits::select_on_container_copy_construction(_Right._Getal()))

	mov	ecx, DWORD PTR __Right$[ebp]
	call	?_Getal@?$_Vector_alloc@U?$_Vec_base_types@UVector2D@@V?$allocator@UVector2D@@@std@@@std@@@std@@QBEABV?$allocator@UVector2D@@@2@XZ ; std::_Vector_alloc<std::_Vec_base_types<Vector2D,std::allocator<Vector2D> > >::_Getal
	push	eax
	lea	eax, DWORD PTR $T2[ebp]
	push	eax
	call	?select_on_container_copy_construction@?$_Default_allocator_traits@V?$allocator@UVector2D@@@std@@@std@@SA?AV?$allocator@UVector2D@@@2@ABV32@@Z ; std::_Default_allocator_traits<std::allocator<Vector2D> >::select_on_container_copy_construction
	add	esp, 8
	push	eax
	mov	ecx, DWORD PTR _this$[ebp]
	call	??$?0V?$allocator@UVector2D@@@std@@X@?$_Vector_alloc@U?$_Vec_base_types@UVector2D@@V?$allocator@UVector2D@@@std@@@std@@@std@@QAE@$$QAV?$allocator@UVector2D@@@1@@Z ; std::_Vector_alloc<std::_Vec_base_types<Vector2D,std::allocator<Vector2D> > >::_Vector_alloc<std::_Vec_base_types<Vector2D,std::allocator<Vector2D> > ><std::allocator<Vector2D>,void>
	mov	DWORD PTR __$EHRec$[ebp+12], 0

; 735  : 		if (_Buy(_Right.size()))

	mov	ecx, DWORD PTR __Right$[ebp]
	call	?size@?$vector@UVector2D@@V?$allocator@UVector2D@@@std@@@std@@QBEIXZ ; std::vector<Vector2D,std::allocator<Vector2D> >::size
	push	eax
	mov	ecx, DWORD PTR _this$[ebp]
	call	?_Buy@?$vector@UVector2D@@V?$allocator@UVector2D@@@std@@@std@@AAE_NI@Z ; std::vector<Vector2D,std::allocator<Vector2D> >::_Buy
	movzx	ecx, al
	test	ecx, ecx
	je	SHORT $LN1@vector

; 736  : 			{	// nonzero, fill it
; 737  : 			_TRY_BEGIN

	mov	BYTE PTR __$EHRec$[ebp+12], 1

; 738  : 			this->_Mylast() = _Ucopy(_Right._Myfirst(), _Right._Mylast(), this->_Myfirst());

	mov	ecx, DWORD PTR _this$[ebp]
	call	?_Myfirst@?$_Vector_alloc@U?$_Vec_base_types@UVector2D@@V?$allocator@UVector2D@@@std@@@std@@@std@@QAEAAPAUVector2D@@XZ ; std::_Vector_alloc<std::_Vec_base_types<Vector2D,std::allocator<Vector2D> > >::_Myfirst
	mov	edx, DWORD PTR [eax]
	push	edx
	mov	ecx, DWORD PTR __Right$[ebp]
	call	?_Mylast@?$_Vector_alloc@U?$_Vec_base_types@UVector2D@@V?$allocator@UVector2D@@@std@@@std@@@std@@QBEABQAUVector2D@@XZ ; std::_Vector_alloc<std::_Vec_base_types<Vector2D,std::allocator<Vector2D> > >::_Mylast
	mov	eax, DWORD PTR [eax]
	push	eax
	mov	ecx, DWORD PTR __Right$[ebp]
	call	?_Myfirst@?$_Vector_alloc@U?$_Vec_base_types@UVector2D@@V?$allocator@UVector2D@@@std@@@std@@@std@@QBEABQAUVector2D@@XZ ; std::_Vector_alloc<std::_Vec_base_types<Vector2D,std::allocator<Vector2D> > >::_Myfirst
	mov	ecx, DWORD PTR [eax]
	push	ecx
	mov	ecx, DWORD PTR _this$[ebp]
	call	??$_Ucopy@PAUVector2D@@@?$vector@UVector2D@@V?$allocator@UVector2D@@@std@@@std@@AAEPAUVector2D@@PAU2@00@Z ; std::vector<Vector2D,std::allocator<Vector2D> >::_Ucopy<Vector2D *>
	mov	DWORD PTR tv69[ebp], eax
	mov	ecx, DWORD PTR _this$[ebp]
	call	?_Mylast@?$_Vector_alloc@U?$_Vec_base_types@UVector2D@@V?$allocator@UVector2D@@@std@@@std@@@std@@QAEAAPAUVector2D@@XZ ; std::_Vector_alloc<std::_Vec_base_types<Vector2D,std::allocator<Vector2D> > >::_Mylast
	mov	edx, DWORD PTR tv69[ebp]
	mov	DWORD PTR [eax], edx
	jmp	SHORT $LN5@vector
__catch$??0?$vector@UVector2D@@V?$allocator@UVector2D@@@std@@@std@@QAE@ABV01@@Z$0:

; 739  : 			_CATCH_ALL
; 740  : 			_Tidy();

	mov	ecx, DWORD PTR _this$[ebp]
	call	?_Tidy@?$vector@UVector2D@@V?$allocator@UVector2D@@@std@@@std@@AAEXXZ ; std::vector<Vector2D,std::allocator<Vector2D> >::_Tidy

; 741  : 			_RERAISE;

	push	0
	push	0
	call	__CxxThrowException@8

; 742  : 			_CATCH_END

	mov	eax, $LN9@vector
	ret	0
$LN5@vector:
	mov	DWORD PTR __$EHRec$[ebp+12], 0
	jmp	SHORT $LN1@vector
$LN9@vector:
	mov	DWORD PTR __$EHRec$[ebp+12], 0
$LN1@vector:

; 743  : 			}
; 744  : 		}

	mov	DWORD PTR __$EHRec$[ebp+12], -1
	mov	eax, DWORD PTR _this$[ebp]
$LN4@vector:
	mov	ecx, DWORD PTR __$EHRec$[ebp+4]
	mov	DWORD PTR fs:0, ecx
	pop	ecx
	pop	edi
	pop	esi
	pop	ebx
	add	esp, 28					; 0000001cH
	cmp	ebp, esp
	call	__RTC_CheckEsp
	mov	esp, ebp
	pop	ebp
	ret	4
_TEXT	ENDS
;	COMDAT text$x
text$x	SEGMENT
__unwindfunclet$??0?$vector@UVector2D@@V?$allocator@UVector2D@@@std@@@std@@QAE@ABV01@@Z$2:
	mov	ecx, DWORD PTR _this$[ebp]
	jmp	??1?$_Vector_alloc@U?$_Vec_base_types@UVector2D@@V?$allocator@UVector2D@@@std@@@std@@@std@@QAE@XZ ; std::_Vector_alloc<std::_Vec_base_types<Vector2D,std::allocator<Vector2D> > >::~_Vector_alloc<std::_Vec_base_types<Vector2D,std::allocator<Vector2D> > >
__ehhandler$??0?$vector@UVector2D@@V?$allocator@UVector2D@@@std@@@std@@QAE@ABV01@@Z:
	mov	edx, DWORD PTR [esp+8]
	lea	eax, DWORD PTR [edx+12]
	mov	ecx, DWORD PTR [edx-32]
	xor	ecx, eax
	call	@__security_check_cookie@4
	mov	eax, OFFSET __ehfuncinfo$??0?$vector@UVector2D@@V?$allocator@UVector2D@@@std@@@std@@QAE@ABV01@@Z
	jmp	___CxxFrameHandler3
text$x	ENDS
??0?$vector@UVector2D@@V?$allocator@UVector2D@@@std@@@std@@QAE@ABV01@@Z ENDP ; std::vector<Vector2D,std::allocator<Vector2D> >::vector<Vector2D,std::allocator<Vector2D> >
; Function compile flags: /Odtp /RTCsu
; File c:\program files (x86)\microsoft visual studio\2017\enterprise\vc\tools\msvc\14.15.26726\include\vector
;	COMDAT ??0?$vector@UVector2D@@V?$allocator@UVector2D@@@std@@@std@@QAE@XZ
_TEXT	SEGMENT
_this$ = -16						; size = 4
__$EHRec$ = -12						; size = 12
??0?$vector@UVector2D@@V?$allocator@UVector2D@@@std@@@std@@QAE@XZ PROC ; std::vector<Vector2D,std::allocator<Vector2D> >::vector<Vector2D,std::allocator<Vector2D> >, COMDAT
; _this$ = ecx

; 651  : 		{	// construct empty vector

	push	ebp
	mov	ebp, esp
	push	-1
	push	__ehhandler$??0?$vector@UVector2D@@V?$allocator@UVector2D@@@std@@@std@@QAE@XZ
	mov	eax, DWORD PTR fs:0
	push	eax
	push	ecx
	mov	DWORD PTR [ebp-16], -858993460		; ccccccccH
	mov	eax, DWORD PTR ___security_cookie
	xor	eax, ebp
	push	eax
	lea	eax, DWORD PTR __$EHRec$[ebp]
	mov	DWORD PTR fs:0, eax
	mov	DWORD PTR _this$[ebp], ecx

; 650  : 		: _Mybase()

	mov	ecx, DWORD PTR _this$[ebp]
	call	??0?$_Vector_alloc@U?$_Vec_base_types@UVector2D@@V?$allocator@UVector2D@@@std@@@std@@@std@@QAE@XZ ; std::_Vector_alloc<std::_Vec_base_types<Vector2D,std::allocator<Vector2D> > >::_Vector_alloc<std::_Vec_base_types<Vector2D,std::allocator<Vector2D> > >

; 652  : 		}

	mov	eax, DWORD PTR _this$[ebp]
	mov	ecx, DWORD PTR __$EHRec$[ebp]
	mov	DWORD PTR fs:0, ecx
	pop	ecx
	add	esp, 16					; 00000010H
	cmp	ebp, esp
	call	__RTC_CheckEsp
	mov	esp, ebp
	pop	ebp
	ret	0
_TEXT	ENDS
;	COMDAT text$x
text$x	SEGMENT
__ehhandler$??0?$vector@UVector2D@@V?$allocator@UVector2D@@@std@@@std@@QAE@XZ:
	mov	edx, DWORD PTR [esp+8]
	lea	eax, DWORD PTR [edx+12]
	mov	ecx, DWORD PTR [edx-8]
	xor	ecx, eax
	call	@__security_check_cookie@4
	mov	eax, OFFSET __ehfuncinfo$??0?$vector@UVector2D@@V?$allocator@UVector2D@@@std@@@std@@QAE@XZ
	jmp	___CxxFrameHandler3
text$x	ENDS
??0?$vector@UVector2D@@V?$allocator@UVector2D@@@std@@@std@@QAE@XZ ENDP ; std::vector<Vector2D,std::allocator<Vector2D> >::vector<Vector2D,std::allocator<Vector2D> >
; Function compile flags: /Odtp /RTCsu
; File c:\program files (x86)\microsoft visual studio\2017\enterprise\vc\tools\msvc\14.15.26726\include\xutility
;	COMDAT ?_Get_second@?$_Compressed_pair@V?$allocator@UVector2D@@@std@@V?$_Vector_val@U?$_Simple_types@UVector2D@@@std@@@2@$00@std@@QBEABV?$_Vector_val@U?$_Simple_types@UVector2D@@@std@@@2@XZ
_TEXT	SEGMENT
_this$ = -4						; size = 4
?_Get_second@?$_Compressed_pair@V?$allocator@UVector2D@@@std@@V?$_Vector_val@U?$_Simple_types@UVector2D@@@std@@@2@$00@std@@QBEABV?$_Vector_val@U?$_Simple_types@UVector2D@@@std@@@2@XZ PROC ; std::_Compressed_pair<std::allocator<Vector2D>,std::_Vector_val<std::_Simple_types<Vector2D> >,1>::_Get_second, COMDAT
; _this$ = ecx

; 306  : 		{	// return const reference to second

	push	ebp
	mov	ebp, esp
	push	ecx
	mov	DWORD PTR [ebp-4], -858993460		; ccccccccH
	mov	DWORD PTR _this$[ebp], ecx

; 307  : 		return (_Myval2);

	mov	eax, DWORD PTR _this$[ebp]

; 308  : 		}

	mov	esp, ebp
	pop	ebp
	ret	0
?_Get_second@?$_Compressed_pair@V?$allocator@UVector2D@@@std@@V?$_Vector_val@U?$_Simple_types@UVector2D@@@std@@@2@$00@std@@QBEABV?$_Vector_val@U?$_Simple_types@UVector2D@@@std@@@2@XZ ENDP ; std::_Compressed_pair<std::allocator<Vector2D>,std::_Vector_val<std::_Simple_types<Vector2D> >,1>::_Get_second
_TEXT	ENDS
; Function compile flags: /Odtp /RTCsu
; File c:\program files (x86)\microsoft visual studio\2017\enterprise\vc\tools\msvc\14.15.26726\include\xutility
;	COMDAT ?_Get_second@?$_Compressed_pair@V?$allocator@UVector2D@@@std@@V?$_Vector_val@U?$_Simple_types@UVector2D@@@std@@@2@$00@std@@QAEAAV?$_Vector_val@U?$_Simple_types@UVector2D@@@std@@@2@XZ
_TEXT	SEGMENT
_this$ = -4						; size = 4
?_Get_second@?$_Compressed_pair@V?$allocator@UVector2D@@@std@@V?$_Vector_val@U?$_Simple_types@UVector2D@@@std@@@2@$00@std@@QAEAAV?$_Vector_val@U?$_Simple_types@UVector2D@@@std@@@2@XZ PROC ; std::_Compressed_pair<std::allocator<Vector2D>,std::_Vector_val<std::_Simple_types<Vector2D> >,1>::_Get_second, COMDAT
; _this$ = ecx

; 301  : 		{	// return reference to second

	push	ebp
	mov	ebp, esp
	push	ecx
	mov	DWORD PTR [ebp-4], -858993460		; ccccccccH
	mov	DWORD PTR _this$[ebp], ecx

; 302  : 		return (_Myval2);

	mov	eax, DWORD PTR _this$[ebp]

; 303  : 		}

	mov	esp, ebp
	pop	ebp
	ret	0
?_Get_second@?$_Compressed_pair@V?$allocator@UVector2D@@@std@@V?$_Vector_val@U?$_Simple_types@UVector2D@@@std@@@2@$00@std@@QAEAAV?$_Vector_val@U?$_Simple_types@UVector2D@@@std@@@2@XZ ENDP ; std::_Compressed_pair<std::allocator<Vector2D>,std::_Vector_val<std::_Simple_types<Vector2D> >,1>::_Get_second
_TEXT	ENDS
; Function compile flags: /Odtp /RTCsu
; File c:\program files (x86)\microsoft visual studio\2017\enterprise\vc\tools\msvc\14.15.26726\include\xutility
;	COMDAT ?_Get_first@?$_Compressed_pair@V?$allocator@UVector2D@@@std@@V?$_Vector_val@U?$_Simple_types@UVector2D@@@std@@@2@$00@std@@QBEABV?$allocator@UVector2D@@@2@XZ
_TEXT	SEGMENT
_this$ = -4						; size = 4
?_Get_first@?$_Compressed_pair@V?$allocator@UVector2D@@@std@@V?$_Vector_val@U?$_Simple_types@UVector2D@@@std@@@2@$00@std@@QBEABV?$allocator@UVector2D@@@2@XZ PROC ; std::_Compressed_pair<std::allocator<Vector2D>,std::_Vector_val<std::_Simple_types<Vector2D> >,1>::_Get_first, COMDAT
; _this$ = ecx

; 296  : 		{	// return const reference to first

	push	ebp
	mov	ebp, esp
	push	ecx
	mov	DWORD PTR [ebp-4], -858993460		; ccccccccH
	mov	DWORD PTR _this$[ebp], ecx

; 297  : 		return (*this);

	mov	eax, DWORD PTR _this$[ebp]

; 298  : 		}

	mov	esp, ebp
	pop	ebp
	ret	0
?_Get_first@?$_Compressed_pair@V?$allocator@UVector2D@@@std@@V?$_Vector_val@U?$_Simple_types@UVector2D@@@std@@@2@$00@std@@QBEABV?$allocator@UVector2D@@@2@XZ ENDP ; std::_Compressed_pair<std::allocator<Vector2D>,std::_Vector_val<std::_Simple_types<Vector2D> >,1>::_Get_first
_TEXT	ENDS
; Function compile flags: /Odtp /RTCsu
; File c:\program files (x86)\microsoft visual studio\2017\enterprise\vc\tools\msvc\14.15.26726\include\xutility
;	COMDAT ?_Get_first@?$_Compressed_pair@V?$allocator@UVector2D@@@std@@V?$_Vector_val@U?$_Simple_types@UVector2D@@@std@@@2@$00@std@@QAEAAV?$allocator@UVector2D@@@2@XZ
_TEXT	SEGMENT
_this$ = -4						; size = 4
?_Get_first@?$_Compressed_pair@V?$allocator@UVector2D@@@std@@V?$_Vector_val@U?$_Simple_types@UVector2D@@@std@@@2@$00@std@@QAEAAV?$allocator@UVector2D@@@2@XZ PROC ; std::_Compressed_pair<std::allocator<Vector2D>,std::_Vector_val<std::_Simple_types<Vector2D> >,1>::_Get_first, COMDAT
; _this$ = ecx

; 291  : 		{	// return reference to first

	push	ebp
	mov	ebp, esp
	push	ecx
	mov	DWORD PTR [ebp-4], -858993460		; ccccccccH
	mov	DWORD PTR _this$[ebp], ecx

; 292  : 		return (*this);

	mov	eax, DWORD PTR _this$[ebp]

; 293  : 		}

	mov	esp, ebp
	pop	ebp
	ret	0
?_Get_first@?$_Compressed_pair@V?$allocator@UVector2D@@@std@@V?$_Vector_val@U?$_Simple_types@UVector2D@@@std@@@2@$00@std@@QAEAAV?$allocator@UVector2D@@@2@XZ ENDP ; std::_Compressed_pair<std::allocator<Vector2D>,std::_Vector_val<std::_Simple_types<Vector2D> >,1>::_Get_first
_TEXT	ENDS
; Function compile flags: /Odtp /RTCsu
; File c:\program files (x86)\microsoft visual studio\2017\enterprise\vc\tools\msvc\14.15.26726\include\vector
;	COMDAT ??0?$_Vector_val@U?$_Simple_types@UVector2D@@@std@@@std@@QAE@XZ
_TEXT	SEGMENT
_this$ = -4						; size = 4
??0?$_Vector_val@U?$_Simple_types@UVector2D@@@std@@@std@@QAE@XZ PROC ; std::_Vector_val<std::_Simple_types<Vector2D> >::_Vector_val<std::_Simple_types<Vector2D> >, COMDAT
; _this$ = ecx

; 392  : 		{	// initialize values

	push	ebp
	mov	ebp, esp
	push	ecx
	mov	DWORD PTR [ebp-4], -858993460		; ccccccccH
	mov	DWORD PTR _this$[ebp], ecx
	mov	ecx, DWORD PTR _this$[ebp]
	call	??0_Container_base12@std@@QAE@XZ	; std::_Container_base12::_Container_base12

; 389  : 		: _Myfirst(),

	mov	eax, DWORD PTR _this$[ebp]
	mov	DWORD PTR [eax+4], 0

; 390  : 		_Mylast(),

	mov	ecx, DWORD PTR _this$[ebp]
	mov	DWORD PTR [ecx+8], 0

; 391  : 		_Myend()

	mov	edx, DWORD PTR _this$[ebp]
	mov	DWORD PTR [edx+12], 0

; 393  : 		}

	mov	eax, DWORD PTR _this$[ebp]
	add	esp, 4
	cmp	ebp, esp
	call	__RTC_CheckEsp
	mov	esp, ebp
	pop	ebp
	ret	0
??0?$_Vector_val@U?$_Simple_types@UVector2D@@@std@@@std@@QAE@XZ ENDP ; std::_Vector_val<std::_Simple_types<Vector2D> >::_Vector_val<std::_Simple_types<Vector2D> >
_TEXT	ENDS
; Function compile flags: /Odtp /RTCsu
; File c:\program files (x86)\microsoft visual studio\2017\enterprise\vc\tools\msvc\14.15.26726\include\vector
;	COMDAT ?_Myend@?$_Vector_alloc@U?$_Vec_base_types@UVector2D@@V?$allocator@UVector2D@@@std@@@std@@@std@@QBEABQAUVector2D@@XZ
_TEXT	SEGMENT
_this$ = -4						; size = 4
?_Myend@?$_Vector_alloc@U?$_Vec_base_types@UVector2D@@V?$allocator@UVector2D@@@std@@@std@@@std@@QBEABQAUVector2D@@XZ PROC ; std::_Vector_alloc<std::_Vec_base_types<Vector2D,std::allocator<Vector2D> > >::_Myend, COMDAT
; _this$ = ecx

; 600  : 		{	// return const reference to _Myend

	push	ebp
	mov	ebp, esp
	push	ecx
	mov	DWORD PTR [ebp-4], -858993460		; ccccccccH
	mov	DWORD PTR _this$[ebp], ecx

; 601  : 		return (_Get_data()._Myend);

	mov	ecx, DWORD PTR _this$[ebp]
	call	?_Get_data@?$_Vector_alloc@U?$_Vec_base_types@UVector2D@@V?$allocator@UVector2D@@@std@@@std@@@std@@QBEABV?$_Vector_val@U?$_Simple_types@UVector2D@@@std@@@2@XZ ; std::_Vector_alloc<std::_Vec_base_types<Vector2D,std::allocator<Vector2D> > >::_Get_data
	add	eax, 12					; 0000000cH

; 602  : 		}

	add	esp, 4
	cmp	ebp, esp
	call	__RTC_CheckEsp
	mov	esp, ebp
	pop	ebp
	ret	0
?_Myend@?$_Vector_alloc@U?$_Vec_base_types@UVector2D@@V?$allocator@UVector2D@@@std@@@std@@@std@@QBEABQAUVector2D@@XZ ENDP ; std::_Vector_alloc<std::_Vec_base_types<Vector2D,std::allocator<Vector2D> > >::_Myend
_TEXT	ENDS
; Function compile flags: /Odtp /RTCsu
; File c:\program files (x86)\microsoft visual studio\2017\enterprise\vc\tools\msvc\14.15.26726\include\vector
;	COMDAT ?_Myend@?$_Vector_alloc@U?$_Vec_base_types@UVector2D@@V?$allocator@UVector2D@@@std@@@std@@@std@@QAEAAPAUVector2D@@XZ
_TEXT	SEGMENT
_this$ = -4						; size = 4
?_Myend@?$_Vector_alloc@U?$_Vec_base_types@UVector2D@@V?$allocator@UVector2D@@@std@@@std@@@std@@QAEAAPAUVector2D@@XZ PROC ; std::_Vector_alloc<std::_Vec_base_types<Vector2D,std::allocator<Vector2D> > >::_Myend, COMDAT
; _this$ = ecx

; 595  : 		{	// return reference to _Myend

	push	ebp
	mov	ebp, esp
	push	ecx
	mov	DWORD PTR [ebp-4], -858993460		; ccccccccH
	mov	DWORD PTR _this$[ebp], ecx

; 596  : 		return (_Get_data()._Myend);

	mov	ecx, DWORD PTR _this$[ebp]
	call	?_Get_data@?$_Vector_alloc@U?$_Vec_base_types@UVector2D@@V?$allocator@UVector2D@@@std@@@std@@@std@@QAEAAV?$_Vector_val@U?$_Simple_types@UVector2D@@@std@@@2@XZ ; std::_Vector_alloc<std::_Vec_base_types<Vector2D,std::allocator<Vector2D> > >::_Get_data
	add	eax, 12					; 0000000cH

; 597  : 		}

	add	esp, 4
	cmp	ebp, esp
	call	__RTC_CheckEsp
	mov	esp, ebp
	pop	ebp
	ret	0
?_Myend@?$_Vector_alloc@U?$_Vec_base_types@UVector2D@@V?$allocator@UVector2D@@@std@@@std@@@std@@QAEAAPAUVector2D@@XZ ENDP ; std::_Vector_alloc<std::_Vec_base_types<Vector2D,std::allocator<Vector2D> > >::_Myend
_TEXT	ENDS
; Function compile flags: /Odtp /RTCsu
; File c:\program files (x86)\microsoft visual studio\2017\enterprise\vc\tools\msvc\14.15.26726\include\vector
;	COMDAT ?_Mylast@?$_Vector_alloc@U?$_Vec_base_types@UVector2D@@V?$allocator@UVector2D@@@std@@@std@@@std@@QBEABQAUVector2D@@XZ
_TEXT	SEGMENT
_this$ = -4						; size = 4
?_Mylast@?$_Vector_alloc@U?$_Vec_base_types@UVector2D@@V?$allocator@UVector2D@@@std@@@std@@@std@@QBEABQAUVector2D@@XZ PROC ; std::_Vector_alloc<std::_Vec_base_types<Vector2D,std::allocator<Vector2D> > >::_Mylast, COMDAT
; _this$ = ecx

; 590  : 		{	// return const reference to _Mylast

	push	ebp
	mov	ebp, esp
	push	ecx
	mov	DWORD PTR [ebp-4], -858993460		; ccccccccH
	mov	DWORD PTR _this$[ebp], ecx

; 591  : 		return (_Get_data()._Mylast);

	mov	ecx, DWORD PTR _this$[ebp]
	call	?_Get_data@?$_Vector_alloc@U?$_Vec_base_types@UVector2D@@V?$allocator@UVector2D@@@std@@@std@@@std@@QBEABV?$_Vector_val@U?$_Simple_types@UVector2D@@@std@@@2@XZ ; std::_Vector_alloc<std::_Vec_base_types<Vector2D,std::allocator<Vector2D> > >::_Get_data
	add	eax, 8

; 592  : 		}

	add	esp, 4
	cmp	ebp, esp
	call	__RTC_CheckEsp
	mov	esp, ebp
	pop	ebp
	ret	0
?_Mylast@?$_Vector_alloc@U?$_Vec_base_types@UVector2D@@V?$allocator@UVector2D@@@std@@@std@@@std@@QBEABQAUVector2D@@XZ ENDP ; std::_Vector_alloc<std::_Vec_base_types<Vector2D,std::allocator<Vector2D> > >::_Mylast
_TEXT	ENDS
; Function compile flags: /Odtp /RTCsu
; File c:\program files (x86)\microsoft visual studio\2017\enterprise\vc\tools\msvc\14.15.26726\include\vector
;	COMDAT ?_Mylast@?$_Vector_alloc@U?$_Vec_base_types@UVector2D@@V?$allocator@UVector2D@@@std@@@std@@@std@@QAEAAPAUVector2D@@XZ
_TEXT	SEGMENT
_this$ = -4						; size = 4
?_Mylast@?$_Vector_alloc@U?$_Vec_base_types@UVector2D@@V?$allocator@UVector2D@@@std@@@std@@@std@@QAEAAPAUVector2D@@XZ PROC ; std::_Vector_alloc<std::_Vec_base_types<Vector2D,std::allocator<Vector2D> > >::_Mylast, COMDAT
; _this$ = ecx

; 585  : 		{	// return reference to _Mylast

	push	ebp
	mov	ebp, esp
	push	ecx
	mov	DWORD PTR [ebp-4], -858993460		; ccccccccH
	mov	DWORD PTR _this$[ebp], ecx

; 586  : 		return (_Get_data()._Mylast);

	mov	ecx, DWORD PTR _this$[ebp]
	call	?_Get_data@?$_Vector_alloc@U?$_Vec_base_types@UVector2D@@V?$allocator@UVector2D@@@std@@@std@@@std@@QAEAAV?$_Vector_val@U?$_Simple_types@UVector2D@@@std@@@2@XZ ; std::_Vector_alloc<std::_Vec_base_types<Vector2D,std::allocator<Vector2D> > >::_Get_data
	add	eax, 8

; 587  : 		}

	add	esp, 4
	cmp	ebp, esp
	call	__RTC_CheckEsp
	mov	esp, ebp
	pop	ebp
	ret	0
?_Mylast@?$_Vector_alloc@U?$_Vec_base_types@UVector2D@@V?$allocator@UVector2D@@@std@@@std@@@std@@QAEAAPAUVector2D@@XZ ENDP ; std::_Vector_alloc<std::_Vec_base_types<Vector2D,std::allocator<Vector2D> > >::_Mylast
_TEXT	ENDS
; Function compile flags: /Odtp /RTCsu
; File c:\program files (x86)\microsoft visual studio\2017\enterprise\vc\tools\msvc\14.15.26726\include\vector
;	COMDAT ?_Myfirst@?$_Vector_alloc@U?$_Vec_base_types@UVector2D@@V?$allocator@UVector2D@@@std@@@std@@@std@@QBEABQAUVector2D@@XZ
_TEXT	SEGMENT
_this$ = -4						; size = 4
?_Myfirst@?$_Vector_alloc@U?$_Vec_base_types@UVector2D@@V?$allocator@UVector2D@@@std@@@std@@@std@@QBEABQAUVector2D@@XZ PROC ; std::_Vector_alloc<std::_Vec_base_types<Vector2D,std::allocator<Vector2D> > >::_Myfirst, COMDAT
; _this$ = ecx

; 580  : 		{	// return const reference to _Myfirst

	push	ebp
	mov	ebp, esp
	push	ecx
	mov	DWORD PTR [ebp-4], -858993460		; ccccccccH
	mov	DWORD PTR _this$[ebp], ecx

; 581  : 		return (_Get_data()._Myfirst);

	mov	ecx, DWORD PTR _this$[ebp]
	call	?_Get_data@?$_Vector_alloc@U?$_Vec_base_types@UVector2D@@V?$allocator@UVector2D@@@std@@@std@@@std@@QBEABV?$_Vector_val@U?$_Simple_types@UVector2D@@@std@@@2@XZ ; std::_Vector_alloc<std::_Vec_base_types<Vector2D,std::allocator<Vector2D> > >::_Get_data
	add	eax, 4

; 582  : 		}

	add	esp, 4
	cmp	ebp, esp
	call	__RTC_CheckEsp
	mov	esp, ebp
	pop	ebp
	ret	0
?_Myfirst@?$_Vector_alloc@U?$_Vec_base_types@UVector2D@@V?$allocator@UVector2D@@@std@@@std@@@std@@QBEABQAUVector2D@@XZ ENDP ; std::_Vector_alloc<std::_Vec_base_types<Vector2D,std::allocator<Vector2D> > >::_Myfirst
_TEXT	ENDS
; Function compile flags: /Odtp /RTCsu
; File c:\program files (x86)\microsoft visual studio\2017\enterprise\vc\tools\msvc\14.15.26726\include\vector
;	COMDAT ?_Myfirst@?$_Vector_alloc@U?$_Vec_base_types@UVector2D@@V?$allocator@UVector2D@@@std@@@std@@@std@@QAEAAPAUVector2D@@XZ
_TEXT	SEGMENT
_this$ = -4						; size = 4
?_Myfirst@?$_Vector_alloc@U?$_Vec_base_types@UVector2D@@V?$allocator@UVector2D@@@std@@@std@@@std@@QAEAAPAUVector2D@@XZ PROC ; std::_Vector_alloc<std::_Vec_base_types<Vector2D,std::allocator<Vector2D> > >::_Myfirst, COMDAT
; _this$ = ecx

; 575  : 		{	// return reference to _Myfirst

	push	ebp
	mov	ebp, esp
	push	ecx
	mov	DWORD PTR [ebp-4], -858993460		; ccccccccH
	mov	DWORD PTR _this$[ebp], ecx

; 576  : 		return (_Get_data()._Myfirst);

	mov	ecx, DWORD PTR _this$[ebp]
	call	?_Get_data@?$_Vector_alloc@U?$_Vec_base_types@UVector2D@@V?$allocator@UVector2D@@@std@@@std@@@std@@QAEAAV?$_Vector_val@U?$_Simple_types@UVector2D@@@std@@@2@XZ ; std::_Vector_alloc<std::_Vec_base_types<Vector2D,std::allocator<Vector2D> > >::_Get_data
	add	eax, 4

; 577  : 		}

	add	esp, 4
	cmp	ebp, esp
	call	__RTC_CheckEsp
	mov	esp, ebp
	pop	ebp
	ret	0
?_Myfirst@?$_Vector_alloc@U?$_Vec_base_types@UVector2D@@V?$allocator@UVector2D@@@std@@@std@@@std@@QAEAAPAUVector2D@@XZ ENDP ; std::_Vector_alloc<std::_Vec_base_types<Vector2D,std::allocator<Vector2D> > >::_Myfirst
_TEXT	ENDS
; Function compile flags: /Odtp /RTCsu
; File c:\program files (x86)\microsoft visual studio\2017\enterprise\vc\tools\msvc\14.15.26726\include\vector
;	COMDAT ?_Get_data@?$_Vector_alloc@U?$_Vec_base_types@UVector2D@@V?$allocator@UVector2D@@@std@@@std@@@std@@QBEABV?$_Vector_val@U?$_Simple_types@UVector2D@@@std@@@2@XZ
_TEXT	SEGMENT
_this$ = -4						; size = 4
?_Get_data@?$_Vector_alloc@U?$_Vec_base_types@UVector2D@@V?$allocator@UVector2D@@@std@@@std@@@std@@QBEABV?$_Vector_val@U?$_Simple_types@UVector2D@@@std@@@2@XZ PROC ; std::_Vector_alloc<std::_Vec_base_types<Vector2D,std::allocator<Vector2D> > >::_Get_data, COMDAT
; _this$ = ecx

; 559  : 		{	// return const reference to _Vector_val

	push	ebp
	mov	ebp, esp
	push	ecx
	mov	DWORD PTR [ebp-4], -858993460		; ccccccccH
	mov	DWORD PTR _this$[ebp], ecx

; 560  : 		return (_Mypair._Get_second());

	mov	ecx, DWORD PTR _this$[ebp]
	call	?_Get_second@?$_Compressed_pair@V?$allocator@UVector2D@@@std@@V?$_Vector_val@U?$_Simple_types@UVector2D@@@std@@@2@$00@std@@QBEABV?$_Vector_val@U?$_Simple_types@UVector2D@@@std@@@2@XZ ; std::_Compressed_pair<std::allocator<Vector2D>,std::_Vector_val<std::_Simple_types<Vector2D> >,1>::_Get_second

; 561  : 		}

	add	esp, 4
	cmp	ebp, esp
	call	__RTC_CheckEsp
	mov	esp, ebp
	pop	ebp
	ret	0
?_Get_data@?$_Vector_alloc@U?$_Vec_base_types@UVector2D@@V?$allocator@UVector2D@@@std@@@std@@@std@@QBEABV?$_Vector_val@U?$_Simple_types@UVector2D@@@std@@@2@XZ ENDP ; std::_Vector_alloc<std::_Vec_base_types<Vector2D,std::allocator<Vector2D> > >::_Get_data
_TEXT	ENDS
; Function compile flags: /Odtp /RTCsu
; File c:\program files (x86)\microsoft visual studio\2017\enterprise\vc\tools\msvc\14.15.26726\include\vector
;	COMDAT ?_Get_data@?$_Vector_alloc@U?$_Vec_base_types@UVector2D@@V?$allocator@UVector2D@@@std@@@std@@@std@@QAEAAV?$_Vector_val@U?$_Simple_types@UVector2D@@@std@@@2@XZ
_TEXT	SEGMENT
_this$ = -4						; size = 4
?_Get_data@?$_Vector_alloc@U?$_Vec_base_types@UVector2D@@V?$allocator@UVector2D@@@std@@@std@@@std@@QAEAAV?$_Vector_val@U?$_Simple_types@UVector2D@@@std@@@2@XZ PROC ; std::_Vector_alloc<std::_Vec_base_types<Vector2D,std::allocator<Vector2D> > >::_Get_data, COMDAT
; _this$ = ecx

; 554  : 		{	// return reference to _Vector_val

	push	ebp
	mov	ebp, esp
	push	ecx
	mov	DWORD PTR [ebp-4], -858993460		; ccccccccH
	mov	DWORD PTR _this$[ebp], ecx

; 555  : 		return (_Mypair._Get_second());

	mov	ecx, DWORD PTR _this$[ebp]
	call	?_Get_second@?$_Compressed_pair@V?$allocator@UVector2D@@@std@@V?$_Vector_val@U?$_Simple_types@UVector2D@@@std@@@2@$00@std@@QAEAAV?$_Vector_val@U?$_Simple_types@UVector2D@@@std@@@2@XZ ; std::_Compressed_pair<std::allocator<Vector2D>,std::_Vector_val<std::_Simple_types<Vector2D> >,1>::_Get_second

; 556  : 		}

	add	esp, 4
	cmp	ebp, esp
	call	__RTC_CheckEsp
	mov	esp, ebp
	pop	ebp
	ret	0
?_Get_data@?$_Vector_alloc@U?$_Vec_base_types@UVector2D@@V?$allocator@UVector2D@@@std@@@std@@@std@@QAEAAV?$_Vector_val@U?$_Simple_types@UVector2D@@@std@@@2@XZ ENDP ; std::_Vector_alloc<std::_Vec_base_types<Vector2D,std::allocator<Vector2D> > >::_Get_data
_TEXT	ENDS
; Function compile flags: /Odtp /RTCsu
; File c:\program files (x86)\microsoft visual studio\2017\enterprise\vc\tools\msvc\14.15.26726\include\vector
;	COMDAT ?_Getal@?$_Vector_alloc@U?$_Vec_base_types@UVector2D@@V?$allocator@UVector2D@@@std@@@std@@@std@@QBEABV?$allocator@UVector2D@@@2@XZ
_TEXT	SEGMENT
_this$ = -4						; size = 4
?_Getal@?$_Vector_alloc@U?$_Vec_base_types@UVector2D@@V?$allocator@UVector2D@@@std@@@std@@@std@@QBEABV?$allocator@UVector2D@@@2@XZ PROC ; std::_Vector_alloc<std::_Vec_base_types<Vector2D,std::allocator<Vector2D> > >::_Getal, COMDAT
; _this$ = ecx

; 549  : 		{	// return const reference to allocator

	push	ebp
	mov	ebp, esp
	push	ecx
	mov	DWORD PTR [ebp-4], -858993460		; ccccccccH
	mov	DWORD PTR _this$[ebp], ecx

; 550  : 		return (_Mypair._Get_first());

	mov	ecx, DWORD PTR _this$[ebp]
	call	?_Get_first@?$_Compressed_pair@V?$allocator@UVector2D@@@std@@V?$_Vector_val@U?$_Simple_types@UVector2D@@@std@@@2@$00@std@@QBEABV?$allocator@UVector2D@@@2@XZ ; std::_Compressed_pair<std::allocator<Vector2D>,std::_Vector_val<std::_Simple_types<Vector2D> >,1>::_Get_first

; 551  : 		}

	add	esp, 4
	cmp	ebp, esp
	call	__RTC_CheckEsp
	mov	esp, ebp
	pop	ebp
	ret	0
?_Getal@?$_Vector_alloc@U?$_Vec_base_types@UVector2D@@V?$allocator@UVector2D@@@std@@@std@@@std@@QBEABV?$allocator@UVector2D@@@2@XZ ENDP ; std::_Vector_alloc<std::_Vec_base_types<Vector2D,std::allocator<Vector2D> > >::_Getal
_TEXT	ENDS
; Function compile flags: /Odtp /RTCsu
; File c:\program files (x86)\microsoft visual studio\2017\enterprise\vc\tools\msvc\14.15.26726\include\vector
;	COMDAT ?_Getal@?$_Vector_alloc@U?$_Vec_base_types@UVector2D@@V?$allocator@UVector2D@@@std@@@std@@@std@@QAEAAV?$allocator@UVector2D@@@2@XZ
_TEXT	SEGMENT
_this$ = -4						; size = 4
?_Getal@?$_Vector_alloc@U?$_Vec_base_types@UVector2D@@V?$allocator@UVector2D@@@std@@@std@@@std@@QAEAAV?$allocator@UVector2D@@@2@XZ PROC ; std::_Vector_alloc<std::_Vec_base_types<Vector2D,std::allocator<Vector2D> > >::_Getal, COMDAT
; _this$ = ecx

; 544  : 		{	// return reference to allocator

	push	ebp
	mov	ebp, esp
	push	ecx
	mov	DWORD PTR [ebp-4], -858993460		; ccccccccH
	mov	DWORD PTR _this$[ebp], ecx

; 545  : 		return (_Mypair._Get_first());

	mov	ecx, DWORD PTR _this$[ebp]
	call	?_Get_first@?$_Compressed_pair@V?$allocator@UVector2D@@@std@@V?$_Vector_val@U?$_Simple_types@UVector2D@@@std@@@2@$00@std@@QAEAAV?$allocator@UVector2D@@@2@XZ ; std::_Compressed_pair<std::allocator<Vector2D>,std::_Vector_val<std::_Simple_types<Vector2D> >,1>::_Get_first

; 546  : 		}

	add	esp, 4
	cmp	ebp, esp
	call	__RTC_CheckEsp
	mov	esp, ebp
	pop	ebp
	ret	0
?_Getal@?$_Vector_alloc@U?$_Vec_base_types@UVector2D@@V?$allocator@UVector2D@@@std@@@std@@@std@@QAEAAV?$allocator@UVector2D@@@2@XZ ENDP ; std::_Vector_alloc<std::_Vec_base_types<Vector2D,std::allocator<Vector2D> > >::_Getal
_TEXT	ENDS
; Function compile flags: /Odtp /RTCsu
; File c:\program files (x86)\microsoft visual studio\2017\enterprise\vc\tools\msvc\14.15.26726\include\vector
;	COMDAT ?_Swap_all@?$_Vector_alloc@U?$_Vec_base_types@UVector2D@@V?$allocator@UVector2D@@@std@@@std@@@std@@QAEXAAV12@@Z
_TEXT	SEGMENT
_this$ = -4						; size = 4
__Right$ = 8						; size = 4
?_Swap_all@?$_Vector_alloc@U?$_Vec_base_types@UVector2D@@V?$allocator@UVector2D@@@std@@@std@@@std@@QAEXAAV12@@Z PROC ; std::_Vector_alloc<std::_Vec_base_types<Vector2D,std::allocator<Vector2D> > >::_Swap_all, COMDAT
; _this$ = ecx

; 539  : 		{	// swap all iterators

	push	ebp
	mov	ebp, esp
	push	ecx
	mov	DWORD PTR [ebp-4], -858993460		; ccccccccH
	mov	DWORD PTR _this$[ebp], ecx

; 540  : 		_Get_data()._Swap_all(_Right._Get_data());

	mov	ecx, DWORD PTR __Right$[ebp]
	call	?_Get_data@?$_Vector_alloc@U?$_Vec_base_types@UVector2D@@V?$allocator@UVector2D@@@std@@@std@@@std@@QAEAAV?$_Vector_val@U?$_Simple_types@UVector2D@@@std@@@2@XZ ; std::_Vector_alloc<std::_Vec_base_types<Vector2D,std::allocator<Vector2D> > >::_Get_data
	push	eax
	mov	ecx, DWORD PTR _this$[ebp]
	call	?_Get_data@?$_Vector_alloc@U?$_Vec_base_types@UVector2D@@V?$allocator@UVector2D@@@std@@@std@@@std@@QAEAAV?$_Vector_val@U?$_Simple_types@UVector2D@@@std@@@2@XZ ; std::_Vector_alloc<std::_Vec_base_types<Vector2D,std::allocator<Vector2D> > >::_Get_data
	mov	ecx, eax
	call	?_Swap_all@_Container_base12@std@@QAEXAAU12@@Z ; std::_Container_base12::_Swap_all

; 541  : 		}

	add	esp, 4
	cmp	ebp, esp
	call	__RTC_CheckEsp
	mov	esp, ebp
	pop	ebp
	ret	4
?_Swap_all@?$_Vector_alloc@U?$_Vec_base_types@UVector2D@@V?$allocator@UVector2D@@@std@@@std@@@std@@QAEXAAV12@@Z ENDP ; std::_Vector_alloc<std::_Vec_base_types<Vector2D,std::allocator<Vector2D> > >::_Swap_all
_TEXT	ENDS
; Function compile flags: /Odtp /RTCsu
; File c:\program files (x86)\microsoft visual studio\2017\enterprise\vc\tools\msvc\14.15.26726\include\vector
;	COMDAT ?_Orphan_all@?$_Vector_alloc@U?$_Vec_base_types@UVector2D@@V?$allocator@UVector2D@@@std@@@std@@@std@@QAEXXZ
_TEXT	SEGMENT
_this$ = -4						; size = 4
?_Orphan_all@?$_Vector_alloc@U?$_Vec_base_types@UVector2D@@V?$allocator@UVector2D@@@std@@@std@@@std@@QAEXXZ PROC ; std::_Vector_alloc<std::_Vec_base_types<Vector2D,std::allocator<Vector2D> > >::_Orphan_all, COMDAT
; _this$ = ecx

; 534  : 		{	// orphan all iterators

	push	ebp
	mov	ebp, esp
	push	ecx
	mov	DWORD PTR [ebp-4], -858993460		; ccccccccH
	mov	DWORD PTR _this$[ebp], ecx

; 535  : 		_Get_data()._Orphan_all();

	mov	ecx, DWORD PTR _this$[ebp]
	call	?_Get_data@?$_Vector_alloc@U?$_Vec_base_types@UVector2D@@V?$allocator@UVector2D@@@std@@@std@@@std@@QAEAAV?$_Vector_val@U?$_Simple_types@UVector2D@@@std@@@2@XZ ; std::_Vector_alloc<std::_Vec_base_types<Vector2D,std::allocator<Vector2D> > >::_Get_data
	mov	ecx, eax
	call	?_Orphan_all@_Container_base12@std@@QAEXXZ ; std::_Container_base12::_Orphan_all

; 536  : 		}

	add	esp, 4
	cmp	ebp, esp
	call	__RTC_CheckEsp
	mov	esp, ebp
	pop	ebp
	ret	0
?_Orphan_all@?$_Vector_alloc@U?$_Vec_base_types@UVector2D@@V?$allocator@UVector2D@@@std@@@std@@@std@@QAEXXZ ENDP ; std::_Vector_alloc<std::_Vec_base_types<Vector2D,std::allocator<Vector2D> > >::_Orphan_all
_TEXT	ENDS
; Function compile flags: /Odtp /RTCsu
; File c:\program files (x86)\microsoft visual studio\2017\enterprise\vc\tools\msvc\14.15.26726\include\vector
;	COMDAT ?_Myproxy@?$_Vector_alloc@U?$_Vec_base_types@UVector2D@@V?$allocator@UVector2D@@@std@@@std@@@std@@QAEAAPAU_Container_proxy@2@XZ
_TEXT	SEGMENT
_this$ = -4						; size = 4
?_Myproxy@?$_Vector_alloc@U?$_Vec_base_types@UVector2D@@V?$allocator@UVector2D@@@std@@@std@@@std@@QAEAAPAU_Container_proxy@2@XZ PROC ; std::_Vector_alloc<std::_Vec_base_types<Vector2D,std::allocator<Vector2D> > >::_Myproxy, COMDAT
; _this$ = ecx

; 523  : 		{	// return reference to _Myproxy

	push	ebp
	mov	ebp, esp
	push	ecx
	mov	DWORD PTR [ebp-4], -858993460		; ccccccccH
	mov	DWORD PTR _this$[ebp], ecx

; 524  : 		return (_Get_data()._Myproxy);

	mov	ecx, DWORD PTR _this$[ebp]
	call	?_Get_data@?$_Vector_alloc@U?$_Vec_base_types@UVector2D@@V?$allocator@UVector2D@@@std@@@std@@@std@@QAEAAV?$_Vector_val@U?$_Simple_types@UVector2D@@@std@@@2@XZ ; std::_Vector_alloc<std::_Vec_base_types<Vector2D,std::allocator<Vector2D> > >::_Get_data

; 525  : 		}

	add	esp, 4
	cmp	ebp, esp
	call	__RTC_CheckEsp
	mov	esp, ebp
	pop	ebp
	ret	0
?_Myproxy@?$_Vector_alloc@U?$_Vec_base_types@UVector2D@@V?$allocator@UVector2D@@@std@@@std@@@std@@QAEAAPAU_Container_proxy@2@XZ ENDP ; std::_Vector_alloc<std::_Vec_base_types<Vector2D,std::allocator<Vector2D> > >::_Myproxy
_TEXT	ENDS
; Function compile flags: /Odtp /RTCsu
; File c:\program files (x86)\microsoft visual studio\2017\enterprise\vc\tools\msvc\14.15.26726\include\vector
;	COMDAT ?_Getpfirst@?$_Vector_alloc@U?$_Vec_base_types@UVector2D@@V?$allocator@UVector2D@@@std@@@std@@@std@@QBEPAPAU_Iterator_base12@2@XZ
_TEXT	SEGMENT
_this$ = -4						; size = 4
?_Getpfirst@?$_Vector_alloc@U?$_Vec_base_types@UVector2D@@V?$allocator@UVector2D@@@std@@@std@@@std@@QBEPAPAU_Iterator_base12@2@XZ PROC ; std::_Vector_alloc<std::_Vec_base_types<Vector2D,std::allocator<Vector2D> > >::_Getpfirst, COMDAT
; _this$ = ecx

; 518  : 		{	// get address of iterator chain

	push	ebp
	mov	ebp, esp
	push	ecx
	mov	DWORD PTR [ebp-4], -858993460		; ccccccccH
	mov	DWORD PTR _this$[ebp], ecx

; 519  : 		return (_Get_data()._Getpfirst());

	mov	ecx, DWORD PTR _this$[ebp]
	call	?_Get_data@?$_Vector_alloc@U?$_Vec_base_types@UVector2D@@V?$allocator@UVector2D@@@std@@@std@@@std@@QBEABV?$_Vector_val@U?$_Simple_types@UVector2D@@@std@@@2@XZ ; std::_Vector_alloc<std::_Vec_base_types<Vector2D,std::allocator<Vector2D> > >::_Get_data
	mov	ecx, eax
	call	?_Getpfirst@_Container_base12@std@@QBEPAPAU_Iterator_base12@2@XZ ; std::_Container_base12::_Getpfirst

; 520  : 		}

	add	esp, 4
	cmp	ebp, esp
	call	__RTC_CheckEsp
	mov	esp, ebp
	pop	ebp
	ret	0
?_Getpfirst@?$_Vector_alloc@U?$_Vec_base_types@UVector2D@@V?$allocator@UVector2D@@@std@@@std@@@std@@QBEPAPAU_Iterator_base12@2@XZ ENDP ; std::_Vector_alloc<std::_Vec_base_types<Vector2D,std::allocator<Vector2D> > >::_Getpfirst
_TEXT	ENDS
; Function compile flags: /Odtp /RTCsu
; File c:\program files (x86)\microsoft visual studio\2017\enterprise\vc\tools\msvc\14.15.26726\include\vector
;	COMDAT ?_Free_proxy@?$_Vector_alloc@U?$_Vec_base_types@UVector2D@@V?$allocator@UVector2D@@@std@@@std@@@std@@QAEXXZ
_TEXT	SEGMENT
__Proxy_allocator$ = -9					; size = 1
_this$ = -4						; size = 4
?_Free_proxy@?$_Vector_alloc@U?$_Vec_base_types@UVector2D@@V?$allocator@UVector2D@@@std@@@std@@@std@@QAEXXZ PROC ; std::_Vector_alloc<std::_Vec_base_types<Vector2D,std::allocator<Vector2D> > >::_Free_proxy, COMDAT
; _this$ = ecx

; 509  : 		{	// destroy proxy

	push	ebp
	mov	ebp, esp
	sub	esp, 16					; 00000010H
	mov	eax, -858993460				; ccccccccH
	mov	DWORD PTR [ebp-16], eax
	mov	DWORD PTR [ebp-12], eax
	mov	DWORD PTR [ebp-8], eax
	mov	DWORD PTR [ebp-4], eax
	mov	DWORD PTR _this$[ebp], ecx

; 510  : 		_Alproxy _Proxy_allocator(_Getal());

	mov	ecx, DWORD PTR _this$[ebp]
	call	?_Getal@?$_Vector_alloc@U?$_Vec_base_types@UVector2D@@V?$allocator@UVector2D@@@std@@@std@@@std@@QAEAAV?$allocator@UVector2D@@@2@XZ ; std::_Vector_alloc<std::_Vec_base_types<Vector2D,std::allocator<Vector2D> > >::_Getal
	push	eax
	lea	ecx, DWORD PTR __Proxy_allocator$[ebp]
	call	??$?0UVector2D@@@?$allocator@U_Container_proxy@std@@@std@@QAE@ABV?$allocator@UVector2D@@@1@@Z ; std::allocator<std::_Container_proxy>::allocator<std::_Container_proxy><Vector2D>

; 511  : 		_Orphan_all();

	mov	ecx, DWORD PTR _this$[ebp]
	call	?_Orphan_all@?$_Vector_alloc@U?$_Vec_base_types@UVector2D@@V?$allocator@UVector2D@@@std@@@std@@@std@@QAEXXZ ; std::_Vector_alloc<std::_Vec_base_types<Vector2D,std::allocator<Vector2D> > >::_Orphan_all

; 512  : 		_Alproxy_traits::destroy(_Proxy_allocator, _Myproxy());

	mov	ecx, DWORD PTR _this$[ebp]
	call	?_Myproxy@?$_Vector_alloc@U?$_Vec_base_types@UVector2D@@V?$allocator@UVector2D@@@std@@@std@@@std@@QAEAAPAU_Container_proxy@2@XZ ; std::_Vector_alloc<std::_Vec_base_types<Vector2D,std::allocator<Vector2D> > >::_Myproxy
	mov	eax, DWORD PTR [eax]
	push	eax
	lea	ecx, DWORD PTR __Proxy_allocator$[ebp]
	push	ecx
	call	??$destroy@U_Container_proxy@std@@@?$_Default_allocator_traits@V?$allocator@U_Container_proxy@std@@@std@@@std@@SAXAAV?$allocator@U_Container_proxy@std@@@1@QAU_Container_proxy@1@@Z ; std::_Default_allocator_traits<std::allocator<std::_Container_proxy> >::destroy<std::_Container_proxy>
	add	esp, 8

; 513  : 		_Deallocate_plain(_Proxy_allocator, _Myproxy());

	mov	ecx, DWORD PTR _this$[ebp]
	call	?_Myproxy@?$_Vector_alloc@U?$_Vec_base_types@UVector2D@@V?$allocator@UVector2D@@@std@@@std@@@std@@QAEAAPAU_Container_proxy@2@XZ ; std::_Vector_alloc<std::_Vec_base_types<Vector2D,std::allocator<Vector2D> > >::_Myproxy
	mov	edx, DWORD PTR [eax]
	push	edx
	lea	eax, DWORD PTR __Proxy_allocator$[ebp]
	push	eax
	call	??$_Deallocate_plain@V?$allocator@U_Container_proxy@std@@@std@@$0A@@std@@YAXAAV?$allocator@U_Container_proxy@std@@@0@QAU_Container_proxy@0@@Z ; std::_Deallocate_plain<std::allocator<std::_Container_proxy>,0>
	add	esp, 8

; 514  : 		_Myproxy() = nullptr;

	mov	ecx, DWORD PTR _this$[ebp]
	call	?_Myproxy@?$_Vector_alloc@U?$_Vec_base_types@UVector2D@@V?$allocator@UVector2D@@@std@@@std@@@std@@QAEAAPAU_Container_proxy@2@XZ ; std::_Vector_alloc<std::_Vec_base_types<Vector2D,std::allocator<Vector2D> > >::_Myproxy
	mov	DWORD PTR [eax], 0

; 515  : 		}

	push	edx
	mov	ecx, ebp
	push	eax
	lea	edx, DWORD PTR $LN5@Free_proxy
	call	@_RTC_CheckStackVars@8
	pop	eax
	pop	edx
	add	esp, 16					; 00000010H
	cmp	ebp, esp
	call	__RTC_CheckEsp
	mov	esp, ebp
	pop	ebp
	ret	0
	npad	2
$LN5@Free_proxy:
	DD	1
	DD	$LN4@Free_proxy
$LN4@Free_proxy:
	DD	-9					; fffffff7H
	DD	1
	DD	$LN3@Free_proxy
$LN3@Free_proxy:
	DB	95					; 0000005fH
	DB	80					; 00000050H
	DB	114					; 00000072H
	DB	111					; 0000006fH
	DB	120					; 00000078H
	DB	121					; 00000079H
	DB	95					; 0000005fH
	DB	97					; 00000061H
	DB	108					; 0000006cH
	DB	108					; 0000006cH
	DB	111					; 0000006fH
	DB	99					; 00000063H
	DB	97					; 00000061H
	DB	116					; 00000074H
	DB	111					; 0000006fH
	DB	114					; 00000072H
	DB	0
?_Free_proxy@?$_Vector_alloc@U?$_Vec_base_types@UVector2D@@V?$allocator@UVector2D@@@std@@@std@@@std@@QAEXXZ ENDP ; std::_Vector_alloc<std::_Vec_base_types<Vector2D,std::allocator<Vector2D> > >::_Free_proxy
_TEXT	ENDS
; Function compile flags: /Odtp /RTCsu
; File c:\program files (x86)\microsoft visual studio\2017\enterprise\vc\tools\msvc\14.15.26726\include\vector
;	COMDAT ?_Alloc_proxy@?$_Vector_alloc@U?$_Vec_base_types@UVector2D@@V?$allocator@UVector2D@@@std@@@std@@@std@@QAEXXZ
_TEXT	SEGMENT
$T1 = -24						; size = 8
__Proxy_allocator$ = -9					; size = 1
_this$ = -4						; size = 4
?_Alloc_proxy@?$_Vector_alloc@U?$_Vec_base_types@UVector2D@@V?$allocator@UVector2D@@@std@@@std@@@std@@QAEXXZ PROC ; std::_Vector_alloc<std::_Vec_base_types<Vector2D,std::allocator<Vector2D> > >::_Alloc_proxy, COMDAT
; _this$ = ecx

; 501  : 		{	// construct proxy

	push	ebp
	mov	ebp, esp
	sub	esp, 24					; 00000018H
	push	esi
	mov	eax, -858993460				; ccccccccH
	mov	DWORD PTR [ebp-24], eax
	mov	DWORD PTR [ebp-20], eax
	mov	DWORD PTR [ebp-16], eax
	mov	DWORD PTR [ebp-12], eax
	mov	DWORD PTR [ebp-8], eax
	mov	DWORD PTR [ebp-4], eax
	mov	DWORD PTR _this$[ebp], ecx

; 502  : 		_Alproxy _Proxy_allocator(_Getal());

	mov	ecx, DWORD PTR _this$[ebp]
	call	?_Getal@?$_Vector_alloc@U?$_Vec_base_types@UVector2D@@V?$allocator@UVector2D@@@std@@@std@@@std@@QAEAAV?$allocator@UVector2D@@@2@XZ ; std::_Vector_alloc<std::_Vec_base_types<Vector2D,std::allocator<Vector2D> > >::_Getal
	push	eax
	lea	ecx, DWORD PTR __Proxy_allocator$[ebp]
	call	??$?0UVector2D@@@?$allocator@U_Container_proxy@std@@@std@@QAE@ABV?$allocator@UVector2D@@@1@@Z ; std::allocator<std::_Container_proxy>::allocator<std::_Container_proxy><Vector2D>

; 503  : 		_Myproxy() = _Unfancy(_Proxy_allocator.allocate(1));

	push	1
	lea	ecx, DWORD PTR __Proxy_allocator$[ebp]
	call	?allocate@?$allocator@U_Container_proxy@std@@@std@@QAEPAU_Container_proxy@2@I@Z ; std::allocator<std::_Container_proxy>::allocate
	push	eax
	call	??$_Unfancy@U_Container_proxy@std@@@std@@YAPAU_Container_proxy@0@PAU10@@Z ; std::_Unfancy<std::_Container_proxy>
	add	esp, 4
	mov	esi, eax
	mov	ecx, DWORD PTR _this$[ebp]
	call	?_Myproxy@?$_Vector_alloc@U?$_Vec_base_types@UVector2D@@V?$allocator@UVector2D@@@std@@@std@@@std@@QAEAAPAU_Container_proxy@2@XZ ; std::_Vector_alloc<std::_Vec_base_types<Vector2D,std::allocator<Vector2D> > >::_Myproxy
	mov	DWORD PTR [eax], esi

; 504  : 		_Alproxy_traits::construct(_Proxy_allocator, _Myproxy(), _Container_proxy());

	lea	ecx, DWORD PTR $T1[ebp]
	call	??0_Container_proxy@std@@QAE@XZ		; std::_Container_proxy::_Container_proxy
	push	eax
	mov	ecx, DWORD PTR _this$[ebp]
	call	?_Myproxy@?$_Vector_alloc@U?$_Vec_base_types@UVector2D@@V?$allocator@UVector2D@@@std@@@std@@@std@@QAEAAPAU_Container_proxy@2@XZ ; std::_Vector_alloc<std::_Vec_base_types<Vector2D,std::allocator<Vector2D> > >::_Myproxy
	mov	eax, DWORD PTR [eax]
	push	eax
	lea	ecx, DWORD PTR __Proxy_allocator$[ebp]
	push	ecx
	call	??$construct@U_Container_proxy@std@@U12@@?$_Default_allocator_traits@V?$allocator@U_Container_proxy@std@@@std@@@std@@SAXAAV?$allocator@U_Container_proxy@std@@@1@QAU_Container_proxy@1@$$QAU31@@Z ; std::_Default_allocator_traits<std::allocator<std::_Container_proxy> >::construct<std::_Container_proxy,std::_Container_proxy>
	add	esp, 12					; 0000000cH

; 505  : 		_Myproxy()->_Mycont = _STD addressof(_Get_data());

	mov	ecx, DWORD PTR _this$[ebp]
	call	?_Get_data@?$_Vector_alloc@U?$_Vec_base_types@UVector2D@@V?$allocator@UVector2D@@@std@@@std@@@std@@QAEAAV?$_Vector_val@U?$_Simple_types@UVector2D@@@std@@@2@XZ ; std::_Vector_alloc<std::_Vec_base_types<Vector2D,std::allocator<Vector2D> > >::_Get_data
	push	eax
	call	??$addressof@V?$_Vector_val@U?$_Simple_types@UVector2D@@@std@@@std@@@std@@YAPAV?$_Vector_val@U?$_Simple_types@UVector2D@@@std@@@0@AAV10@@Z ; std::addressof<std::_Vector_val<std::_Simple_types<Vector2D> > >
	add	esp, 4
	mov	esi, eax
	mov	ecx, DWORD PTR _this$[ebp]
	call	?_Myproxy@?$_Vector_alloc@U?$_Vec_base_types@UVector2D@@V?$allocator@UVector2D@@@std@@@std@@@std@@QAEAAPAU_Container_proxy@2@XZ ; std::_Vector_alloc<std::_Vec_base_types<Vector2D,std::allocator<Vector2D> > >::_Myproxy
	mov	edx, DWORD PTR [eax]
	mov	DWORD PTR [edx], esi

; 506  : 		}

	push	edx
	mov	ecx, ebp
	push	eax
	lea	edx, DWORD PTR $LN5@Alloc_prox
	call	@_RTC_CheckStackVars@8
	pop	eax
	pop	edx
	pop	esi
	add	esp, 24					; 00000018H
	cmp	ebp, esp
	call	__RTC_CheckEsp
	mov	esp, ebp
	pop	ebp
	ret	0
$LN5@Alloc_prox:
	DD	1
	DD	$LN4@Alloc_prox
$LN4@Alloc_prox:
	DD	-9					; fffffff7H
	DD	1
	DD	$LN3@Alloc_prox
$LN3@Alloc_prox:
	DB	95					; 0000005fH
	DB	80					; 00000050H
	DB	114					; 00000072H
	DB	111					; 0000006fH
	DB	120					; 00000078H
	DB	121					; 00000079H
	DB	95					; 0000005fH
	DB	97					; 00000061H
	DB	108					; 0000006cH
	DB	108					; 0000006cH
	DB	111					; 0000006fH
	DB	99					; 00000063H
	DB	97					; 00000061H
	DB	116					; 00000074H
	DB	111					; 0000006fH
	DB	114					; 00000072H
	DB	0
?_Alloc_proxy@?$_Vector_alloc@U?$_Vec_base_types@UVector2D@@V?$allocator@UVector2D@@@std@@@std@@@std@@QAEXXZ ENDP ; std::_Vector_alloc<std::_Vec_base_types<Vector2D,std::allocator<Vector2D> > >::_Alloc_proxy
_TEXT	ENDS
; Function compile flags: /Odtp /RTCsu
; File c:\program files (x86)\microsoft visual studio\2017\enterprise\vc\tools\msvc\14.15.26726\include\vector
;	COMDAT ?_Move_alloc@?$_Vector_alloc@U?$_Vec_base_types@UVector2D@@V?$allocator@UVector2D@@@std@@@std@@@std@@QAEXAAV?$allocator@UVector2D@@@2@@Z
_TEXT	SEGMENT
tv72 = -6						; size = 1
__Reload$ = -5						; size = 1
_this$ = -4						; size = 4
__Al$ = 8						; size = 4
?_Move_alloc@?$_Vector_alloc@U?$_Vec_base_types@UVector2D@@V?$allocator@UVector2D@@@std@@@std@@@std@@QAEXAAV?$allocator@UVector2D@@@2@@Z PROC ; std::_Vector_alloc<std::_Vec_base_types<Vector2D,std::allocator<Vector2D> > >::_Move_alloc, COMDAT
; _this$ = ecx

; 483  : 		{	// replace old allocator

	push	ebp
	mov	ebp, esp
	sub	esp, 8
	mov	DWORD PTR [ebp-8], -858993460		; ccccccccH
	mov	DWORD PTR [ebp-4], -858993460		; ccccccccH
	mov	DWORD PTR _this$[ebp], ecx

; 484  : 		const bool _Reload = _Alty_traits::propagate_on_container_move_assignment::value
; 485  : 			&& _Getal() != _Al;

	mov	eax, 1
	test	eax, eax
	je	SHORT $LN5@Move_alloc
	mov	ecx, DWORD PTR __Al$[ebp]
	push	ecx
	mov	ecx, DWORD PTR _this$[ebp]
	call	?_Getal@?$_Vector_alloc@U?$_Vec_base_types@UVector2D@@V?$allocator@UVector2D@@@std@@@std@@@std@@QAEAAV?$allocator@UVector2D@@@2@XZ ; std::_Vector_alloc<std::_Vec_base_types<Vector2D,std::allocator<Vector2D> > >::_Getal
	push	eax
	call	??$?9UVector2D@@U0@@std@@YA_NABV?$allocator@UVector2D@@@0@0@Z ; std::operator!=<Vector2D,Vector2D>
	add	esp, 8
	movzx	edx, al
	test	edx, edx
	je	SHORT $LN5@Move_alloc
	mov	BYTE PTR tv72[ebp], 1
	jmp	SHORT $LN6@Move_alloc
$LN5@Move_alloc:
	mov	BYTE PTR tv72[ebp], 0
$LN6@Move_alloc:
	mov	al, BYTE PTR tv72[ebp]
	mov	BYTE PTR __Reload$[ebp], al

; 486  : 
; 487  : 		if (_Reload)

	movzx	ecx, BYTE PTR __Reload$[ebp]
	test	ecx, ecx
	je	SHORT $LN2@Move_alloc

; 488  : 			{
; 489  : 			_Free_proxy();

	mov	ecx, DWORD PTR _this$[ebp]
	call	?_Free_proxy@?$_Vector_alloc@U?$_Vec_base_types@UVector2D@@V?$allocator@UVector2D@@@std@@@std@@@std@@QAEXXZ ; std::_Vector_alloc<std::_Vec_base_types<Vector2D,std::allocator<Vector2D> > >::_Free_proxy
$LN2@Move_alloc:

; 490  : 			}
; 491  : 
; 492  : 		_Pocma(_Getal(), _Al);

	mov	edx, DWORD PTR __Al$[ebp]
	push	edx
	mov	ecx, DWORD PTR _this$[ebp]
	call	?_Getal@?$_Vector_alloc@U?$_Vec_base_types@UVector2D@@V?$allocator@UVector2D@@@std@@@std@@@std@@QAEAAV?$allocator@UVector2D@@@2@XZ ; std::_Vector_alloc<std::_Vec_base_types<Vector2D,std::allocator<Vector2D> > >::_Getal
	push	eax
	call	??$_Pocma@V?$allocator@UVector2D@@@std@@@std@@YAXAAV?$allocator@UVector2D@@@0@0@Z ; std::_Pocma<std::allocator<Vector2D> >
	add	esp, 8

; 493  : 
; 494  : 		if (_Reload)

	movzx	eax, BYTE PTR __Reload$[ebp]
	test	eax, eax
	je	SHORT $LN1@Move_alloc

; 495  : 			{
; 496  : 			_Alloc_proxy();

	mov	ecx, DWORD PTR _this$[ebp]
	call	?_Alloc_proxy@?$_Vector_alloc@U?$_Vec_base_types@UVector2D@@V?$allocator@UVector2D@@@std@@@std@@@std@@QAEXXZ ; std::_Vector_alloc<std::_Vec_base_types<Vector2D,std::allocator<Vector2D> > >::_Alloc_proxy
$LN1@Move_alloc:

; 497  : 			}
; 498  : 		}

	add	esp, 8
	cmp	ebp, esp
	call	__RTC_CheckEsp
	mov	esp, ebp
	pop	ebp
	ret	4
?_Move_alloc@?$_Vector_alloc@U?$_Vec_base_types@UVector2D@@V?$allocator@UVector2D@@@std@@@std@@@std@@QAEXAAV?$allocator@UVector2D@@@2@@Z ENDP ; std::_Vector_alloc<std::_Vec_base_types<Vector2D,std::allocator<Vector2D> > >::_Move_alloc
_TEXT	ENDS
; Function compile flags: /Odtp /RTCsu
; File c:\program files (x86)\microsoft visual studio\2017\enterprise\vc\tools\msvc\14.15.26726\include\vector
;	COMDAT ??1?$_Vector_alloc@U?$_Vec_base_types@UVector2D@@V?$allocator@UVector2D@@@std@@@std@@@std@@QAE@XZ
_TEXT	SEGMENT
_this$ = -16						; size = 4
__$EHRec$ = -12						; size = 12
??1?$_Vector_alloc@U?$_Vec_base_types@UVector2D@@V?$allocator@UVector2D@@@std@@@std@@@std@@QAE@XZ PROC ; std::_Vector_alloc<std::_Vec_base_types<Vector2D,std::allocator<Vector2D> > >::~_Vector_alloc<std::_Vec_base_types<Vector2D,std::allocator<Vector2D> > >, COMDAT
; _this$ = ecx

; 460  : 		{	// destroy proxy

	push	ebp
	mov	ebp, esp
	push	-1
	push	__ehhandler$??1?$_Vector_alloc@U?$_Vec_base_types@UVector2D@@V?$allocator@UVector2D@@@std@@@std@@@std@@QAE@XZ
	mov	eax, DWORD PTR fs:0
	push	eax
	push	ecx
	mov	DWORD PTR [ebp-16], -858993460		; ccccccccH
	mov	eax, DWORD PTR ___security_cookie
	xor	eax, ebp
	push	eax
	lea	eax, DWORD PTR __$EHRec$[ebp]
	mov	DWORD PTR fs:0, eax
	mov	DWORD PTR _this$[ebp], ecx

; 461  : 		_Free_proxy();

	mov	ecx, DWORD PTR _this$[ebp]
	call	?_Free_proxy@?$_Vector_alloc@U?$_Vec_base_types@UVector2D@@V?$allocator@UVector2D@@@std@@@std@@@std@@QAEXXZ ; std::_Vector_alloc<std::_Vec_base_types<Vector2D,std::allocator<Vector2D> > >::_Free_proxy

; 462  : 		}

	mov	ecx, DWORD PTR __$EHRec$[ebp]
	mov	DWORD PTR fs:0, ecx
	pop	ecx
	add	esp, 16					; 00000010H
	cmp	ebp, esp
	call	__RTC_CheckEsp
	mov	esp, ebp
	pop	ebp
	ret	0
_TEXT	ENDS
;	COMDAT text$x
text$x	SEGMENT
__ehhandler$??1?$_Vector_alloc@U?$_Vec_base_types@UVector2D@@V?$allocator@UVector2D@@@std@@@std@@@std@@QAE@XZ:
	mov	edx, DWORD PTR [esp+8]
	lea	eax, DWORD PTR [edx+12]
	mov	ecx, DWORD PTR [edx-8]
	xor	ecx, eax
	call	@__security_check_cookie@4
	mov	eax, OFFSET __ehfuncinfo$??1?$_Vector_alloc@U?$_Vec_base_types@UVector2D@@V?$allocator@UVector2D@@@std@@@std@@@std@@QAE@XZ
	jmp	___CxxFrameHandler3
text$x	ENDS
??1?$_Vector_alloc@U?$_Vec_base_types@UVector2D@@V?$allocator@UVector2D@@@std@@@std@@@std@@QAE@XZ ENDP ; std::_Vector_alloc<std::_Vec_base_types<Vector2D,std::allocator<Vector2D> > >::~_Vector_alloc<std::_Vec_base_types<Vector2D,std::allocator<Vector2D> > >
; Function compile flags: /Odtp /RTCsu
; File c:\program files (x86)\microsoft visual studio\2017\enterprise\vc\tools\msvc\14.15.26726\include\vector
;	COMDAT ??0?$_Vector_alloc@U?$_Vec_base_types@UVector2D@@V?$allocator@UVector2D@@@std@@@std@@@std@@QAE@XZ
_TEXT	SEGMENT
$T1 = -5						; size = 1
_this$ = -4						; size = 4
??0?$_Vector_alloc@U?$_Vec_base_types@UVector2D@@V?$allocator@UVector2D@@@std@@@std@@@std@@QAE@XZ PROC ; std::_Vector_alloc<std::_Vec_base_types<Vector2D,std::allocator<Vector2D> > >::_Vector_alloc<std::_Vec_base_types<Vector2D,std::allocator<Vector2D> > >, COMDAT
; _this$ = ecx

; 446  : 		{	// default construct allocator

	push	ebp
	mov	ebp, esp
	sub	esp, 8
	mov	DWORD PTR [ebp-8], -858993460		; ccccccccH
	mov	DWORD PTR [ebp-4], -858993460		; ccccccccH
	mov	DWORD PTR _this$[ebp], ecx

; 445  : 		: _Mypair(_Zero_then_variadic_args_t())

	movzx	eax, BYTE PTR $T1[ebp]
	push	eax
	mov	ecx, DWORD PTR _this$[ebp]
	call	??$?0$$V@?$_Compressed_pair@V?$allocator@UVector2D@@@std@@V?$_Vector_val@U?$_Simple_types@UVector2D@@@std@@@2@$00@std@@QAE@U_Zero_then_variadic_args_t@1@@Z ; std::_Compressed_pair<std::allocator<Vector2D>,std::_Vector_val<std::_Simple_types<Vector2D> >,1>::_Compressed_pair<std::allocator<Vector2D>,std::_Vector_val<std::_Simple_types<Vector2D> >,1><>

; 447  : 		_Alloc_proxy();

	mov	ecx, DWORD PTR _this$[ebp]
	call	?_Alloc_proxy@?$_Vector_alloc@U?$_Vec_base_types@UVector2D@@V?$allocator@UVector2D@@@std@@@std@@@std@@QAEXXZ ; std::_Vector_alloc<std::_Vec_base_types<Vector2D,std::allocator<Vector2D> > >::_Alloc_proxy

; 448  : 		}

	mov	eax, DWORD PTR _this$[ebp]
	add	esp, 8
	cmp	ebp, esp
	call	__RTC_CheckEsp
	mov	esp, ebp
	pop	ebp
	ret	0
??0?$_Vector_alloc@U?$_Vec_base_types@UVector2D@@V?$allocator@UVector2D@@@std@@@std@@@std@@QAE@XZ ENDP ; std::_Vector_alloc<std::_Vec_base_types<Vector2D,std::allocator<Vector2D> > >::_Vector_alloc<std::_Vec_base_types<Vector2D,std::allocator<Vector2D> > >
_TEXT	ENDS
; Function compile flags: /Odtp /RTCsu
; File c:\program files (x86)\microsoft visual studio\2017\enterprise\vc\tools\msvc\14.15.26726\include\xmemory0
;	COMDAT ?select_on_container_copy_construction@?$_Default_allocator_traits@V?$allocator@UVector2D@@@std@@@std@@SA?AV?$allocator@UVector2D@@@2@ABV32@@Z
_TEXT	SEGMENT
___$ReturnUdt$ = 8					; size = 4
__Al$ = 12						; size = 4
?select_on_container_copy_construction@?$_Default_allocator_traits@V?$allocator@UVector2D@@@std@@@std@@SA?AV?$allocator@UVector2D@@@2@ABV32@@Z PROC ; std::_Default_allocator_traits<std::allocator<Vector2D> >::select_on_container_copy_construction, COMDAT

; 896  : 		{	// get allocator to use

	push	ebp
	mov	ebp, esp

; 897  : 		return (_Al);

	mov	eax, DWORD PTR ___$ReturnUdt$[ebp]

; 898  : 		}

	pop	ebp
	ret	0
?select_on_container_copy_construction@?$_Default_allocator_traits@V?$allocator@UVector2D@@@std@@@std@@SA?AV?$allocator@UVector2D@@@2@ABV32@@Z ENDP ; std::_Default_allocator_traits<std::allocator<Vector2D> >::select_on_container_copy_construction
_TEXT	ENDS
; Function compile flags: /Odtp /RTCsu
; File c:\program files (x86)\microsoft visual studio\2017\enterprise\vc\tools\msvc\14.15.26726\include\xmemory0
;	COMDAT ?max_size@?$_Default_allocator_traits@V?$allocator@UVector2D@@@std@@@std@@SAIABV?$allocator@UVector2D@@@2@@Z
_TEXT	SEGMENT
___formal$ = 8						; size = 4
?max_size@?$_Default_allocator_traits@V?$allocator@UVector2D@@@std@@@std@@SAIABV?$allocator@UVector2D@@@2@@Z PROC ; std::_Default_allocator_traits<std::allocator<Vector2D> >::max_size, COMDAT

; 891  : 		{	// get maximum size

	push	ebp
	mov	ebp, esp

; 892  : 		return (static_cast<size_t>(-1) / sizeof(value_type));

	mov	eax, 268435455				; 0fffffffH

; 893  : 		}

	pop	ebp
	ret	0
?max_size@?$_Default_allocator_traits@V?$allocator@UVector2D@@@std@@@std@@SAIABV?$allocator@UVector2D@@@2@@Z ENDP ; std::_Default_allocator_traits<std::allocator<Vector2D> >::max_size
_TEXT	ENDS
; Function compile flags: /Odtp /RTCsu
; File c:\program files (x86)\microsoft visual studio\2017\enterprise\vc\tools\msvc\14.15.26726\include\xmemory0
;	COMDAT ?allocate@?$allocator@UVector2D@@@std@@QAEPAUVector2D@@I@Z
_TEXT	SEGMENT
_this$ = -4						; size = 4
__Count$ = 8						; size = 4
?allocate@?$allocator@UVector2D@@@std@@QAEPAUVector2D@@I@Z PROC ; std::allocator<Vector2D>::allocate, COMDAT
; _this$ = ecx

; 996  : 		{	// allocate array of _Count elements

	push	ebp
	mov	ebp, esp
	push	ecx
	mov	DWORD PTR [ebp-4], -858993460		; ccccccccH
	mov	DWORD PTR _this$[ebp], ecx

; 997  : 		return (static_cast<_Ty *>(_Allocate<_New_alignof<_Ty>>(_Get_size_of_n<sizeof(_Ty)>(_Count))));

	mov	eax, DWORD PTR __Count$[ebp]
	push	eax
	call	??$_Get_size_of_n@$0BA@@std@@YAII@Z	; std::_Get_size_of_n<16>
	add	esp, 4
	push	eax
	call	??$_Allocate@$07U_Default_allocate_traits@std@@$0A@@std@@YAPAXI@Z ; std::_Allocate<8,std::_Default_allocate_traits,0>
	add	esp, 4

; 998  : 		}

	add	esp, 4
	cmp	ebp, esp
	call	__RTC_CheckEsp
	mov	esp, ebp
	pop	ebp
	ret	4
?allocate@?$allocator@UVector2D@@@std@@QAEPAUVector2D@@I@Z ENDP ; std::allocator<Vector2D>::allocate
_TEXT	ENDS
; Function compile flags: /Odtp /RTCsu
; File c:\program files (x86)\microsoft visual studio\2017\enterprise\vc\tools\msvc\14.15.26726\include\xmemory0
;	COMDAT ?deallocate@?$allocator@UVector2D@@@std@@QAEXQAUVector2D@@I@Z
_TEXT	SEGMENT
_this$ = -4						; size = 4
__Ptr$ = 8						; size = 4
__Count$ = 12						; size = 4
?deallocate@?$allocator@UVector2D@@@std@@QAEXQAUVector2D@@I@Z PROC ; std::allocator<Vector2D>::deallocate, COMDAT
; _this$ = ecx

; 990  : 		{	// deallocate object at _Ptr

	push	ebp
	mov	ebp, esp
	push	ecx
	mov	DWORD PTR [ebp-4], -858993460		; ccccccccH
	mov	DWORD PTR _this$[ebp], ecx

; 991  : 		// no overflow check on the following multiply; we assume _Allocate did that check
; 992  : 		_Deallocate<_New_alignof<_Ty>>(_Ptr, sizeof(_Ty) * _Count);

	mov	eax, DWORD PTR __Count$[ebp]
	shl	eax, 4
	push	eax
	mov	ecx, DWORD PTR __Ptr$[ebp]
	push	ecx
	call	??$_Deallocate@$07$0A@@std@@YAXPAXI@Z	; std::_Deallocate<8,0>
	add	esp, 8

; 993  : 		}

	add	esp, 4
	cmp	ebp, esp
	call	__RTC_CheckEsp
	mov	esp, ebp
	pop	ebp
	ret	8
?deallocate@?$allocator@UVector2D@@@std@@QAEXQAUVector2D@@I@Z ENDP ; std::allocator<Vector2D>::deallocate
_TEXT	ENDS
; Function compile flags: /Odtp /RTCsu
; File c:\program files (x86)\microsoft visual studio\2017\enterprise\vc\tools\msvc\14.15.26726\include\xmemory0
;	COMDAT ??0?$allocator@UVector2D@@@std@@QAE@XZ
_TEXT	SEGMENT
_this$ = -4						; size = 4
??0?$allocator@UVector2D@@@std@@QAE@XZ PROC		; std::allocator<Vector2D>::allocator<Vector2D>, COMDAT
; _this$ = ecx

; 979  : 	constexpr allocator() noexcept

	push	ebp
	mov	ebp, esp
	push	ecx
	mov	DWORD PTR [ebp-4], -858993460		; ccccccccH
	mov	DWORD PTR _this$[ebp], ecx

; 980  : 		{	// construct default allocator (do nothing)
; 981  : 		}

	mov	eax, DWORD PTR _this$[ebp]
	mov	esp, ebp
	pop	ebp
	ret	0
??0?$allocator@UVector2D@@@std@@QAE@XZ ENDP		; std::allocator<Vector2D>::allocator<Vector2D>
_TEXT	ENDS
; Function compile flags: /Odtp /RTCsu
; File d:\utilisateurs\samuel\mes documents\cours\uqac\ia\ravenproject\common\2d\c2dmatrix.h
;	COMDAT ?TransformVector2Ds@C2DMatrix@@QAEXAAV?$vector@UVector2D@@V?$allocator@UVector2D@@@std@@@std@@@Z
_TEXT	SEGMENT
tv173 = -40						; size = 8
tv171 = -32						; size = 8
_tempY$1 = -24						; size = 8
_tempX$2 = -16						; size = 8
_i$3 = -8						; size = 4
_this$ = -4						; size = 4
_vPoint$ = 8						; size = 4
?TransformVector2Ds@C2DMatrix@@QAEXAAV?$vector@UVector2D@@V?$allocator@UVector2D@@@std@@@std@@@Z PROC ; C2DMatrix::TransformVector2Ds, COMDAT
; _this$ = ecx

; 109  : {

	push	ebp
	mov	ebp, esp
	sub	esp, 40					; 00000028H
	push	edi
	push	ecx
	lea	edi, DWORD PTR [ebp-40]
	mov	ecx, 10					; 0000000aH
	mov	eax, -858993460				; ccccccccH
	rep stosd
	pop	ecx
	mov	DWORD PTR _this$[ebp], ecx

; 110  : 	for (unsigned int i = 0; i < vPoint.size(); ++i)

	mov	DWORD PTR _i$3[ebp], 0
	jmp	SHORT $LN4@TransformV
$LN2@TransformV:
	mov	eax, DWORD PTR _i$3[ebp]
	add	eax, 1
	mov	DWORD PTR _i$3[ebp], eax
$LN4@TransformV:
	mov	ecx, DWORD PTR _vPoint$[ebp]
	call	?size@?$vector@UVector2D@@V?$allocator@UVector2D@@@std@@@std@@QBEIXZ ; std::vector<Vector2D,std::allocator<Vector2D> >::size
	cmp	DWORD PTR _i$3[ebp], eax
	jae	$LN3@TransformV

; 111  : 	{
; 112  : 		double tempX = (m_Matrix._11*vPoint[i].x) + (m_Matrix._21*vPoint[i].y) + (m_Matrix._31);

	mov	ecx, DWORD PTR _i$3[ebp]
	push	ecx
	mov	ecx, DWORD PTR _vPoint$[ebp]
	call	??A?$vector@UVector2D@@V?$allocator@UVector2D@@@std@@@std@@QAEAAUVector2D@@I@Z ; std::vector<Vector2D,std::allocator<Vector2D> >::operator[]
	mov	edx, DWORD PTR _this$[ebp]
	movsd	xmm0, QWORD PTR [edx]
	mulsd	xmm0, QWORD PTR [eax]
	mov	eax, DWORD PTR _i$3[ebp]
	push	eax
	mov	ecx, DWORD PTR _vPoint$[ebp]
	movsd	QWORD PTR tv171[ebp], xmm0
	call	??A?$vector@UVector2D@@V?$allocator@UVector2D@@@std@@@std@@QAEAAUVector2D@@I@Z ; std::vector<Vector2D,std::allocator<Vector2D> >::operator[]
	mov	ecx, DWORD PTR _this$[ebp]
	movsd	xmm0, QWORD PTR [ecx+24]
	mulsd	xmm0, QWORD PTR [eax+8]
	movsd	xmm1, QWORD PTR tv171[ebp]
	addsd	xmm1, xmm0
	mov	edx, DWORD PTR _this$[ebp]
	addsd	xmm1, QWORD PTR [edx+48]
	movsd	QWORD PTR _tempX$2[ebp], xmm1

; 113  : 
; 114  : 		double tempY = (m_Matrix._12*vPoint[i].x) + (m_Matrix._22*vPoint[i].y) + (m_Matrix._32);

	mov	eax, DWORD PTR _i$3[ebp]
	push	eax
	mov	ecx, DWORD PTR _vPoint$[ebp]
	call	??A?$vector@UVector2D@@V?$allocator@UVector2D@@@std@@@std@@QAEAAUVector2D@@I@Z ; std::vector<Vector2D,std::allocator<Vector2D> >::operator[]
	mov	ecx, DWORD PTR _this$[ebp]
	movsd	xmm0, QWORD PTR [ecx+8]
	mulsd	xmm0, QWORD PTR [eax]
	mov	edx, DWORD PTR _i$3[ebp]
	push	edx
	mov	ecx, DWORD PTR _vPoint$[ebp]
	movsd	QWORD PTR tv173[ebp], xmm0
	call	??A?$vector@UVector2D@@V?$allocator@UVector2D@@@std@@@std@@QAEAAUVector2D@@I@Z ; std::vector<Vector2D,std::allocator<Vector2D> >::operator[]
	mov	ecx, DWORD PTR _this$[ebp]
	movsd	xmm0, QWORD PTR [ecx+32]
	mulsd	xmm0, QWORD PTR [eax+8]
	movsd	xmm1, QWORD PTR tv173[ebp]
	addsd	xmm1, xmm0
	mov	edx, DWORD PTR _this$[ebp]
	addsd	xmm1, QWORD PTR [edx+56]
	movsd	QWORD PTR _tempY$1[ebp], xmm1

; 115  : 
; 116  : 		vPoint[i].x = tempX;

	mov	eax, DWORD PTR _i$3[ebp]
	push	eax
	mov	ecx, DWORD PTR _vPoint$[ebp]
	call	??A?$vector@UVector2D@@V?$allocator@UVector2D@@@std@@@std@@QAEAAUVector2D@@I@Z ; std::vector<Vector2D,std::allocator<Vector2D> >::operator[]
	movsd	xmm0, QWORD PTR _tempX$2[ebp]
	movsd	QWORD PTR [eax], xmm0

; 117  : 
; 118  : 		vPoint[i].y = tempY;

	mov	ecx, DWORD PTR _i$3[ebp]
	push	ecx
	mov	ecx, DWORD PTR _vPoint$[ebp]
	call	??A?$vector@UVector2D@@V?$allocator@UVector2D@@@std@@@std@@QAEAAUVector2D@@I@Z ; std::vector<Vector2D,std::allocator<Vector2D> >::operator[]
	movsd	xmm0, QWORD PTR _tempY$1[ebp]
	movsd	QWORD PTR [eax+8], xmm0

; 119  : 	}

	jmp	$LN2@TransformV
$LN3@TransformV:

; 120  : }

	pop	edi
	add	esp, 40					; 00000028H
	cmp	ebp, esp
	call	__RTC_CheckEsp
	mov	esp, ebp
	pop	ebp
	ret	4
?TransformVector2Ds@C2DMatrix@@QAEXAAV?$vector@UVector2D@@V?$allocator@UVector2D@@@std@@@std@@@Z ENDP ; C2DMatrix::TransformVector2Ds
_TEXT	ENDS
; Function compile flags: /Odtp /RTCsu
; File d:\utilisateurs\samuel\mes documents\cours\uqac\ia\ravenproject\common\2d\c2dmatrix.h
;	COMDAT ?Rotate@C2DMatrix@@QAEXABUVector2D@@0@Z
_TEXT	SEGMENT
_mat$ = -80						; size = 72
_this$ = -4						; size = 4
_fwd$ = 8						; size = 4
_side$ = 12						; size = 4
?Rotate@C2DMatrix@@QAEXABUVector2D@@0@Z PROC		; C2DMatrix::Rotate, COMDAT
; _this$ = ecx

; 194  : {

	push	ebp
	mov	ebp, esp
	sub	esp, 84					; 00000054H
	push	edi
	push	ecx
	lea	edi, DWORD PTR [ebp-84]
	mov	ecx, 21					; 00000015H
	mov	eax, -858993460				; ccccccccH
	rep stosd
	pop	ecx
	mov	DWORD PTR _this$[ebp], ecx

; 195  : 	C2DMatrix::Matrix mat;

	lea	ecx, DWORD PTR _mat$[ebp]
	call	??0Matrix@C2DMatrix@@QAE@XZ		; C2DMatrix::Matrix::Matrix

; 196  : 
; 197  : 	mat._11 = fwd.x;  mat._12 = fwd.y; mat._13 = 0;

	mov	eax, DWORD PTR _fwd$[ebp]
	movsd	xmm0, QWORD PTR [eax]
	movsd	QWORD PTR _mat$[ebp], xmm0
	mov	ecx, DWORD PTR _fwd$[ebp]
	movsd	xmm0, QWORD PTR [ecx+8]
	movsd	QWORD PTR _mat$[ebp+8], xmm0
	xorps	xmm0, xmm0
	movsd	QWORD PTR _mat$[ebp+16], xmm0

; 198  : 
; 199  : 	mat._21 = side.x; mat._22 = side.y; mat._23 = 0;

	mov	edx, DWORD PTR _side$[ebp]
	movsd	xmm0, QWORD PTR [edx]
	movsd	QWORD PTR _mat$[ebp+24], xmm0
	mov	eax, DWORD PTR _side$[ebp]
	movsd	xmm0, QWORD PTR [eax+8]
	movsd	QWORD PTR _mat$[ebp+32], xmm0
	xorps	xmm0, xmm0
	movsd	QWORD PTR _mat$[ebp+40], xmm0

; 200  : 
; 201  : 	mat._31 = 0; mat._32 = 0; mat._33 = 1;

	xorps	xmm0, xmm0
	movsd	QWORD PTR _mat$[ebp+48], xmm0
	xorps	xmm0, xmm0
	movsd	QWORD PTR _mat$[ebp+56], xmm0
	movsd	xmm0, QWORD PTR __real@3ff0000000000000
	movsd	QWORD PTR _mat$[ebp+64], xmm0

; 202  : 
; 203  : 	//and multiply
; 204  : 	MatrixMultiply(mat);

	lea	ecx, DWORD PTR _mat$[ebp]
	push	ecx
	mov	ecx, DWORD PTR _this$[ebp]
	call	?MatrixMultiply@C2DMatrix@@AAEXAAUMatrix@1@@Z ; C2DMatrix::MatrixMultiply

; 205  : }

	push	edx
	mov	ecx, ebp
	push	eax
	lea	edx, DWORD PTR $LN5@Rotate
	call	@_RTC_CheckStackVars@8
	pop	eax
	pop	edx
	pop	edi
	add	esp, 84					; 00000054H
	cmp	ebp, esp
	call	__RTC_CheckEsp
	mov	esp, ebp
	pop	ebp
	ret	8
$LN5@Rotate:
	DD	1
	DD	$LN4@Rotate
$LN4@Rotate:
	DD	-80					; ffffffb0H
	DD	72					; 00000048H
	DD	$LN3@Rotate
$LN3@Rotate:
	DB	109					; 0000006dH
	DB	97					; 00000061H
	DB	116					; 00000074H
	DB	0
?Rotate@C2DMatrix@@QAEXABUVector2D@@0@Z ENDP		; C2DMatrix::Rotate
_TEXT	ENDS
; Function compile flags: /Odtp /RTCsu
; File d:\utilisateurs\samuel\mes documents\cours\uqac\ia\ravenproject\common\2d\c2dmatrix.h
;	COMDAT ?Scale@C2DMatrix@@QAEXNN@Z
_TEXT	SEGMENT
_mat$ = -80						; size = 72
_this$ = -4						; size = 4
_xScale$ = 8						; size = 8
_yScale$ = 16						; size = 8
?Scale@C2DMatrix@@QAEXNN@Z PROC				; C2DMatrix::Scale, COMDAT
; _this$ = ecx

; 161  : {

	push	ebp
	mov	ebp, esp
	sub	esp, 84					; 00000054H
	push	edi
	push	ecx
	lea	edi, DWORD PTR [ebp-84]
	mov	ecx, 21					; 00000015H
	mov	eax, -858993460				; ccccccccH
	rep stosd
	pop	ecx
	mov	DWORD PTR _this$[ebp], ecx

; 162  : 	C2DMatrix::Matrix mat;

	lea	ecx, DWORD PTR _mat$[ebp]
	call	??0Matrix@C2DMatrix@@QAE@XZ		; C2DMatrix::Matrix::Matrix

; 163  : 
; 164  : 	mat._11 = xScale; mat._12 = 0; mat._13 = 0;

	movsd	xmm0, QWORD PTR _xScale$[ebp]
	movsd	QWORD PTR _mat$[ebp], xmm0
	xorps	xmm0, xmm0
	movsd	QWORD PTR _mat$[ebp+8], xmm0
	xorps	xmm0, xmm0
	movsd	QWORD PTR _mat$[ebp+16], xmm0

; 165  : 
; 166  : 	mat._21 = 0; mat._22 = yScale; mat._23 = 0;

	xorps	xmm0, xmm0
	movsd	QWORD PTR _mat$[ebp+24], xmm0
	movsd	xmm0, QWORD PTR _yScale$[ebp]
	movsd	QWORD PTR _mat$[ebp+32], xmm0
	xorps	xmm0, xmm0
	movsd	QWORD PTR _mat$[ebp+40], xmm0

; 167  : 
; 168  : 	mat._31 = 0; mat._32 = 0; mat._33 = 1;

	xorps	xmm0, xmm0
	movsd	QWORD PTR _mat$[ebp+48], xmm0
	xorps	xmm0, xmm0
	movsd	QWORD PTR _mat$[ebp+56], xmm0
	movsd	xmm0, QWORD PTR __real@3ff0000000000000
	movsd	QWORD PTR _mat$[ebp+64], xmm0

; 169  : 
; 170  : 	//and multiply
; 171  : 	MatrixMultiply(mat);

	lea	eax, DWORD PTR _mat$[ebp]
	push	eax
	mov	ecx, DWORD PTR _this$[ebp]
	call	?MatrixMultiply@C2DMatrix@@AAEXAAUMatrix@1@@Z ; C2DMatrix::MatrixMultiply

; 172  : }

	push	edx
	mov	ecx, ebp
	push	eax
	lea	edx, DWORD PTR $LN5@Scale
	call	@_RTC_CheckStackVars@8
	pop	eax
	pop	edx
	pop	edi
	add	esp, 84					; 00000054H
	cmp	ebp, esp
	call	__RTC_CheckEsp
	mov	esp, ebp
	pop	ebp
	ret	16					; 00000010H
	npad	2
$LN5@Scale:
	DD	1
	DD	$LN4@Scale
$LN4@Scale:
	DD	-80					; ffffffb0H
	DD	72					; 00000048H
	DD	$LN3@Scale
$LN3@Scale:
	DB	109					; 0000006dH
	DB	97					; 00000061H
	DB	116					; 00000074H
	DB	0
?Scale@C2DMatrix@@QAEXNN@Z ENDP				; C2DMatrix::Scale
_TEXT	ENDS
; Function compile flags: /Odtp /RTCsu
; File d:\utilisateurs\samuel\mes documents\cours\uqac\ia\ravenproject\common\2d\c2dmatrix.h
;	COMDAT ?Translate@C2DMatrix@@QAEXNN@Z
_TEXT	SEGMENT
_mat$ = -80						; size = 72
_this$ = -4						; size = 4
_x$ = 8							; size = 8
_y$ = 16						; size = 8
?Translate@C2DMatrix@@QAEXNN@Z PROC			; C2DMatrix::Translate, COMDAT
; _this$ = ecx

; 146  : {

	push	ebp
	mov	ebp, esp
	sub	esp, 84					; 00000054H
	push	edi
	push	ecx
	lea	edi, DWORD PTR [ebp-84]
	mov	ecx, 21					; 00000015H
	mov	eax, -858993460				; ccccccccH
	rep stosd
	pop	ecx
	mov	DWORD PTR _this$[ebp], ecx

; 147  : 	Matrix mat;

	lea	ecx, DWORD PTR _mat$[ebp]
	call	??0Matrix@C2DMatrix@@QAE@XZ		; C2DMatrix::Matrix::Matrix

; 148  : 
; 149  : 	mat._11 = 1; mat._12 = 0; mat._13 = 0;

	movsd	xmm0, QWORD PTR __real@3ff0000000000000
	movsd	QWORD PTR _mat$[ebp], xmm0
	xorps	xmm0, xmm0
	movsd	QWORD PTR _mat$[ebp+8], xmm0
	xorps	xmm0, xmm0
	movsd	QWORD PTR _mat$[ebp+16], xmm0

; 150  : 
; 151  : 	mat._21 = 0; mat._22 = 1; mat._23 = 0;

	xorps	xmm0, xmm0
	movsd	QWORD PTR _mat$[ebp+24], xmm0
	movsd	xmm0, QWORD PTR __real@3ff0000000000000
	movsd	QWORD PTR _mat$[ebp+32], xmm0
	xorps	xmm0, xmm0
	movsd	QWORD PTR _mat$[ebp+40], xmm0

; 152  : 
; 153  : 	mat._31 = x;    mat._32 = y;    mat._33 = 1;

	movsd	xmm0, QWORD PTR _x$[ebp]
	movsd	QWORD PTR _mat$[ebp+48], xmm0
	movsd	xmm0, QWORD PTR _y$[ebp]
	movsd	QWORD PTR _mat$[ebp+56], xmm0
	movsd	xmm0, QWORD PTR __real@3ff0000000000000
	movsd	QWORD PTR _mat$[ebp+64], xmm0

; 154  : 
; 155  : 	//and multiply
; 156  : 	MatrixMultiply(mat);

	lea	eax, DWORD PTR _mat$[ebp]
	push	eax
	mov	ecx, DWORD PTR _this$[ebp]
	call	?MatrixMultiply@C2DMatrix@@AAEXAAUMatrix@1@@Z ; C2DMatrix::MatrixMultiply

; 157  : }

	push	edx
	mov	ecx, ebp
	push	eax
	lea	edx, DWORD PTR $LN5@Translate
	call	@_RTC_CheckStackVars@8
	pop	eax
	pop	edx
	pop	edi
	add	esp, 84					; 00000054H
	cmp	ebp, esp
	call	__RTC_CheckEsp
	mov	esp, ebp
	pop	ebp
	ret	16					; 00000010H
$LN5@Translate:
	DD	1
	DD	$LN4@Translate
$LN4@Translate:
	DD	-80					; ffffffb0H
	DD	72					; 00000048H
	DD	$LN3@Translate
$LN3@Translate:
	DB	109					; 0000006dH
	DB	97					; 00000061H
	DB	116					; 00000074H
	DB	0
?Translate@C2DMatrix@@QAEXNN@Z ENDP			; C2DMatrix::Translate
_TEXT	ENDS
; Function compile flags: /Odtp /RTCsu
; File d:\utilisateurs\samuel\mes documents\cours\uqac\ia\ravenproject\common\2d\c2dmatrix.h
;	COMDAT ?Identity@C2DMatrix@@QAEXXZ
_TEXT	SEGMENT
_this$ = -4						; size = 4
?Identity@C2DMatrix@@QAEXXZ PROC			; C2DMatrix::Identity, COMDAT
; _this$ = ecx

; 136  : {

	push	ebp
	mov	ebp, esp
	push	ecx
	mov	DWORD PTR [ebp-4], -858993460		; ccccccccH
	mov	DWORD PTR _this$[ebp], ecx

; 137  : 	m_Matrix._11 = 1; m_Matrix._12 = 0; m_Matrix._13 = 0;

	mov	eax, DWORD PTR _this$[ebp]
	movsd	xmm0, QWORD PTR __real@3ff0000000000000
	movsd	QWORD PTR [eax], xmm0
	mov	ecx, DWORD PTR _this$[ebp]
	xorps	xmm0, xmm0
	movsd	QWORD PTR [ecx+8], xmm0
	mov	edx, DWORD PTR _this$[ebp]
	xorps	xmm0, xmm0
	movsd	QWORD PTR [edx+16], xmm0

; 138  : 
; 139  : 	m_Matrix._21 = 0; m_Matrix._22 = 1; m_Matrix._23 = 0;

	mov	eax, DWORD PTR _this$[ebp]
	xorps	xmm0, xmm0
	movsd	QWORD PTR [eax+24], xmm0
	mov	ecx, DWORD PTR _this$[ebp]
	movsd	xmm0, QWORD PTR __real@3ff0000000000000
	movsd	QWORD PTR [ecx+32], xmm0
	mov	edx, DWORD PTR _this$[ebp]
	xorps	xmm0, xmm0
	movsd	QWORD PTR [edx+40], xmm0

; 140  : 
; 141  : 	m_Matrix._31 = 0; m_Matrix._32 = 0; m_Matrix._33 = 1;

	mov	eax, DWORD PTR _this$[ebp]
	xorps	xmm0, xmm0
	movsd	QWORD PTR [eax+48], xmm0
	mov	ecx, DWORD PTR _this$[ebp]
	xorps	xmm0, xmm0
	movsd	QWORD PTR [ecx+56], xmm0
	mov	edx, DWORD PTR _this$[ebp]
	movsd	xmm0, QWORD PTR __real@3ff0000000000000
	movsd	QWORD PTR [edx+64], xmm0

; 142  : }

	mov	esp, ebp
	pop	ebp
	ret	0
?Identity@C2DMatrix@@QAEXXZ ENDP			; C2DMatrix::Identity
_TEXT	ENDS
; Function compile flags: /Odtp /RTCsu
; File d:\utilisateurs\samuel\mes documents\cours\uqac\ia\ravenproject\common\2d\c2dmatrix.h
;	COMDAT ??0C2DMatrix@@QAE@XZ
_TEXT	SEGMENT
_this$ = -4						; size = 4
??0C2DMatrix@@QAE@XZ PROC				; C2DMatrix::C2DMatrix, COMDAT
; _this$ = ecx

; 43   : 	C2DMatrix()

	push	ebp
	mov	ebp, esp
	push	ecx
	mov	DWORD PTR [ebp-4], -858993460		; ccccccccH
	mov	DWORD PTR _this$[ebp], ecx
	mov	ecx, DWORD PTR _this$[ebp]
	call	??0Matrix@C2DMatrix@@QAE@XZ		; C2DMatrix::Matrix::Matrix

; 44   : 	{
; 45   : 		//initialize the matrix to an identity matrix
; 46   : 		Identity();

	mov	ecx, DWORD PTR _this$[ebp]
	call	?Identity@C2DMatrix@@QAEXXZ		; C2DMatrix::Identity

; 47   : 	}

	mov	eax, DWORD PTR _this$[ebp]
	add	esp, 4
	cmp	ebp, esp
	call	__RTC_CheckEsp
	mov	esp, ebp
	pop	ebp
	ret	0
??0C2DMatrix@@QAE@XZ ENDP				; C2DMatrix::C2DMatrix
_TEXT	ENDS
; Function compile flags: /Odtp /RTCsu
; File d:\utilisateurs\samuel\mes documents\cours\uqac\ia\ravenproject\common\2d\c2dmatrix.h
;	COMDAT ?MatrixMultiply@C2DMatrix@@AAEXAAUMatrix@1@@Z
_TEXT	SEGMENT
_mat_temp$ = -80					; size = 72
_this$ = -4						; size = 4
_mIn$ = 8						; size = 4
?MatrixMultiply@C2DMatrix@@AAEXAAUMatrix@1@@Z PROC	; C2DMatrix::MatrixMultiply, COMDAT
; _this$ = ecx

; 86   : {

	push	ebp
	mov	ebp, esp
	sub	esp, 84					; 00000054H
	push	esi
	push	edi
	push	ecx
	lea	edi, DWORD PTR [ebp-84]
	mov	ecx, 21					; 00000015H
	mov	eax, -858993460				; ccccccccH
	rep stosd
	pop	ecx
	mov	DWORD PTR _this$[ebp], ecx

; 87   : 	C2DMatrix::Matrix mat_temp;

	lea	ecx, DWORD PTR _mat_temp$[ebp]
	call	??0Matrix@C2DMatrix@@QAE@XZ		; C2DMatrix::Matrix::Matrix

; 88   : 
; 89   : 	//first row
; 90   : 	mat_temp._11 = (m_Matrix._11*mIn._11) + (m_Matrix._12*mIn._21) + (m_Matrix._13*mIn._31);

	mov	eax, DWORD PTR _this$[ebp]
	mov	ecx, DWORD PTR _mIn$[ebp]
	movsd	xmm0, QWORD PTR [eax]
	mulsd	xmm0, QWORD PTR [ecx]
	mov	edx, DWORD PTR _this$[ebp]
	mov	eax, DWORD PTR _mIn$[ebp]
	movsd	xmm1, QWORD PTR [edx+8]
	mulsd	xmm1, QWORD PTR [eax+24]
	addsd	xmm0, xmm1
	mov	ecx, DWORD PTR _this$[ebp]
	mov	edx, DWORD PTR _mIn$[ebp]
	movsd	xmm1, QWORD PTR [ecx+16]
	mulsd	xmm1, QWORD PTR [edx+48]
	addsd	xmm0, xmm1
	movsd	QWORD PTR _mat_temp$[ebp], xmm0

; 91   : 	mat_temp._12 = (m_Matrix._11*mIn._12) + (m_Matrix._12*mIn._22) + (m_Matrix._13*mIn._32);

	mov	eax, DWORD PTR _this$[ebp]
	mov	ecx, DWORD PTR _mIn$[ebp]
	movsd	xmm0, QWORD PTR [eax]
	mulsd	xmm0, QWORD PTR [ecx+8]
	mov	edx, DWORD PTR _this$[ebp]
	mov	eax, DWORD PTR _mIn$[ebp]
	movsd	xmm1, QWORD PTR [edx+8]
	mulsd	xmm1, QWORD PTR [eax+32]
	addsd	xmm0, xmm1
	mov	ecx, DWORD PTR _this$[ebp]
	mov	edx, DWORD PTR _mIn$[ebp]
	movsd	xmm1, QWORD PTR [ecx+16]
	mulsd	xmm1, QWORD PTR [edx+56]
	addsd	xmm0, xmm1
	movsd	QWORD PTR _mat_temp$[ebp+8], xmm0

; 92   : 	mat_temp._13 = (m_Matrix._11*mIn._13) + (m_Matrix._12*mIn._23) + (m_Matrix._13*mIn._33);

	mov	eax, DWORD PTR _this$[ebp]
	mov	ecx, DWORD PTR _mIn$[ebp]
	movsd	xmm0, QWORD PTR [eax]
	mulsd	xmm0, QWORD PTR [ecx+16]
	mov	edx, DWORD PTR _this$[ebp]
	mov	eax, DWORD PTR _mIn$[ebp]
	movsd	xmm1, QWORD PTR [edx+8]
	mulsd	xmm1, QWORD PTR [eax+40]
	addsd	xmm0, xmm1
	mov	ecx, DWORD PTR _this$[ebp]
	mov	edx, DWORD PTR _mIn$[ebp]
	movsd	xmm1, QWORD PTR [ecx+16]
	mulsd	xmm1, QWORD PTR [edx+64]
	addsd	xmm0, xmm1
	movsd	QWORD PTR _mat_temp$[ebp+16], xmm0

; 93   : 
; 94   : 	//second
; 95   : 	mat_temp._21 = (m_Matrix._21*mIn._11) + (m_Matrix._22*mIn._21) + (m_Matrix._23*mIn._31);

	mov	eax, DWORD PTR _this$[ebp]
	mov	ecx, DWORD PTR _mIn$[ebp]
	movsd	xmm0, QWORD PTR [eax+24]
	mulsd	xmm0, QWORD PTR [ecx]
	mov	edx, DWORD PTR _this$[ebp]
	mov	eax, DWORD PTR _mIn$[ebp]
	movsd	xmm1, QWORD PTR [edx+32]
	mulsd	xmm1, QWORD PTR [eax+24]
	addsd	xmm0, xmm1
	mov	ecx, DWORD PTR _this$[ebp]
	mov	edx, DWORD PTR _mIn$[ebp]
	movsd	xmm1, QWORD PTR [ecx+40]
	mulsd	xmm1, QWORD PTR [edx+48]
	addsd	xmm0, xmm1
	movsd	QWORD PTR _mat_temp$[ebp+24], xmm0

; 96   : 	mat_temp._22 = (m_Matrix._21*mIn._12) + (m_Matrix._22*mIn._22) + (m_Matrix._23*mIn._32);

	mov	eax, DWORD PTR _this$[ebp]
	mov	ecx, DWORD PTR _mIn$[ebp]
	movsd	xmm0, QWORD PTR [eax+24]
	mulsd	xmm0, QWORD PTR [ecx+8]
	mov	edx, DWORD PTR _this$[ebp]
	mov	eax, DWORD PTR _mIn$[ebp]
	movsd	xmm1, QWORD PTR [edx+32]
	mulsd	xmm1, QWORD PTR [eax+32]
	addsd	xmm0, xmm1
	mov	ecx, DWORD PTR _this$[ebp]
	mov	edx, DWORD PTR _mIn$[ebp]
	movsd	xmm1, QWORD PTR [ecx+40]
	mulsd	xmm1, QWORD PTR [edx+56]
	addsd	xmm0, xmm1
	movsd	QWORD PTR _mat_temp$[ebp+32], xmm0

; 97   : 	mat_temp._23 = (m_Matrix._21*mIn._13) + (m_Matrix._22*mIn._23) + (m_Matrix._23*mIn._33);

	mov	eax, DWORD PTR _this$[ebp]
	mov	ecx, DWORD PTR _mIn$[ebp]
	movsd	xmm0, QWORD PTR [eax+24]
	mulsd	xmm0, QWORD PTR [ecx+16]
	mov	edx, DWORD PTR _this$[ebp]
	mov	eax, DWORD PTR _mIn$[ebp]
	movsd	xmm1, QWORD PTR [edx+32]
	mulsd	xmm1, QWORD PTR [eax+40]
	addsd	xmm0, xmm1
	mov	ecx, DWORD PTR _this$[ebp]
	mov	edx, DWORD PTR _mIn$[ebp]
	movsd	xmm1, QWORD PTR [ecx+40]
	mulsd	xmm1, QWORD PTR [edx+64]
	addsd	xmm0, xmm1
	movsd	QWORD PTR _mat_temp$[ebp+40], xmm0

; 98   : 
; 99   : 	//third
; 100  : 	mat_temp._31 = (m_Matrix._31*mIn._11) + (m_Matrix._32*mIn._21) + (m_Matrix._33*mIn._31);

	mov	eax, DWORD PTR _this$[ebp]
	mov	ecx, DWORD PTR _mIn$[ebp]
	movsd	xmm0, QWORD PTR [eax+48]
	mulsd	xmm0, QWORD PTR [ecx]
	mov	edx, DWORD PTR _this$[ebp]
	mov	eax, DWORD PTR _mIn$[ebp]
	movsd	xmm1, QWORD PTR [edx+56]
	mulsd	xmm1, QWORD PTR [eax+24]
	addsd	xmm0, xmm1
	mov	ecx, DWORD PTR _this$[ebp]
	mov	edx, DWORD PTR _mIn$[ebp]
	movsd	xmm1, QWORD PTR [ecx+64]
	mulsd	xmm1, QWORD PTR [edx+48]
	addsd	xmm0, xmm1
	movsd	QWORD PTR _mat_temp$[ebp+48], xmm0

; 101  : 	mat_temp._32 = (m_Matrix._31*mIn._12) + (m_Matrix._32*mIn._22) + (m_Matrix._33*mIn._32);

	mov	eax, DWORD PTR _this$[ebp]
	mov	ecx, DWORD PTR _mIn$[ebp]
	movsd	xmm0, QWORD PTR [eax+48]
	mulsd	xmm0, QWORD PTR [ecx+8]
	mov	edx, DWORD PTR _this$[ebp]
	mov	eax, DWORD PTR _mIn$[ebp]
	movsd	xmm1, QWORD PTR [edx+56]
	mulsd	xmm1, QWORD PTR [eax+32]
	addsd	xmm0, xmm1
	mov	ecx, DWORD PTR _this$[ebp]
	mov	edx, DWORD PTR _mIn$[ebp]
	movsd	xmm1, QWORD PTR [ecx+64]
	mulsd	xmm1, QWORD PTR [edx+56]
	addsd	xmm0, xmm1
	movsd	QWORD PTR _mat_temp$[ebp+56], xmm0

; 102  : 	mat_temp._33 = (m_Matrix._31*mIn._13) + (m_Matrix._32*mIn._23) + (m_Matrix._33*mIn._33);

	mov	eax, DWORD PTR _this$[ebp]
	mov	ecx, DWORD PTR _mIn$[ebp]
	movsd	xmm0, QWORD PTR [eax+48]
	mulsd	xmm0, QWORD PTR [ecx+16]
	mov	edx, DWORD PTR _this$[ebp]
	mov	eax, DWORD PTR _mIn$[ebp]
	movsd	xmm1, QWORD PTR [edx+56]
	mulsd	xmm1, QWORD PTR [eax+40]
	addsd	xmm0, xmm1
	mov	ecx, DWORD PTR _this$[ebp]
	mov	edx, DWORD PTR _mIn$[ebp]
	movsd	xmm1, QWORD PTR [ecx+64]
	mulsd	xmm1, QWORD PTR [edx+64]
	addsd	xmm0, xmm1
	movsd	QWORD PTR _mat_temp$[ebp+64], xmm0

; 103  : 
; 104  : 	m_Matrix = mat_temp;

	mov	ecx, 18					; 00000012H
	lea	esi, DWORD PTR _mat_temp$[ebp]
	mov	edi, DWORD PTR _this$[ebp]
	rep movsd

; 105  : }

	push	edx
	mov	ecx, ebp
	push	eax
	lea	edx, DWORD PTR $LN5@MatrixMult
	call	@_RTC_CheckStackVars@8
	pop	eax
	pop	edx
	pop	edi
	pop	esi
	add	esp, 84					; 00000054H
	cmp	ebp, esp
	call	__RTC_CheckEsp
	mov	esp, ebp
	pop	ebp
	ret	4
	npad	1
$LN5@MatrixMult:
	DD	1
	DD	$LN4@MatrixMult
$LN4@MatrixMult:
	DD	-80					; ffffffb0H
	DD	72					; 00000048H
	DD	$LN3@MatrixMult
$LN3@MatrixMult:
	DB	109					; 0000006dH
	DB	97					; 00000061H
	DB	116					; 00000074H
	DB	95					; 0000005fH
	DB	116					; 00000074H
	DB	101					; 00000065H
	DB	109					; 0000006dH
	DB	112					; 00000070H
	DB	0
?MatrixMultiply@C2DMatrix@@AAEXAAUMatrix@1@@Z ENDP	; C2DMatrix::MatrixMultiply
_TEXT	ENDS
; Function compile flags: /Odtp /RTCsu
; File d:\utilisateurs\samuel\mes documents\cours\uqac\ia\ravenproject\common\2d\c2dmatrix.h
;	COMDAT ??0Matrix@C2DMatrix@@QAE@XZ
_TEXT	SEGMENT
_this$ = -4						; size = 4
??0Matrix@C2DMatrix@@QAE@XZ PROC			; C2DMatrix::Matrix::Matrix, COMDAT
; _this$ = ecx

; 28   : 		Matrix()

	push	ebp
	mov	ebp, esp
	push	ecx
	mov	DWORD PTR [ebp-4], -858993460		; ccccccccH
	mov	DWORD PTR _this$[ebp], ecx

; 29   : 		{
; 30   : 			_11 = 0.0; _12 = 0.0; _13 = 0.0;

	mov	eax, DWORD PTR _this$[ebp]
	xorps	xmm0, xmm0
	movsd	QWORD PTR [eax], xmm0
	mov	ecx, DWORD PTR _this$[ebp]
	xorps	xmm0, xmm0
	movsd	QWORD PTR [ecx+8], xmm0
	mov	edx, DWORD PTR _this$[ebp]
	xorps	xmm0, xmm0
	movsd	QWORD PTR [edx+16], xmm0

; 31   : 			_21 = 0.0; _22 = 0.0; _23 = 0.0;

	mov	eax, DWORD PTR _this$[ebp]
	xorps	xmm0, xmm0
	movsd	QWORD PTR [eax+24], xmm0
	mov	ecx, DWORD PTR _this$[ebp]
	xorps	xmm0, xmm0
	movsd	QWORD PTR [ecx+32], xmm0
	mov	edx, DWORD PTR _this$[ebp]
	xorps	xmm0, xmm0
	movsd	QWORD PTR [edx+40], xmm0

; 32   : 			_31 = 0.0; _32 = 0.0; _33 = 0.0;

	mov	eax, DWORD PTR _this$[ebp]
	xorps	xmm0, xmm0
	movsd	QWORD PTR [eax+48], xmm0
	mov	ecx, DWORD PTR _this$[ebp]
	xorps	xmm0, xmm0
	movsd	QWORD PTR [ecx+56], xmm0
	mov	edx, DWORD PTR _this$[ebp]
	xorps	xmm0, xmm0
	movsd	QWORD PTR [edx+64], xmm0

; 33   : 		}

	mov	eax, DWORD PTR _this$[ebp]
	mov	esp, ebp
	pop	ebp
	ret	0
??0Matrix@C2DMatrix@@QAE@XZ ENDP			; C2DMatrix::Matrix::Matrix
_TEXT	ENDS
; Function compile flags: /Odtp /RTCsu
; File d:\utilisateurs\samuel\mes documents\cours\uqac\ia\ravenproject\common\2d\vector2d.h
;	COMDAT ?Perp@Vector2D@@QBE?AU1@XZ
_TEXT	SEGMENT
_this$ = -4						; size = 4
___$ReturnUdt$ = 8					; size = 4
?Perp@Vector2D@@QBE?AU1@XZ PROC				; Vector2D::Perp, COMDAT
; _this$ = ecx

; 170  : {

	push	ebp
	mov	ebp, esp
	push	ecx
	mov	DWORD PTR [ebp-4], -858993460		; ccccccccH
	mov	DWORD PTR _this$[ebp], ecx

; 171  : 	return Vector2D(-y, x);

	mov	eax, DWORD PTR _this$[ebp]
	sub	esp, 8
	movsd	xmm0, QWORD PTR [eax]
	movsd	QWORD PTR [esp], xmm0
	mov	ecx, DWORD PTR _this$[ebp]
	movsd	xmm0, QWORD PTR [ecx+8]
	xorps	xmm0, QWORD PTR __xmm@80000000000000008000000000000000
	sub	esp, 8
	movsd	QWORD PTR [esp], xmm0
	mov	ecx, DWORD PTR ___$ReturnUdt$[ebp]
	call	??0Vector2D@@QAE@NN@Z			; Vector2D::Vector2D
	mov	eax, DWORD PTR ___$ReturnUdt$[ebp]

; 172  : }

	add	esp, 4
	cmp	ebp, esp
	call	__RTC_CheckEsp
	mov	esp, ebp
	pop	ebp
	ret	4
?Perp@Vector2D@@QBE?AU1@XZ ENDP				; Vector2D::Perp
_TEXT	ENDS
; Function compile flags: /Odtp /RTCsu
; File d:\utilisateurs\samuel\mes documents\cours\uqac\ia\ravenproject\common\2d\vector2d.h
;	COMDAT ??0Vector2D@@QAE@NN@Z
_TEXT	SEGMENT
_this$ = -4						; size = 4
_a$ = 8							; size = 8
_b$ = 16						; size = 8
??0Vector2D@@QAE@NN@Z PROC				; Vector2D::Vector2D, COMDAT
; _this$ = ecx

; 24   : 	Vector2D(double a, double b) :x(a), y(b) {}

	push	ebp
	mov	ebp, esp
	push	ecx
	mov	DWORD PTR [ebp-4], -858993460		; ccccccccH
	mov	DWORD PTR _this$[ebp], ecx
	mov	eax, DWORD PTR _this$[ebp]
	movsd	xmm0, QWORD PTR _a$[ebp]
	movsd	QWORD PTR [eax], xmm0
	mov	ecx, DWORD PTR _this$[ebp]
	movsd	xmm0, QWORD PTR _b$[ebp]
	movsd	QWORD PTR [ecx+8], xmm0
	mov	eax, DWORD PTR _this$[ebp]
	mov	esp, ebp
	pop	ebp
	ret	16					; 00000010H
??0Vector2D@@QAE@NN@Z ENDP				; Vector2D::Vector2D
_TEXT	ENDS
; Function compile flags: /Odtp /RTCsu
; File d:\utilisateurs\samuel\mes documents\cours\uqac\ia\ravenproject\common\2d\vector2d.h
;	COMDAT ??0Vector2D@@QAE@XZ
_TEXT	SEGMENT
_this$ = -4						; size = 4
??0Vector2D@@QAE@XZ PROC				; Vector2D::Vector2D, COMDAT
; _this$ = ecx

; 23   : 	Vector2D() :x(0.0), y(0.0) {}

	push	ebp
	mov	ebp, esp
	push	ecx
	mov	DWORD PTR [ebp-4], -858993460		; ccccccccH
	mov	DWORD PTR _this$[ebp], ecx
	mov	eax, DWORD PTR _this$[ebp]
	xorps	xmm0, xmm0
	movsd	QWORD PTR [eax], xmm0
	mov	ecx, DWORD PTR _this$[ebp]
	xorps	xmm0, xmm0
	movsd	QWORD PTR [ecx+8], xmm0
	mov	eax, DWORD PTR _this$[ebp]
	mov	esp, ebp
	pop	ebp
	ret	0
??0Vector2D@@QAE@XZ ENDP				; Vector2D::Vector2D
_TEXT	ENDS
; Function compile flags: /Odtp /RTCsu
; File d:\utilisateurs\samuel\mes documents\cours\uqac\ia\ravenproject\common\misc\utils.h
;	COMDAT ??__EMinFloat@@YAXXZ
text$di	SEGMENT
??__EMinFloat@@YAXXZ PROC				; `dynamic initializer for 'MinFloat'', COMDAT

; 25   : const float   MinFloat = (std::numeric_limits<float>::min)();

	push	ebp
	mov	ebp, esp
	call	?min@?$numeric_limits@M@std@@SAMXZ	; std::numeric_limits<float>::min
	fstp	DWORD PTR ?MinFloat@@3MB
	cmp	ebp, esp
	call	__RTC_CheckEsp
	pop	ebp
	ret	0
??__EMinFloat@@YAXXZ ENDP				; `dynamic initializer for 'MinFloat''
text$di	ENDS
; Function compile flags: /Odtp /RTCsu
; File d:\utilisateurs\samuel\mes documents\cours\uqac\ia\ravenproject\common\misc\utils.h
;	COMDAT ??__EMaxFloat@@YAXXZ
text$di	SEGMENT
??__EMaxFloat@@YAXXZ PROC				; `dynamic initializer for 'MaxFloat'', COMDAT

; 24   : const float   MaxFloat = (std::numeric_limits<float>::max)();

	push	ebp
	mov	ebp, esp
	call	?max@?$numeric_limits@M@std@@SAMXZ	; std::numeric_limits<float>::max
	fstp	DWORD PTR ?MaxFloat@@3MB
	cmp	ebp, esp
	call	__RTC_CheckEsp
	pop	ebp
	ret	0
??__EMaxFloat@@YAXXZ ENDP				; `dynamic initializer for 'MaxFloat''
text$di	ENDS
; Function compile flags: /Odtp /RTCsu
; File d:\utilisateurs\samuel\mes documents\cours\uqac\ia\ravenproject\common\misc\utils.h
;	COMDAT ??__EMinDouble@@YAXXZ
text$di	SEGMENT
??__EMinDouble@@YAXXZ PROC				; `dynamic initializer for 'MinDouble'', COMDAT

; 23   : const double  MinDouble = (std::numeric_limits<double>::min)();

	push	ebp
	mov	ebp, esp
	call	?min@?$numeric_limits@N@std@@SANXZ	; std::numeric_limits<double>::min
	fstp	QWORD PTR ?MinDouble@@3NB
	cmp	ebp, esp
	call	__RTC_CheckEsp
	pop	ebp
	ret	0
??__EMinDouble@@YAXXZ ENDP				; `dynamic initializer for 'MinDouble''
text$di	ENDS
; Function compile flags: /Odtp /RTCsu
; File d:\utilisateurs\samuel\mes documents\cours\uqac\ia\ravenproject\common\misc\utils.h
;	COMDAT ??__EMaxDouble@@YAXXZ
text$di	SEGMENT
??__EMaxDouble@@YAXXZ PROC				; `dynamic initializer for 'MaxDouble'', COMDAT

; 22   : const double  MaxDouble = (std::numeric_limits<double>::max)();

	push	ebp
	mov	ebp, esp
	call	?max@?$numeric_limits@N@std@@SANXZ	; std::numeric_limits<double>::max
	fstp	QWORD PTR ?MaxDouble@@3NB
	cmp	ebp, esp
	call	__RTC_CheckEsp
	pop	ebp
	ret	0
??__EMaxDouble@@YAXXZ ENDP				; `dynamic initializer for 'MaxDouble''
text$di	ENDS
; Function compile flags: /Odtp /RTCsu
; File d:\utilisateurs\samuel\mes documents\cours\uqac\ia\ravenproject\common\misc\utils.h
;	COMDAT ??__EMaxInt@@YAXXZ
text$di	SEGMENT
??__EMaxInt@@YAXXZ PROC					; `dynamic initializer for 'MaxInt'', COMDAT

; 21   : const int     MaxInt = (std::numeric_limits<int>::max)();

	push	ebp
	mov	ebp, esp
	call	?max@?$numeric_limits@H@std@@SAHXZ	; std::numeric_limits<int>::max
	mov	DWORD PTR ?MaxInt@@3HB, eax
	cmp	ebp, esp
	call	__RTC_CheckEsp
	pop	ebp
	ret	0
??__EMaxInt@@YAXXZ ENDP					; `dynamic initializer for 'MaxInt''
text$di	ENDS
; Function compile flags: /Odtp /RTCsu
; File c:\program files (x86)\microsoft visual studio\2017\enterprise\vc\tools\msvc\14.15.26726\include\xmemory0
;	COMDAT ?_Adjust_manually_vector_aligned@std@@YAXAAPAXAAI@Z
_TEXT	SEGMENT
__Back_shift$ = -16					; size = 4
__Min_back_shift$ = -12					; size = 4
__Ptr_container$ = -8					; size = 4
__Ptr_user$ = -4					; size = 4
__Ptr$ = 8						; size = 4
__Bytes$ = 12						; size = 4
?_Adjust_manually_vector_aligned@std@@YAXAAPAXAAI@Z PROC ; std::_Adjust_manually_vector_aligned, COMDAT

; 114  : 	{	// adjust parameters from _Allocate_manually_vector_aligned to pass to operator delete

	push	ebp
	mov	ebp, esp
	sub	esp, 16					; 00000010H
	mov	eax, -858993460				; ccccccccH
	mov	DWORD PTR [ebp-16], eax
	mov	DWORD PTR [ebp-12], eax
	mov	DWORD PTR [ebp-8], eax
	mov	DWORD PTR [ebp-4], eax

; 115  : 	_Bytes += _Non_user_size;

	mov	eax, DWORD PTR __Bytes$[ebp]
	mov	ecx, DWORD PTR [eax]
	add	ecx, 39					; 00000027H
	mov	edx, DWORD PTR __Bytes$[ebp]
	mov	DWORD PTR [edx], ecx

; 116  : 
; 117  : 	const uintptr_t * const _Ptr_user = reinterpret_cast<uintptr_t *>(_Ptr);

	mov	eax, DWORD PTR __Ptr$[ebp]
	mov	ecx, DWORD PTR [eax]
	mov	DWORD PTR __Ptr_user$[ebp], ecx

; 118  : 	const uintptr_t _Ptr_container = _Ptr_user[-1];

	mov	edx, 4
	imul	eax, edx, -1
	mov	ecx, DWORD PTR __Ptr_user$[ebp]
	mov	edx, DWORD PTR [ecx+eax]
	mov	DWORD PTR __Ptr_container$[ebp], edx
$LN4@Adjust_man:

; 119  : 
; 120  : 	// If the following asserts, it likely means that we are performing
; 121  : 	// an aligned delete on memory coming from an unaligned allocation.
; 122  : 	_STL_ASSERT(_Ptr_user[-2] == _Big_allocation_sentinel, "invalid argument");

	mov	eax, 4
	imul	ecx, eax, -2
	mov	edx, DWORD PTR __Ptr_user$[ebp]
	cmp	DWORD PTR [edx+ecx], -84215046		; fafafafaH
	jne	SHORT $LN7@Adjust_man
	jmp	SHORT $LN2@Adjust_man
$LN7@Adjust_man:
	push	OFFSET ??_C@_0BB@FCMFBGOM@invalid?5argument@
	push	OFFSET ??_C@_02DKCKIIND@?$CFs@
	push	0
	push	122					; 0000007aH
	push	OFFSET ??_C@_0GK@FKLKIKPD@c?3?2program?5files?5?$CIx86?$CJ?2microsof@
	push	2
	call	__CrtDbgReport
	add	esp, 24					; 00000018H
	cmp	eax, 1
	jne	SHORT $LN19@Adjust_man
	int	3
$LN19@Adjust_man:
	push	0
	push	122					; 0000007aH
	push	OFFSET ??_C@_1NE@MCNNPIKO@?$AAc?$AA?3?$AA?2?$AAp?$AAr?$AAo?$AAg?$AAr?$AAa?$AAm?$AA?5?$AAf?$AAi?$AAl?$AAe@
	push	OFFSET ??_C@_1EK@NIFDJFDG@?$AAs?$AAt?$AAd?$AA?3?$AA?3?$AA_?$AAA?$AAd?$AAj?$AAu?$AAs?$AAt?$AA_?$AAm?$AAa@
	push	OFFSET ??_C@_1CG@JNLFBNGN@?$AA?$CC?$AAi?$AAn?$AAv?$AAa?$AAl?$AAi?$AAd?$AA?5?$AAa?$AAr?$AAg?$AAu?$AAm?$AAe@
	call	__invalid_parameter
	add	esp, 20					; 00000014H
	xor	ecx, ecx
	jne	SHORT $LN7@Adjust_man
$LN2@Adjust_man:
	xor	edx, edx
	jne	SHORT $LN4@Adjust_man

; 123  : 
; 124  : 	// Extra paranoia on aligned allocation/deallocation; ensure _Ptr_container is
; 125  : 	// in range [_Min_back_shift, _Non_user_size]
; 126  :   #ifdef _DEBUG
; 127  : 	constexpr uintptr_t _Min_back_shift = 2 * sizeof(void *);

	mov	DWORD PTR __Min_back_shift$[ebp], 8

; 128  :   #else /* ^^^ _DEBUG ^^^ // vvv !_DEBUG vvv */
; 129  : 	constexpr uintptr_t _Min_back_shift = sizeof(void *);
; 130  :   #endif /* _DEBUG */
; 131  : 	const uintptr_t _Back_shift = reinterpret_cast<uintptr_t>(_Ptr) - _Ptr_container;

	mov	eax, DWORD PTR __Ptr$[ebp]
	mov	ecx, DWORD PTR [eax]
	sub	ecx, DWORD PTR __Ptr_container$[ebp]
	mov	DWORD PTR __Back_shift$[ebp], ecx
$LN10@Adjust_man:

; 132  : 	_STL_VERIFY(_Back_shift >= _Min_back_shift && _Back_shift <= _Non_user_size, "invalid argument");

	cmp	DWORD PTR __Back_shift$[ebp], 8
	jb	SHORT $LN13@Adjust_man
	cmp	DWORD PTR __Back_shift$[ebp], 39	; 00000027H
	ja	SHORT $LN13@Adjust_man
	jmp	SHORT $LN8@Adjust_man
$LN13@Adjust_man:
	push	OFFSET ??_C@_0BB@FCMFBGOM@invalid?5argument@
	push	OFFSET ??_C@_02DKCKIIND@?$CFs@
	push	0
	push	132					; 00000084H
	push	OFFSET ??_C@_0GK@FKLKIKPD@c?3?2program?5files?5?$CIx86?$CJ?2microsof@
	push	2
	call	__CrtDbgReport
	add	esp, 24					; 00000018H
	cmp	eax, 1
	jne	SHORT $LN20@Adjust_man
	int	3
$LN20@Adjust_man:
	push	0
	push	132					; 00000084H
	push	OFFSET ??_C@_1NE@MCNNPIKO@?$AAc?$AA?3?$AA?2?$AAp?$AAr?$AAo?$AAg?$AAr?$AAa?$AAm?$AA?5?$AAf?$AAi?$AAl?$AAe@
	push	OFFSET ??_C@_1EK@NIFDJFDG@?$AAs?$AAt?$AAd?$AA?3?$AA?3?$AA_?$AAA?$AAd?$AAj?$AAu?$AAs?$AAt?$AA_?$AAm?$AAa@
	push	OFFSET ??_C@_1CG@JNLFBNGN@?$AA?$CC?$AAi?$AAn?$AAv?$AAa?$AAl?$AAi?$AAd?$AA?5?$AAa?$AAr?$AAg?$AAu?$AAm?$AAe@
	call	__invalid_parameter
	add	esp, 20					; 00000014H
	xor	eax, eax
	jne	SHORT $LN13@Adjust_man
$LN8@Adjust_man:
	xor	ecx, ecx
	jne	SHORT $LN10@Adjust_man

; 133  : 	_Ptr = reinterpret_cast<void *>(_Ptr_container);

	mov	edx, DWORD PTR __Ptr$[ebp]
	mov	eax, DWORD PTR __Ptr_container$[ebp]
	mov	DWORD PTR [edx], eax

; 134  : 	}

	add	esp, 16					; 00000010H
	cmp	ebp, esp
	call	__RTC_CheckEsp
	mov	esp, ebp
	pop	ebp
	ret	0
?_Adjust_manually_vector_aligned@std@@YAXAAPAXAAI@Z ENDP ; std::_Adjust_manually_vector_aligned
_TEXT	ENDS
; Function compile flags: /Odtp /RTCsu
; File c:\program files (x86)\microsoft visual studio\2017\enterprise\vc\tools\msvc\14.15.26726\include\xmemory0
;	COMDAT ?_Allocate@_Default_allocate_traits@std@@SAPAXI@Z
_TEXT	SEGMENT
__Bytes$ = 8						; size = 4
?_Allocate@_Default_allocate_traits@std@@SAPAXI@Z PROC	; std::_Default_allocate_traits::_Allocate, COMDAT

; 51   : 		{

	push	ebp
	mov	ebp, esp

; 52   : 		return (::operator new(_Bytes));

	mov	eax, DWORD PTR __Bytes$[ebp]
	push	eax
	call	??2@YAPAXI@Z				; operator new
	add	esp, 4

; 53   : 		}

	cmp	ebp, esp
	call	__RTC_CheckEsp
	pop	ebp
	ret	0
?_Allocate@_Default_allocate_traits@std@@SAPAXI@Z ENDP	; std::_Default_allocate_traits::_Allocate
_TEXT	ENDS
; Function compile flags: /Odtp /RTCsu
; File c:\program files (x86)\microsoft visual studio\2017\enterprise\vc\tools\msvc\14.15.26726\include\xutility
;	COMDAT ?_Orphan_me@_Iterator_base12@std@@QAEXXZ
_TEXT	SEGMENT
__Pnext$1 = -8						; size = 4
_this$ = -4						; size = 4
?_Orphan_me@_Iterator_base12@std@@QAEXXZ PROC		; std::_Iterator_base12::_Orphan_me, COMDAT
; _this$ = ecx

; 191  : 		{	// cut ties with parent

	push	ebp
	mov	ebp, esp
	sub	esp, 8
	mov	DWORD PTR [ebp-8], -858993460		; ccccccccH
	mov	DWORD PTR [ebp-4], -858993460		; ccccccccH
	mov	DWORD PTR _this$[ebp], ecx

; 192  :  #if _ITERATOR_DEBUG_LEVEL == 2
; 193  : 		if (_Myproxy != nullptr)

	mov	eax, DWORD PTR _this$[ebp]
	cmp	DWORD PTR [eax], 0
	je	$LN13@Orphan_me

; 194  : 			{	// adopted, remove self from list
; 195  : 			_Iterator_base12 **_Pnext = &_Myproxy->_Myfirstiter;

	mov	ecx, DWORD PTR _this$[ebp]
	mov	edx, DWORD PTR [ecx]
	add	edx, 4
	mov	DWORD PTR __Pnext$1[ebp], edx
$LN2@Orphan_me:

; 196  : 			while (*_Pnext != nullptr && *_Pnext != this)

	mov	eax, DWORD PTR __Pnext$1[ebp]
	cmp	DWORD PTR [eax], 0
	je	SHORT $LN6@Orphan_me
	mov	ecx, DWORD PTR __Pnext$1[ebp]
	mov	edx, DWORD PTR [ecx]
	cmp	edx, DWORD PTR _this$[ebp]
	je	SHORT $LN6@Orphan_me

; 197  : 				_Pnext = &(*_Pnext)->_Mynextiter;

	mov	eax, DWORD PTR __Pnext$1[ebp]
	mov	ecx, DWORD PTR [eax]
	add	ecx, 4
	mov	DWORD PTR __Pnext$1[ebp], ecx
	jmp	SHORT $LN2@Orphan_me
$LN6@Orphan_me:

; 198  : 
; 199  : 			_STL_VERIFY(*_Pnext, "ITERATOR LIST CORRUPTED!");

	mov	edx, DWORD PTR __Pnext$1[ebp]
	cmp	DWORD PTR [edx], 0
	je	SHORT $LN9@Orphan_me
	jmp	SHORT $LN4@Orphan_me
$LN9@Orphan_me:
	push	OFFSET ??_C@_0BJ@LFDBABJJ@ITERATOR?5LIST?5CORRUPTED?$CB@
	push	OFFSET ??_C@_02DKCKIIND@?$CFs@
	push	0
	push	199					; 000000c7H
	push	OFFSET ??_C@_0GK@EGAHLIFA@c?3?2program?5files?5?$CIx86?$CJ?2microsof@
	push	2
	call	__CrtDbgReport
	add	esp, 24					; 00000018H
	cmp	eax, 1
	jne	SHORT $LN14@Orphan_me
	int	3
$LN14@Orphan_me:
	push	0
	push	199					; 000000c7H
	push	OFFSET ??_C@_1NE@DPDGCNAN@?$AAc?$AA?3?$AA?2?$AAp?$AAr?$AAo?$AAg?$AAr?$AAa?$AAm?$AA?5?$AAf?$AAi?$AAl?$AAe@
	push	OFFSET ??_C@_1EE@KLDMFDFL@?$AAs?$AAt?$AAd?$AA?3?$AA?3?$AA_?$AAI?$AAt?$AAe?$AAr?$AAa?$AAt?$AAo?$AAr?$AA_@
	push	OFFSET ??_C@_1DG@PLBPCAEM@?$AA?$CC?$AAI?$AAT?$AAE?$AAR?$AAA?$AAT?$AAO?$AAR?$AA?5?$AAL?$AAI?$AAS?$AAT?$AA?5@
	call	__invalid_parameter
	add	esp, 20					; 00000014H
	xor	ecx, ecx
	jne	SHORT $LN9@Orphan_me
$LN4@Orphan_me:
	xor	edx, edx
	jne	SHORT $LN6@Orphan_me

; 200  : 			*_Pnext = _Mynextiter;

	mov	eax, DWORD PTR __Pnext$1[ebp]
	mov	ecx, DWORD PTR _this$[ebp]
	mov	edx, DWORD PTR [ecx+4]
	mov	DWORD PTR [eax], edx

; 201  : 			_Myproxy = nullptr;

	mov	eax, DWORD PTR _this$[ebp]
	mov	DWORD PTR [eax], 0
$LN13@Orphan_me:

; 202  : 			}
; 203  :  #endif /* _ITERATOR_DEBUG_LEVEL == 2 */
; 204  : 		}

	add	esp, 8
	cmp	ebp, esp
	call	__RTC_CheckEsp
	mov	esp, ebp
	pop	ebp
	ret	0
?_Orphan_me@_Iterator_base12@std@@QAEXXZ ENDP		; std::_Iterator_base12::_Orphan_me
_TEXT	ENDS
; Function compile flags: /Odtp /RTCsu
; File c:\program files (x86)\microsoft visual studio\2017\enterprise\vc\tools\msvc\14.15.26726\include\xutility
;	COMDAT ?_Getpnext@_Iterator_base12@std@@QAEPAPAU12@XZ
_TEXT	SEGMENT
_this$ = -4						; size = 4
?_Getpnext@_Iterator_base12@std@@QAEPAPAU12@XZ PROC	; std::_Iterator_base12::_Getpnext, COMDAT
; _this$ = ecx

; 186  : 		{	// get address of remaining iterator chain

	push	ebp
	mov	ebp, esp
	push	ecx
	mov	DWORD PTR [ebp-4], -858993460		; ccccccccH
	mov	DWORD PTR _this$[ebp], ecx

; 187  : 		return (&_Mynextiter);

	mov	eax, DWORD PTR _this$[ebp]
	add	eax, 4

; 188  : 		}

	mov	esp, ebp
	pop	ebp
	ret	0
?_Getpnext@_Iterator_base12@std@@QAEPAPAU12@XZ ENDP	; std::_Iterator_base12::_Getpnext
_TEXT	ENDS
; Function compile flags: /Odtp /RTCsu
; File c:\program files (x86)\microsoft visual studio\2017\enterprise\vc\tools\msvc\14.15.26726\include\xutility
;	COMDAT ?_Getcont@_Iterator_base12@std@@QBEPBU_Container_base12@2@XZ
_TEXT	SEGMENT
tv68 = -8						; size = 4
_this$ = -4						; size = 4
?_Getcont@_Iterator_base12@std@@QBEPBU_Container_base12@2@XZ PROC ; std::_Iterator_base12::_Getcont, COMDAT
; _this$ = ecx

; 181  : 		{	// get owning container

	push	ebp
	mov	ebp, esp
	sub	esp, 8
	mov	DWORD PTR [ebp-8], -858993460		; ccccccccH
	mov	DWORD PTR [ebp-4], -858993460		; ccccccccH
	mov	DWORD PTR _this$[ebp], ecx

; 182  : 		return (_Myproxy == nullptr ? nullptr : _Myproxy->_Mycont);

	mov	eax, DWORD PTR _this$[ebp]
	cmp	DWORD PTR [eax], 0
	jne	SHORT $LN3@Getcont
	mov	DWORD PTR tv68[ebp], 0
	jmp	SHORT $LN4@Getcont
$LN3@Getcont:
	mov	ecx, DWORD PTR _this$[ebp]
	mov	edx, DWORD PTR [ecx]
	mov	eax, DWORD PTR [edx]
	mov	DWORD PTR tv68[ebp], eax
$LN4@Getcont:
	mov	eax, DWORD PTR tv68[ebp]

; 183  : 		}

	mov	esp, ebp
	pop	ebp
	ret	0
?_Getcont@_Iterator_base12@std@@QBEPBU_Container_base12@2@XZ ENDP ; std::_Iterator_base12::_Getcont
_TEXT	ENDS
; Function compile flags: /Odtp /RTCsu
; File c:\program files (x86)\microsoft visual studio\2017\enterprise\vc\tools\msvc\14.15.26726\include\xutility
;	COMDAT ?_Clrcont@_Iterator_base12@std@@QAEXXZ
_TEXT	SEGMENT
_this$ = -4						; size = 4
?_Clrcont@_Iterator_base12@std@@QAEXXZ PROC		; std::_Iterator_base12::_Clrcont, COMDAT
; _this$ = ecx

; 176  : 		{	// disown owning container

	push	ebp
	mov	ebp, esp
	push	ecx
	mov	DWORD PTR [ebp-4], -858993460		; ccccccccH
	mov	DWORD PTR _this$[ebp], ecx

; 177  : 		_Myproxy = nullptr;

	mov	eax, DWORD PTR _this$[ebp]
	mov	DWORD PTR [eax], 0

; 178  : 		}

	mov	esp, ebp
	pop	ebp
	ret	0
?_Clrcont@_Iterator_base12@std@@QAEXXZ ENDP		; std::_Iterator_base12::_Clrcont
_TEXT	ENDS
; Function compile flags: /Odtp /RTCsu
; File c:\program files (x86)\microsoft visual studio\2017\enterprise\vc\tools\msvc\14.15.26726\include\xutility
;	COMDAT ?_Adopt@_Iterator_base12@std@@QAEXPBU_Container_base12@2@@Z
_TEXT	SEGMENT
__Lock$2 = -40						; size = 4
__Parent_proxy$3 = -32					; size = 4
__Lock$4 = -24						; size = 4
_this$ = -16						; size = 4
__$EHRec$ = -12						; size = 12
__Parent$ = 8						; size = 4
?_Adopt@_Iterator_base12@std@@QAEXPBU_Container_base12@2@@Z PROC ; std::_Iterator_base12::_Adopt, COMDAT
; _this$ = ecx

; 147  : 		{	// adopt this iterator by parent

	push	ebp
	mov	ebp, esp
	push	-1
	push	__ehhandler$?_Adopt@_Iterator_base12@std@@QAEXPBU_Container_base12@2@@Z
	mov	eax, DWORD PTR fs:0
	push	eax
	sub	esp, 32					; 00000020H
	mov	eax, -858993460				; ccccccccH
	mov	DWORD PTR [ebp-44], eax
	mov	DWORD PTR [ebp-40], eax
	mov	DWORD PTR [ebp-36], eax
	mov	DWORD PTR [ebp-32], eax
	mov	DWORD PTR [ebp-28], eax
	mov	DWORD PTR [ebp-24], eax
	mov	DWORD PTR [ebp-20], eax
	mov	DWORD PTR [ebp-16], eax
	mov	eax, DWORD PTR ___security_cookie
	xor	eax, ebp
	push	eax
	lea	eax, DWORD PTR __$EHRec$[ebp]
	mov	DWORD PTR fs:0, eax
	mov	DWORD PTR _this$[ebp], ecx

; 148  : 		if (_Parent == nullptr)

	cmp	DWORD PTR __Parent$[ebp], 0
	jne	SHORT $LN2@Adopt

; 149  : 			{	// no future parent, just disown current parent
; 150  :  #if _ITERATOR_DEBUG_LEVEL == 2
; 151  : 			_Lockit _Lock(_LOCK_DEBUG);

	push	3
	lea	ecx, DWORD PTR __Lock$4[ebp]
	call	??0_Lockit@std@@QAE@H@Z			; std::_Lockit::_Lockit

; 152  : 			_Orphan_me();

	mov	ecx, DWORD PTR _this$[ebp]
	call	?_Orphan_me@_Iterator_base12@std@@QAEXXZ ; std::_Iterator_base12::_Orphan_me

; 153  :  #endif /* _ITERATOR_DEBUG_LEVEL == 2 */
; 154  : 			}

	lea	ecx, DWORD PTR __Lock$4[ebp]
	call	??1_Lockit@std@@QAE@XZ			; std::_Lockit::~_Lockit

; 155  : 		else

	jmp	SHORT $LN5@Adopt
$LN2@Adopt:

; 156  : 			{	// have a parent, do adoption
; 157  : 			_Container_proxy *_Parent_proxy = _Parent->_Myproxy;

	mov	eax, DWORD PTR __Parent$[ebp]
	mov	ecx, DWORD PTR [eax]
	mov	DWORD PTR __Parent_proxy$3[ebp], ecx

; 158  : 
; 159  :  #if _ITERATOR_DEBUG_LEVEL == 2
; 160  : 			if (_Myproxy != _Parent_proxy)

	mov	edx, DWORD PTR _this$[ebp]
	mov	eax, DWORD PTR [edx]
	cmp	eax, DWORD PTR __Parent_proxy$3[ebp]
	je	SHORT $LN5@Adopt

; 161  : 				{	// change parentage
; 162  : 				_Lockit _Lock(_LOCK_DEBUG);

	push	3
	lea	ecx, DWORD PTR __Lock$2[ebp]
	call	??0_Lockit@std@@QAE@H@Z			; std::_Lockit::_Lockit

; 163  : 				_Orphan_me();

	mov	ecx, DWORD PTR _this$[ebp]
	call	?_Orphan_me@_Iterator_base12@std@@QAEXXZ ; std::_Iterator_base12::_Orphan_me

; 164  : 				_Mynextiter = _Parent_proxy->_Myfirstiter;

	mov	ecx, DWORD PTR _this$[ebp]
	mov	edx, DWORD PTR __Parent_proxy$3[ebp]
	mov	eax, DWORD PTR [edx+4]
	mov	DWORD PTR [ecx+4], eax

; 165  : 				_Parent_proxy->_Myfirstiter = this;

	mov	ecx, DWORD PTR __Parent_proxy$3[ebp]
	mov	edx, DWORD PTR _this$[ebp]
	mov	DWORD PTR [ecx+4], edx

; 166  : 				_Myproxy = _Parent_proxy;

	mov	eax, DWORD PTR _this$[ebp]
	mov	ecx, DWORD PTR __Parent_proxy$3[ebp]
	mov	DWORD PTR [eax], ecx

; 167  : 				}

	lea	ecx, DWORD PTR __Lock$2[ebp]
	call	??1_Lockit@std@@QAE@XZ			; std::_Lockit::~_Lockit
$LN5@Adopt:

; 168  : 
; 169  :  #else /* _ITERATOR_DEBUG_LEVEL == 2 */
; 170  : 			_Myproxy = _Parent_proxy;
; 171  :  #endif /* _ITERATOR_DEBUG_LEVEL == 2 */
; 172  : 			}
; 173  : 		}

	push	edx
	mov	ecx, ebp
	push	eax
	lea	edx, DWORD PTR $LN10@Adopt
	call	@_RTC_CheckStackVars@8
	pop	eax
	pop	edx
	mov	ecx, DWORD PTR __$EHRec$[ebp]
	mov	DWORD PTR fs:0, ecx
	pop	ecx
	add	esp, 44					; 0000002cH
	cmp	ebp, esp
	call	__RTC_CheckEsp
	mov	esp, ebp
	pop	ebp
	ret	4
$LN10@Adopt:
	DD	2
	DD	$LN9@Adopt
$LN9@Adopt:
	DD	-24					; ffffffe8H
	DD	4
	DD	$LN6@Adopt
	DD	-40					; ffffffd8H
	DD	4
	DD	$LN7@Adopt
$LN7@Adopt:
	DB	95					; 0000005fH
	DB	76					; 0000004cH
	DB	111					; 0000006fH
	DB	99					; 00000063H
	DB	107					; 0000006bH
	DB	0
$LN6@Adopt:
	DB	95					; 0000005fH
	DB	76					; 0000004cH
	DB	111					; 0000006fH
	DB	99					; 00000063H
	DB	107					; 0000006bH
	DB	0
_TEXT	ENDS
;	COMDAT text$x
text$x	SEGMENT
__ehhandler$?_Adopt@_Iterator_base12@std@@QAEXPBU_Container_base12@2@@Z:
	mov	edx, DWORD PTR [esp+8]
	lea	eax, DWORD PTR [edx+12]
	mov	ecx, DWORD PTR [edx-36]
	xor	ecx, eax
	call	@__security_check_cookie@4
	mov	eax, OFFSET __ehfuncinfo$?_Adopt@_Iterator_base12@std@@QAEXPBU_Container_base12@2@@Z
	jmp	___CxxFrameHandler3
text$x	ENDS
?_Adopt@_Iterator_base12@std@@QAEXPBU_Container_base12@2@@Z ENDP ; std::_Iterator_base12::_Adopt
; Function compile flags: /Odtp /RTCsu
; File c:\program files (x86)\microsoft visual studio\2017\enterprise\vc\tools\msvc\14.15.26726\include\xutility
;	COMDAT ??1_Iterator_base12@std@@QAE@XZ
_TEXT	SEGMENT
__Lock$ = -24						; size = 4
_this$ = -16						; size = 4
__$EHRec$ = -12						; size = 12
??1_Iterator_base12@std@@QAE@XZ PROC			; std::_Iterator_base12::~_Iterator_base12, COMDAT
; _this$ = ecx

; 139  : 		{	// destroy the iterator

	push	ebp
	mov	ebp, esp
	push	-1
	push	__ehhandler$??1_Iterator_base12@std@@QAE@XZ
	mov	eax, DWORD PTR fs:0
	push	eax
	sub	esp, 16					; 00000010H
	mov	eax, -858993460				; ccccccccH
	mov	DWORD PTR [ebp-28], eax
	mov	DWORD PTR [ebp-24], eax
	mov	DWORD PTR [ebp-20], eax
	mov	DWORD PTR [ebp-16], eax
	mov	eax, DWORD PTR ___security_cookie
	xor	eax, ebp
	push	eax
	lea	eax, DWORD PTR __$EHRec$[ebp]
	mov	DWORD PTR fs:0, eax
	mov	DWORD PTR _this$[ebp], ecx

; 140  :  #if _ITERATOR_DEBUG_LEVEL == 2
; 141  : 		_Lockit _Lock(_LOCK_DEBUG);

	push	3
	lea	ecx, DWORD PTR __Lock$[ebp]
	call	??0_Lockit@std@@QAE@H@Z			; std::_Lockit::_Lockit

; 142  : 		_Orphan_me();

	mov	ecx, DWORD PTR _this$[ebp]
	call	?_Orphan_me@_Iterator_base12@std@@QAEXXZ ; std::_Iterator_base12::_Orphan_me

; 143  :  #endif /* _ITERATOR_DEBUG_LEVEL == 2 */
; 144  : 		}

	lea	ecx, DWORD PTR __Lock$[ebp]
	call	??1_Lockit@std@@QAE@XZ			; std::_Lockit::~_Lockit
	push	edx
	mov	ecx, ebp
	push	eax
	lea	edx, DWORD PTR $LN6@Iterator_b
	call	@_RTC_CheckStackVars@8
	pop	eax
	pop	edx
	mov	ecx, DWORD PTR __$EHRec$[ebp]
	mov	DWORD PTR fs:0, ecx
	pop	ecx
	add	esp, 28					; 0000001cH
	cmp	ebp, esp
	call	__RTC_CheckEsp
	mov	esp, ebp
	pop	ebp
	ret	0
	npad	3
$LN6@Iterator_b:
	DD	1
	DD	$LN5@Iterator_b
$LN5@Iterator_b:
	DD	-24					; ffffffe8H
	DD	4
	DD	$LN3@Iterator_b
$LN3@Iterator_b:
	DB	95					; 0000005fH
	DB	76					; 0000004cH
	DB	111					; 0000006fH
	DB	99					; 00000063H
	DB	107					; 0000006bH
	DB	0
_TEXT	ENDS
;	COMDAT text$x
text$x	SEGMENT
__ehhandler$??1_Iterator_base12@std@@QAE@XZ:
	mov	edx, DWORD PTR [esp+8]
	lea	eax, DWORD PTR [edx+12]
	mov	ecx, DWORD PTR [edx-20]
	xor	ecx, eax
	call	@__security_check_cookie@4
	mov	eax, OFFSET __ehfuncinfo$??1_Iterator_base12@std@@QAE@XZ
	jmp	___CxxFrameHandler3
text$x	ENDS
??1_Iterator_base12@std@@QAE@XZ ENDP			; std::_Iterator_base12::~_Iterator_base12
; Function compile flags: /Odtp /RTCsu
; File c:\program files (x86)\microsoft visual studio\2017\enterprise\vc\tools\msvc\14.15.26726\include\xutility
;	COMDAT ??0_Iterator_base12@std@@QAE@XZ
_TEXT	SEGMENT
_this$ = -4						; size = 4
??0_Iterator_base12@std@@QAE@XZ PROC			; std::_Iterator_base12::_Iterator_base12, COMDAT
; _this$ = ecx

; 109  : 		{	// construct orphaned iterator

	push	ebp
	mov	ebp, esp
	push	ecx
	mov	DWORD PTR [ebp-4], -858993460		; ccccccccH
	mov	DWORD PTR _this$[ebp], ecx

; 108  : 		: _Myproxy(nullptr), _Mynextiter(nullptr)

	mov	eax, DWORD PTR _this$[ebp]
	mov	DWORD PTR [eax], 0
	mov	ecx, DWORD PTR _this$[ebp]
	mov	DWORD PTR [ecx+4], 0

; 110  : 		}

	mov	eax, DWORD PTR _this$[ebp]
	mov	esp, ebp
	pop	ebp
	ret	0
??0_Iterator_base12@std@@QAE@XZ ENDP			; std::_Iterator_base12::_Iterator_base12
_TEXT	ENDS
; Function compile flags: /Odtp /RTCsu
; File c:\program files (x86)\microsoft visual studio\2017\enterprise\vc\tools\msvc\14.15.26726\include\xutility
;	COMDAT ?_Swap_all@_Container_base12@std@@QAEXAAU12@@Z
_TEXT	SEGMENT
__Temp$ = -32						; size = 4
__Lock$ = -24						; size = 4
_this$ = -16						; size = 4
__$EHRec$ = -12						; size = 12
__Right$ = 8						; size = 4
?_Swap_all@_Container_base12@std@@QAEXAAU12@@Z PROC	; std::_Container_base12::_Swap_all, COMDAT
; _this$ = ecx

; 229  : 	{	// swap all iterators

	push	ebp
	mov	ebp, esp
	push	-1
	push	__ehhandler$?_Swap_all@_Container_base12@std@@QAEXAAU12@@Z
	mov	eax, DWORD PTR fs:0
	push	eax
	sub	esp, 20					; 00000014H
	mov	eax, -858993460				; ccccccccH
	mov	DWORD PTR [ebp-32], eax
	mov	DWORD PTR [ebp-28], eax
	mov	DWORD PTR [ebp-24], eax
	mov	DWORD PTR [ebp-20], eax
	mov	DWORD PTR [ebp-16], eax
	mov	eax, DWORD PTR ___security_cookie
	xor	eax, ebp
	push	eax
	lea	eax, DWORD PTR __$EHRec$[ebp]
	mov	DWORD PTR fs:0, eax
	mov	DWORD PTR _this$[ebp], ecx

; 230  :  #if _ITERATOR_DEBUG_LEVEL == 2
; 231  : 	_Lockit _Lock(_LOCK_DEBUG);

	push	3
	lea	ecx, DWORD PTR __Lock$[ebp]
	call	??0_Lockit@std@@QAE@H@Z			; std::_Lockit::_Lockit

; 232  :  #endif /* _ITERATOR_DEBUG_LEVEL == 2 */
; 233  : 
; 234  : 	_Container_proxy *_Temp = _Myproxy;

	mov	eax, DWORD PTR _this$[ebp]
	mov	ecx, DWORD PTR [eax]
	mov	DWORD PTR __Temp$[ebp], ecx

; 235  : 	_Myproxy = _Right._Myproxy;

	mov	edx, DWORD PTR _this$[ebp]
	mov	eax, DWORD PTR __Right$[ebp]
	mov	ecx, DWORD PTR [eax]
	mov	DWORD PTR [edx], ecx

; 236  : 	_Right._Myproxy = _Temp;

	mov	edx, DWORD PTR __Right$[ebp]
	mov	eax, DWORD PTR __Temp$[ebp]
	mov	DWORD PTR [edx], eax

; 237  : 
; 238  : 	if (_Myproxy != nullptr)

	mov	ecx, DWORD PTR _this$[ebp]
	cmp	DWORD PTR [ecx], 0
	je	SHORT $LN2@Swap_all

; 239  : 		_Myproxy->_Mycont = (_Container_base12 *)this;

	mov	edx, DWORD PTR _this$[ebp]
	mov	eax, DWORD PTR [edx]
	mov	ecx, DWORD PTR _this$[ebp]
	mov	DWORD PTR [eax], ecx
$LN2@Swap_all:

; 240  : 	if (_Right._Myproxy != nullptr)

	mov	edx, DWORD PTR __Right$[ebp]
	cmp	DWORD PTR [edx], 0
	je	SHORT $LN3@Swap_all

; 241  : 		_Right._Myproxy->_Mycont = (_Container_base12 *)&_Right;

	mov	eax, DWORD PTR __Right$[ebp]
	mov	ecx, DWORD PTR [eax]
	mov	edx, DWORD PTR __Right$[ebp]
	mov	DWORD PTR [ecx], edx
$LN3@Swap_all:

; 242  : 	}

	lea	ecx, DWORD PTR __Lock$[ebp]
	call	??1_Lockit@std@@QAE@XZ			; std::_Lockit::~_Lockit
	push	edx
	mov	ecx, ebp
	push	eax
	lea	edx, DWORD PTR $LN8@Swap_all
	call	@_RTC_CheckStackVars@8
	pop	eax
	pop	edx
	mov	ecx, DWORD PTR __$EHRec$[ebp]
	mov	DWORD PTR fs:0, ecx
	pop	ecx
	add	esp, 32					; 00000020H
	cmp	ebp, esp
	call	__RTC_CheckEsp
	mov	esp, ebp
	pop	ebp
	ret	4
$LN8@Swap_all:
	DD	1
	DD	$LN7@Swap_all
$LN7@Swap_all:
	DD	-24					; ffffffe8H
	DD	4
	DD	$LN5@Swap_all
$LN5@Swap_all:
	DB	95					; 0000005fH
	DB	76					; 0000004cH
	DB	111					; 0000006fH
	DB	99					; 00000063H
	DB	107					; 0000006bH
	DB	0
_TEXT	ENDS
;	COMDAT text$x
text$x	SEGMENT
__ehhandler$?_Swap_all@_Container_base12@std@@QAEXAAU12@@Z:
	mov	edx, DWORD PTR [esp+8]
	lea	eax, DWORD PTR [edx+12]
	mov	ecx, DWORD PTR [edx-24]
	xor	ecx, eax
	call	@__security_check_cookie@4
	mov	eax, OFFSET __ehfuncinfo$?_Swap_all@_Container_base12@std@@QAEXAAU12@@Z
	jmp	___CxxFrameHandler3
text$x	ENDS
?_Swap_all@_Container_base12@std@@QAEXAAU12@@Z ENDP	; std::_Container_base12::_Swap_all
; Function compile flags: /Odtp /RTCsu
; File c:\program files (x86)\microsoft visual studio\2017\enterprise\vc\tools\msvc\14.15.26726\include\xutility
;	COMDAT ?_Orphan_all@_Container_base12@std@@QAEXXZ
_TEXT	SEGMENT
__Pnext$2 = -32						; size = 4
__Lock$3 = -24						; size = 4
_this$ = -16						; size = 4
__$EHRec$ = -12						; size = 12
?_Orphan_all@_Container_base12@std@@QAEXXZ PROC		; std::_Container_base12::_Orphan_all, COMDAT
; _this$ = ecx

; 214  : 	{	// orphan all iterators

	push	ebp
	mov	ebp, esp
	push	-1
	push	__ehhandler$?_Orphan_all@_Container_base12@std@@QAEXXZ
	mov	eax, DWORD PTR fs:0
	push	eax
	sub	esp, 20					; 00000014H
	mov	eax, -858993460				; ccccccccH
	mov	DWORD PTR [ebp-32], eax
	mov	DWORD PTR [ebp-28], eax
	mov	DWORD PTR [ebp-24], eax
	mov	DWORD PTR [ebp-20], eax
	mov	DWORD PTR [ebp-16], eax
	mov	eax, DWORD PTR ___security_cookie
	xor	eax, ebp
	push	eax
	lea	eax, DWORD PTR __$EHRec$[ebp]
	mov	DWORD PTR fs:0, eax
	mov	DWORD PTR _this$[ebp], ecx

; 215  :  #if _ITERATOR_DEBUG_LEVEL == 2
; 216  : 	if (_Myproxy != nullptr)

	mov	eax, DWORD PTR _this$[ebp]
	cmp	DWORD PTR [eax], 0
	je	SHORT $LN6@Orphan_all

; 217  : 		{	// proxy allocated, drain it
; 218  : 		_Lockit _Lock(_LOCK_DEBUG);

	push	3
	lea	ecx, DWORD PTR __Lock$3[ebp]
	call	??0_Lockit@std@@QAE@H@Z			; std::_Lockit::_Lockit

; 219  : 
; 220  : 		for (_Iterator_base12 **_Pnext = &_Myproxy->_Myfirstiter;

	mov	ecx, DWORD PTR _this$[ebp]
	mov	edx, DWORD PTR [ecx]
	add	edx, 4
	mov	DWORD PTR __Pnext$2[ebp], edx
	jmp	SHORT $LN4@Orphan_all
$LN2@Orphan_all:

; 221  : 			*_Pnext != nullptr; *_Pnext = (*_Pnext)->_Mynextiter)

	mov	eax, DWORD PTR __Pnext$2[ebp]
	mov	ecx, DWORD PTR [eax]
	mov	edx, DWORD PTR __Pnext$2[ebp]
	mov	eax, DWORD PTR [ecx+4]
	mov	DWORD PTR [edx], eax
$LN4@Orphan_all:
	mov	ecx, DWORD PTR __Pnext$2[ebp]
	cmp	DWORD PTR [ecx], 0
	je	SHORT $LN3@Orphan_all

; 222  : 			(*_Pnext)->_Myproxy = nullptr;

	mov	edx, DWORD PTR __Pnext$2[ebp]
	mov	eax, DWORD PTR [edx]
	mov	DWORD PTR [eax], 0
	jmp	SHORT $LN2@Orphan_all
$LN3@Orphan_all:

; 223  : 		_Myproxy->_Myfirstiter = nullptr;

	mov	ecx, DWORD PTR _this$[ebp]
	mov	edx, DWORD PTR [ecx]
	mov	DWORD PTR [edx+4], 0

; 224  : 		}

	lea	ecx, DWORD PTR __Lock$3[ebp]
	call	??1_Lockit@std@@QAE@XZ			; std::_Lockit::~_Lockit
$LN6@Orphan_all:

; 225  :  #endif /* _ITERATOR_DEBUG_LEVEL == 2 */
; 226  : 	}

	push	edx
	mov	ecx, ebp
	push	eax
	lea	edx, DWORD PTR $LN10@Orphan_all
	call	@_RTC_CheckStackVars@8
	pop	eax
	pop	edx
	mov	ecx, DWORD PTR __$EHRec$[ebp]
	mov	DWORD PTR fs:0, ecx
	pop	ecx
	add	esp, 32					; 00000020H
	cmp	ebp, esp
	call	__RTC_CheckEsp
	mov	esp, ebp
	pop	ebp
	ret	0
	npad	1
$LN10@Orphan_all:
	DD	1
	DD	$LN9@Orphan_all
$LN9@Orphan_all:
	DD	-24					; ffffffe8H
	DD	4
	DD	$LN7@Orphan_all
$LN7@Orphan_all:
	DB	95					; 0000005fH
	DB	76					; 0000004cH
	DB	111					; 0000006fH
	DB	99					; 00000063H
	DB	107					; 0000006bH
	DB	0
_TEXT	ENDS
;	COMDAT text$x
text$x	SEGMENT
__ehhandler$?_Orphan_all@_Container_base12@std@@QAEXXZ:
	mov	edx, DWORD PTR [esp+8]
	lea	eax, DWORD PTR [edx+12]
	mov	ecx, DWORD PTR [edx-24]
	xor	ecx, eax
	call	@__security_check_cookie@4
	mov	eax, OFFSET __ehfuncinfo$?_Orphan_all@_Container_base12@std@@QAEXXZ
	jmp	___CxxFrameHandler3
text$x	ENDS
?_Orphan_all@_Container_base12@std@@QAEXXZ ENDP		; std::_Container_base12::_Orphan_all
; Function compile flags: /Odtp /RTCsu
; File c:\program files (x86)\microsoft visual studio\2017\enterprise\vc\tools\msvc\14.15.26726\include\xutility
;	COMDAT ?_Getpfirst@_Container_base12@std@@QBEPAPAU_Iterator_base12@2@XZ
_TEXT	SEGMENT
tv68 = -8						; size = 4
_this$ = -4						; size = 4
?_Getpfirst@_Container_base12@std@@QBEPAPAU_Iterator_base12@2@XZ PROC ; std::_Container_base12::_Getpfirst, COMDAT
; _this$ = ecx

; 95   : 		{	// get address of iterator chain

	push	ebp
	mov	ebp, esp
	sub	esp, 8
	mov	DWORD PTR [ebp-8], -858993460		; ccccccccH
	mov	DWORD PTR [ebp-4], -858993460		; ccccccccH
	mov	DWORD PTR _this$[ebp], ecx

; 96   : 		return (_Myproxy == nullptr ? nullptr : &_Myproxy->_Myfirstiter);

	mov	eax, DWORD PTR _this$[ebp]
	cmp	DWORD PTR [eax], 0
	jne	SHORT $LN3@Getpfirst
	mov	DWORD PTR tv68[ebp], 0
	jmp	SHORT $LN4@Getpfirst
$LN3@Getpfirst:
	mov	ecx, DWORD PTR _this$[ebp]
	mov	edx, DWORD PTR [ecx]
	add	edx, 4
	mov	DWORD PTR tv68[ebp], edx
$LN4@Getpfirst:
	mov	eax, DWORD PTR tv68[ebp]

; 97   : 		}

	mov	esp, ebp
	pop	ebp
	ret	0
?_Getpfirst@_Container_base12@std@@QBEPAPAU_Iterator_base12@2@XZ ENDP ; std::_Container_base12::_Getpfirst
_TEXT	ENDS
; Function compile flags: /Odtp /RTCsu
; File c:\program files (x86)\microsoft visual studio\2017\enterprise\vc\tools\msvc\14.15.26726\include\xutility
;	COMDAT ??0_Container_base12@std@@QAE@XZ
_TEXT	SEGMENT
_this$ = -4						; size = 4
??0_Container_base12@std@@QAE@XZ PROC			; std::_Container_base12::_Container_base12, COMDAT
; _this$ = ecx

; 81   : 		{	// construct childless container

	push	ebp
	mov	ebp, esp
	push	ecx
	mov	DWORD PTR [ebp-4], -858993460		; ccccccccH
	mov	DWORD PTR _this$[ebp], ecx

; 80   : 		: _Myproxy(nullptr)

	mov	eax, DWORD PTR _this$[ebp]
	mov	DWORD PTR [eax], 0

; 82   : 		}

	mov	eax, DWORD PTR _this$[ebp]
	mov	esp, ebp
	pop	ebp
	ret	0
??0_Container_base12@std@@QAE@XZ ENDP			; std::_Container_base12::_Container_base12
_TEXT	ENDS
; Function compile flags: /Odtp /RTCsu
; File c:\program files (x86)\microsoft visual studio\2017\enterprise\vc\tools\msvc\14.15.26726\include\xutility
;	COMDAT ??0_Container_proxy@std@@QAE@XZ
_TEXT	SEGMENT
_this$ = -4						; size = 4
??0_Container_proxy@std@@QAE@XZ PROC			; std::_Container_proxy::_Container_proxy, COMDAT
; _this$ = ecx

; 69   : 		{	// construct from pointers

	push	ebp
	mov	ebp, esp
	push	ecx
	mov	DWORD PTR [ebp-4], -858993460		; ccccccccH
	mov	DWORD PTR _this$[ebp], ecx

; 68   : 		: _Mycont(nullptr), _Myfirstiter(nullptr)

	mov	eax, DWORD PTR _this$[ebp]
	mov	DWORD PTR [eax], 0
	mov	ecx, DWORD PTR _this$[ebp]
	mov	DWORD PTR [ecx+4], 0

; 70   : 		}

	mov	eax, DWORD PTR _this$[ebp]
	mov	esp, ebp
	pop	ebp
	ret	0
??0_Container_proxy@std@@QAE@XZ ENDP			; std::_Container_proxy::_Container_proxy
_TEXT	ENDS
; Function compile flags: /Odtp /RTCsu
; File c:\program files (x86)\microsoft visual studio\2017\enterprise\vc\tools\msvc\14.15.26726\include\xutility
;	COMDAT ?_Adopt@_Iterator_base0@std@@QAEXPBX@Z
_TEXT	SEGMENT
_this$ = -4						; size = 4
___formal$ = 8						; size = 4
?_Adopt@_Iterator_base0@std@@QAEXPBX@Z PROC		; std::_Iterator_base0::_Adopt, COMDAT
; _this$ = ecx

; 53   : 		{	// adopt this iterator by parent

	push	ebp
	mov	ebp, esp
	push	ecx
	mov	DWORD PTR [ebp-4], -858993460		; ccccccccH
	mov	DWORD PTR _this$[ebp], ecx

; 54   : 		}

	mov	esp, ebp
	pop	ebp
	ret	4
?_Adopt@_Iterator_base0@std@@QAEXPBX@Z ENDP		; std::_Iterator_base0::_Adopt
_TEXT	ENDS
; Function compile flags: /Odtp /RTCsu
; File c:\program files (x86)\microsoft visual studio\2017\enterprise\vc\tools\msvc\14.15.26726\include\limits
;	COMDAT ?max@?$numeric_limits@N@std@@SANXZ
_TEXT	SEGMENT
?max@?$numeric_limits@N@std@@SANXZ PROC			; std::numeric_limits<double>::max, COMDAT

; 1062 : 		{	// return maximum value

	push	ebp
	mov	ebp, esp

; 1063 : 		return (DBL_MAX);

	fld	QWORD PTR __real@7fefffffffffffff

; 1064 : 		}

	pop	ebp
	ret	0
?max@?$numeric_limits@N@std@@SANXZ ENDP			; std::numeric_limits<double>::max
_TEXT	ENDS
; Function compile flags: /Odtp /RTCsu
; File c:\program files (x86)\microsoft visual studio\2017\enterprise\vc\tools\msvc\14.15.26726\include\limits
;	COMDAT ?min@?$numeric_limits@N@std@@SANXZ
_TEXT	SEGMENT
?min@?$numeric_limits@N@std@@SANXZ PROC			; std::numeric_limits<double>::min, COMDAT

; 1057 : 		{	// return minimum value

	push	ebp
	mov	ebp, esp

; 1058 : 		return (DBL_MIN);

	fld	QWORD PTR __real@0010000000000000

; 1059 : 		}

	pop	ebp
	ret	0
?min@?$numeric_limits@N@std@@SANXZ ENDP			; std::numeric_limits<double>::min
_TEXT	ENDS
; Function compile flags: /Odtp /RTCsu
; File c:\program files (x86)\microsoft visual studio\2017\enterprise\vc\tools\msvc\14.15.26726\include\limits
;	COMDAT ?max@?$numeric_limits@M@std@@SAMXZ
_TEXT	SEGMENT
?max@?$numeric_limits@M@std@@SAMXZ PROC			; std::numeric_limits<float>::max, COMDAT

; 1003 : 		{	// return maximum value

	push	ebp
	mov	ebp, esp

; 1004 : 		return (FLT_MAX);

	fld	DWORD PTR __real@7f7fffff

; 1005 : 		}

	pop	ebp
	ret	0
?max@?$numeric_limits@M@std@@SAMXZ ENDP			; std::numeric_limits<float>::max
_TEXT	ENDS
; Function compile flags: /Odtp /RTCsu
; File c:\program files (x86)\microsoft visual studio\2017\enterprise\vc\tools\msvc\14.15.26726\include\limits
;	COMDAT ?min@?$numeric_limits@M@std@@SAMXZ
_TEXT	SEGMENT
?min@?$numeric_limits@M@std@@SAMXZ PROC			; std::numeric_limits<float>::min, COMDAT

; 998  : 		{	// return minimum value

	push	ebp
	mov	ebp, esp

; 999  : 		return (FLT_MIN);

	fld	DWORD PTR __real@00800000

; 1000 : 		}

	pop	ebp
	ret	0
?min@?$numeric_limits@M@std@@SAMXZ ENDP			; std::numeric_limits<float>::min
_TEXT	ENDS
; Function compile flags: /Odtp /RTCsu
; File c:\program files (x86)\microsoft visual studio\2017\enterprise\vc\tools\msvc\14.15.26726\include\limits
;	COMDAT ?max@?$numeric_limits@H@std@@SAHXZ
_TEXT	SEGMENT
?max@?$numeric_limits@H@std@@SAHXZ PROC			; std::numeric_limits<int>::max, COMDAT

; 616  : 		{	// return maximum value

	push	ebp
	mov	ebp, esp

; 617  : 		return (INT_MAX);

	mov	eax, 2147483647				; 7fffffffH

; 618  : 		}

	pop	ebp
	ret	0
?max@?$numeric_limits@H@std@@SAHXZ ENDP			; std::numeric_limits<int>::max
_TEXT	ENDS
; Function compile flags: /Odtp /RTCsu
; File c:\program files (x86)\microsoft visual studio\2017\enterprise\vc\tools\msvc\14.15.26726\include\vcruntime_new.h
;	COMDAT ??2@YAPAXIPAX@Z
_TEXT	SEGMENT
__Size$ = 8						; size = 4
__Where$ = 12						; size = 4
??2@YAPAXIPAX@Z PROC					; operator new, COMDAT

; 185  :     {

	push	ebp
	mov	ebp, esp

; 186  :         (void)_Size;
; 187  :         return _Where;

	mov	eax, DWORD PTR __Where$[ebp]

; 188  :     }

	pop	ebp
	ret	0
??2@YAPAXIPAX@Z ENDP					; operator new
_TEXT	ENDS
; Function compile flags: /Odtp /RTCsu
; File d:\utilisateurs\samuel\mes documents\cours\uqac\ia\ravenproject\sources\weaponmarkers.cpp
;	COMDAT ?__empty_global_delete@@YAXPAXI@Z
_TEXT	SEGMENT
___formal$ = 8						; size = 4
___formal$ = 12						; size = 4
?__empty_global_delete@@YAXPAXI@Z PROC			; __empty_global_delete, COMDAT

	push	ebp
	mov	ebp, esp
	pop	ebp
	ret	0
?__empty_global_delete@@YAXPAXI@Z ENDP			; __empty_global_delete
_TEXT	ENDS
; Function compile flags: /Odtp /RTCsu
; File d:\utilisateurs\samuel\mes documents\cours\uqac\ia\ravenproject\sources\weaponmarkers.cpp
;	COMDAT ?__empty_global_delete@@YAXPAX@Z
_TEXT	SEGMENT
___formal$ = 8						; size = 4
?__empty_global_delete@@YAXPAX@Z PROC			; __empty_global_delete, COMDAT

	push	ebp
	mov	ebp, esp
	pop	ebp
	ret	0
?__empty_global_delete@@YAXPAX@Z ENDP			; __empty_global_delete
_TEXT	ENDS
END
